
../../parti-badge/firmware/target/firmware.elf:     file format elf32-littlearm

Sections:
Idx Name          Size      VMA       LMA       File off  Algn
  0 .module_info  00000018  000d4000  000d4000  00004000  2**2
                  CONTENTS, ALLOC, LOAD, READONLY, DATA
  1 .text         0000a3c8  000d4018  000d4018  00004018  2**3
                  CONTENTS, ALLOC, LOAD, READONLY, CODE
  2 .backup       00000000  2003f400  2003f400  0001ed34  2**0
                  CONTENTS
  3 .data         00000928  2003d804  000de3e0  0001d804  2**2
                  CONTENTS, ALLOC, LOAD, DATA
  4 .bss          000006d4  2003e12c  2003e12c  0002e12c  2**2
                  ALLOC
  5 .module_info_suffix 00000028  000ded08  000ded08  0001ed08  2**0
                  CONTENTS, ALLOC, LOAD, READONLY, DATA
  6 .module_info_crc 00000004  000ded30  000ded30  0001ed30  2**0
                  CONTENTS, ALLOC, LOAD, READONLY, DATA
  7 .debug_info   0010db02  00000000  00000000  0001ed34  2**0
                  CONTENTS, READONLY, DEBUGGING
  8 .debug_abbrev 0001c1df  00000000  00000000  0012c836  2**0
                  CONTENTS, READONLY, DEBUGGING
  9 .debug_loc    0001ae92  00000000  00000000  00148a15  2**0
                  CONTENTS, READONLY, DEBUGGING
 10 .debug_aranges 00002998  00000000  00000000  001638a7  2**0
                  CONTENTS, READONLY, DEBUGGING
 11 .debug_ranges 00003ed8  00000000  00000000  0016623f  2**0
                  CONTENTS, READONLY, DEBUGGING
 12 .debug_macro  0003458e  00000000  00000000  0016a117  2**0
                  CONTENTS, READONLY, DEBUGGING
 13 .debug_line   0004b020  00000000  00000000  0019e6a5  2**0
                  CONTENTS, READONLY, DEBUGGING
 14 .debug_str    0005bc06  00000000  00000000  001e96c5  2**0
                  CONTENTS, READONLY, DEBUGGING
 15 .debug_frame  0000d7a8  00000000  00000000  002452cc  2**2
                  CONTENTS, READONLY, DEBUGGING

Disassembly of section .text:

000d4018 <user_part_module>:
   d4018:	74 bf 0d 00                                         t...

000d401c <module_user_pre_init>:
/**
 * Initializes this user module. Returns the start of the heap.
 */
void* module_user_pre_init() {

    if ( (&link_global_data_start!=&link_global_data_initial_values) && (link_global_data_size != 0))
   d401c:	4809      	ldr	r0, [pc, #36]	; (d4044 <module_user_pre_init+0x28>)
   d401e:	490a      	ldr	r1, [pc, #40]	; (d4048 <module_user_pre_init+0x2c>)
   d4020:	4288      	cmp	r0, r1
extern constructor_ptr_t link_constructors_end;

/**
 * Initializes this user module. Returns the start of the heap.
 */
void* module_user_pre_init() {
   d4022:	b508      	push	{r3, lr}

    if ( (&link_global_data_start!=&link_global_data_initial_values) && (link_global_data_size != 0))
   d4024:	d005      	beq.n	d4032 <module_user_pre_init+0x16>
   d4026:	4a09      	ldr	r2, [pc, #36]	; (d404c <module_user_pre_init+0x30>)
   d4028:	4282      	cmp	r2, r0
   d402a:	d002      	beq.n	d4032 <module_user_pre_init+0x16>
    {
        memcpy(&link_global_data_start, &link_global_data_initial_values, link_global_data_size);
   d402c:	1a12      	subs	r2, r2, r0
   d402e:	f007 fef4 	bl	dbe1a <memcpy>
    }

    memset(&link_bss_location, 0, link_bss_size );
   d4032:	4807      	ldr	r0, [pc, #28]	; (d4050 <module_user_pre_init+0x34>)
   d4034:	4a07      	ldr	r2, [pc, #28]	; (d4054 <module_user_pre_init+0x38>)
   d4036:	2100      	movs	r1, #0
   d4038:	1a12      	subs	r2, r2, r0
   d403a:	f007 fef9 	bl	dbe30 <memset>
    return &link_global_data_start;
}
   d403e:	4801      	ldr	r0, [pc, #4]	; (d4044 <module_user_pre_init+0x28>)
   d4040:	bd08      	pop	{r3, pc}
   d4042:	bf00      	nop
   d4044:	2003d804 	.word	0x2003d804
   d4048:	000de3e0 	.word	0x000de3e0
   d404c:	2003e12c 	.word	0x2003e12c
   d4050:	2003e12c 	.word	0x2003e12c
   d4054:	2003e800 	.word	0x2003e800

000d4058 <module_user_init>:
extern constructor_ptr_t link_constructors_location[];
extern constructor_ptr_t link_constructors_end;
#define link_constructors_size   ((unsigned long)&link_constructors_end  -  (unsigned long)&link_constructors_location )

void module_user_init()
{
   d4058:	b570      	push	{r4, r5, r6, lr}
    module_user_init_hook();
   d405a:	f006 ff4b 	bl	daef4 <module_user_init_hook>
   d405e:	4c07      	ldr	r4, [pc, #28]	; (d407c <module_user_init+0x24>)
   d4060:	4b07      	ldr	r3, [pc, #28]	; (d4080 <module_user_init+0x28>)
   d4062:	1ae4      	subs	r4, r4, r3
   d4064:	08a4      	lsrs	r4, r4, #2

    // invoke constructors
    int ctor_num;
    for (ctor_num=0; ctor_num < link_constructors_size/sizeof(constructor_ptr_t); ctor_num++ )
   d4066:	2500      	movs	r5, #0
   d4068:	461e      	mov	r6, r3
   d406a:	42a5      	cmp	r5, r4
   d406c:	d004      	beq.n	d4078 <module_user_init+0x20>
    {
        link_constructors_location[ctor_num]();
   d406e:	f856 3025 	ldr.w	r3, [r6, r5, lsl #2]
   d4072:	4798      	blx	r3
{
    module_user_init_hook();

    // invoke constructors
    int ctor_num;
    for (ctor_num=0; ctor_num < link_constructors_size/sizeof(constructor_ptr_t); ctor_num++ )
   d4074:	3501      	adds	r5, #1
   d4076:	e7f8      	b.n	d406a <module_user_init+0x12>
    {
        link_constructors_location[ctor_num]();
    }
}
   d4078:	bd70      	pop	{r4, r5, r6, pc}
   d407a:	bf00      	nop
   d407c:	000de3dc 	.word	0x000de3dc
   d4080:	000de3a0 	.word	0x000de3a0

000d4084 <module_user_setup>:

/**
 * Export these functions with a fuller name so they don't clash with the setup/loop wrappers in the system module.
 */
void module_user_setup() {
    setup();
   d4084:	f000 bba8 	b.w	d47d8 <setup>

000d4088 <module_user_loop>:
}

void module_user_loop() {
   d4088:	b508      	push	{r3, lr}
    loop();
   d408a:	f000 f8b1 	bl	d41f0 <loop>
    _post_loop();
}
   d408e:	e8bd 4008 	ldmia.w	sp!, {r3, lr}
    setup();
}

void module_user_loop() {
    loop();
    _post_loop();
   d4092:	f006 befd 	b.w	dae90 <_post_loop>

000d4096 <_Znwj>:
   d4096:	f005 b8eb 	b.w	d9270 <malloc>

000d409a <_Znaj>:
	return malloc(size);
}

void *operator new[](size_t size)
{
	return malloc(size);
   d409a:	f005 b8e9 	b.w	d9270 <malloc>

000d409e <_ZdlPv>:
   d409e:	f005 b8ef 	b.w	d9280 <free>
	...

000d40a4 <__cxa_pure_virtual>:
        ;
    }
}

/* Default implementation for call made to pure virtual function. */
void __cxa_pure_virtual() {
   d40a4:	b510      	push	{r4, lr}
   d40a6:	b08a      	sub	sp, #40	; 0x28
  PANIC(PureVirtualCall,"Call on pure virtual");
   d40a8:	2320      	movs	r3, #32
   d40aa:	2400      	movs	r4, #0
   d40ac:	9302      	str	r3, [sp, #8]
   d40ae:	4b07      	ldr	r3, [pc, #28]	; (d40cc <__cxa_pure_virtual+0x28>)
   d40b0:	9300      	str	r3, [sp, #0]
   d40b2:	aa02      	add	r2, sp, #8
   d40b4:	4621      	mov	r1, r4
   d40b6:	203c      	movs	r0, #60	; 0x3c
   d40b8:	4623      	mov	r3, r4
   d40ba:	9403      	str	r4, [sp, #12]
   d40bc:	f005 f828 	bl	d9110 <log_message>
   d40c0:	4a03      	ldr	r2, [pc, #12]	; (d40d0 <__cxa_pure_virtual+0x2c>)
   d40c2:	4621      	mov	r1, r4
   d40c4:	200c      	movs	r0, #12
   d40c6:	f005 f81b 	bl	d9100 <panic_>
   d40ca:	e7fe      	b.n	d40ca <__cxa_pure_virtual+0x26>
   d40cc:	000dbf94 	.word	0x000dbf94
   d40d0:	000d8cb1 	.word	0x000d8cb1

000d40d4 <__cxa_guard_acquire>:

/* Provide default implemenation for __cxa_guard_acquire() and
 * __cxa_guard_release(). Note: these must be revisited if a multitasking
 * OS is ported to this platform. */
__extension__ typedef int __guard __attribute__((mode (__DI__)));
int __cxa_guard_acquire(__guard *g) {return !*(char *)(g);};
   d40d4:	7800      	ldrb	r0, [r0, #0]
   d40d6:	fab0 f080 	clz	r0, r0
   d40da:	0940      	lsrs	r0, r0, #5
   d40dc:	4770      	bx	lr

000d40de <__cxa_guard_release>:
void __cxa_guard_release (__guard *g) {*(char *)g = 1;};
   d40de:	2301      	movs	r3, #1
   d40e0:	7003      	strb	r3, [r0, #0]
   d40e2:	4770      	bx	lr

000d40e4 <_ZN10CloudClass22update_string_variableEPKc18Spark_Data_TypeDefPKvPv>:

    static const void* update_string_variable(const char* name, Spark_Data_TypeDef type, const void* var, void* reserved)
    {
        const String* s = (const String*)var;
        return s->c_str();
    }
   d40e4:	6810      	ldr	r0, [r2, #0]
   d40e6:	4770      	bx	lr

000d40e8 <_ZN16Adafruit_SSD1306D1Ev>:
#define SSD1306_RIGHT_HORIZONTAL_SCROLL 0x26
#define SSD1306_LEFT_HORIZONTAL_SCROLL 0x27
#define SSD1306_VERTICAL_AND_RIGHT_HORIZONTAL_SCROLL 0x29
#define SSD1306_VERTICAL_AND_LEFT_HORIZONTAL_SCROLL 0x2A

class Adafruit_SSD1306 : public Adafruit_GFX {
   d40e8:	4770      	bx	lr

000d40ea <_ZN10WearerInfoD1Ev>:
#define EEPROM_FIRSTNAME_LOCATION 50
#define EEPROM_LASTNAME_LOCATION 120
#define EEPROM_TWITTER_LOCATION 190
#define STRING_BUFFER_SIZE 50

class WearerInfo {
   d40ea:	b510      	push	{r4, lr}
   d40ec:	4604      	mov	r4, r0
   d40ee:	3024      	adds	r0, #36	; 0x24
   d40f0:	f006 f834 	bl	da15c <_ZN6StringD1Ev>
   d40f4:	f104 0014 	add.w	r0, r4, #20
   d40f8:	f006 f830 	bl	da15c <_ZN6StringD1Ev>
   d40fc:	1d20      	adds	r0, r4, #4
   d40fe:	f006 f82d 	bl	da15c <_ZN6StringD1Ev>
   d4102:	4620      	mov	r0, r4
   d4104:	bd10      	pop	{r4, pc}

000d4106 <_Z16checkTempHandler6String>:
  return 1;
}

// Check the temp and humidity when called from a cloud function
int checkTempHandler(String data)
{
   d4106:	b508      	push	{r3, lr}
  getTempAndHumidity();
   d4108:	f002 ff2e 	bl	d6f68 <_Z18getTempAndHumidityv>

  return 1;
}
   d410c:	2001      	movs	r0, #1
   d410e:	bd08      	pop	{r3, pc}

000d4110 <_Z22updateFirstNameHandler6String>:
  }
}

//Update the first name when called from a cloud function
int updateFirstNameHandler(String data)
{
   d4110:	b51f      	push	{r0, r1, r2, r3, r4, lr}
  wearerFirstName = data;
   d4112:	4601      	mov	r1, r0
   d4114:	480b      	ldr	r0, [pc, #44]	; (d4144 <_Z22updateFirstNameHandler6String+0x34>)
   d4116:	f006 f898 	bl	da24a <_ZN6StringaSERKS_>
  wearerInfo.setFirstName(wearerFirstName);
   d411a:	490a      	ldr	r1, [pc, #40]	; (d4144 <_Z22updateFirstNameHandler6String+0x34>)
   d411c:	4668      	mov	r0, sp
   d411e:	f006 f8a3 	bl	da268 <_ZN6StringC1ERKS_>
   d4122:	4669      	mov	r1, sp
   d4124:	4808      	ldr	r0, [pc, #32]	; (d4148 <_Z22updateFirstNameHandler6String+0x38>)
   d4126:	f000 fc1b 	bl	d4960 <_ZN10WearerInfo12setFirstNameE6String>
   d412a:	4668      	mov	r0, sp
   d412c:	f006 f816 	bl	da15c <_ZN6StringD1Ev>

  if (displayingWearerDetails)
   d4130:	4b06      	ldr	r3, [pc, #24]	; (d414c <_Z22updateFirstNameHandler6String+0x3c>)
   d4132:	781b      	ldrb	r3, [r3, #0]
   d4134:	b10b      	cbz	r3, d413a <_Z22updateFirstNameHandler6String+0x2a>
  {
    displayWearerDetails();
   d4136:	f001 f987 	bl	d5448 <_Z20displayWearerDetailsv>
  }
  return 1;
}
   d413a:	2001      	movs	r0, #1
   d413c:	b005      	add	sp, #20
   d413e:	f85d fb04 	ldr.w	pc, [sp], #4
   d4142:	bf00      	nop
   d4144:	2003e144 	.word	0x2003e144
   d4148:	2003e168 	.word	0x2003e168
   d414c:	2003e270 	.word	0x2003e270

000d4150 <_Z21updateLastNameHandler6String>:

//Update the last name when called from a cloud function
int updateLastNameHandler(String data)
{
   d4150:	b51f      	push	{r0, r1, r2, r3, r4, lr}
  wearerLastName = data;
   d4152:	4601      	mov	r1, r0
   d4154:	480b      	ldr	r0, [pc, #44]	; (d4184 <_Z21updateLastNameHandler6String+0x34>)
   d4156:	f006 f878 	bl	da24a <_ZN6StringaSERKS_>
  wearerInfo.setLastName(wearerLastName);
   d415a:	490a      	ldr	r1, [pc, #40]	; (d4184 <_Z21updateLastNameHandler6String+0x34>)
   d415c:	4668      	mov	r0, sp
   d415e:	f006 f883 	bl	da268 <_ZN6StringC1ERKS_>
   d4162:	4669      	mov	r1, sp
   d4164:	4808      	ldr	r0, [pc, #32]	; (d4188 <_Z21updateLastNameHandler6String+0x38>)
   d4166:	f000 fc1d 	bl	d49a4 <_ZN10WearerInfo11setLastNameE6String>
   d416a:	4668      	mov	r0, sp
   d416c:	f005 fff6 	bl	da15c <_ZN6StringD1Ev>

  if (displayingWearerDetails)
   d4170:	4b06      	ldr	r3, [pc, #24]	; (d418c <_Z21updateLastNameHandler6String+0x3c>)
   d4172:	781b      	ldrb	r3, [r3, #0]
   d4174:	b10b      	cbz	r3, d417a <_Z21updateLastNameHandler6String+0x2a>
  {
    displayWearerDetails();
   d4176:	f001 f967 	bl	d5448 <_Z20displayWearerDetailsv>
  }
  return 1;
}
   d417a:	2001      	movs	r0, #1
   d417c:	b005      	add	sp, #20
   d417e:	f85d fb04 	ldr.w	pc, [sp], #4
   d4182:	bf00      	nop
   d4184:	2003e1d4 	.word	0x2003e1d4
   d4188:	2003e168 	.word	0x2003e168
   d418c:	2003e270 	.word	0x2003e270

000d4190 <_Z20updateTwitterHandler6String>:

int updateTwitterHandler(String data)
{
   d4190:	b51f      	push	{r0, r1, r2, r3, r4, lr}
  wearerTwitter = data;
   d4192:	4601      	mov	r1, r0
   d4194:	480b      	ldr	r0, [pc, #44]	; (d41c4 <_Z20updateTwitterHandler6String+0x34>)
   d4196:	f006 f858 	bl	da24a <_ZN6StringaSERKS_>
  wearerInfo.setTwitter(wearerTwitter);
   d419a:	490a      	ldr	r1, [pc, #40]	; (d41c4 <_Z20updateTwitterHandler6String+0x34>)
   d419c:	4668      	mov	r0, sp
   d419e:	f006 f863 	bl	da268 <_ZN6StringC1ERKS_>
   d41a2:	4669      	mov	r1, sp
   d41a4:	4808      	ldr	r0, [pc, #32]	; (d41c8 <_Z20updateTwitterHandler6String+0x38>)
   d41a6:	f000 fc20 	bl	d49ea <_ZN10WearerInfo10setTwitterE6String>
   d41aa:	4668      	mov	r0, sp
   d41ac:	f005 ffd6 	bl	da15c <_ZN6StringD1Ev>

  if (displayingWearerDetails)
   d41b0:	4b06      	ldr	r3, [pc, #24]	; (d41cc <_Z20updateTwitterHandler6String+0x3c>)
   d41b2:	781b      	ldrb	r3, [r3, #0]
   d41b4:	b10b      	cbz	r3, d41ba <_Z20updateTwitterHandler6String+0x2a>
  {
    displayWearerDetails();
   d41b6:	f001 f947 	bl	d5448 <_Z20displayWearerDetailsv>
  }
  return 1;
}
   d41ba:	2001      	movs	r0, #1
   d41bc:	b005      	add	sp, #20
   d41be:	f85d fb04 	ldr.w	pc, [sp], #4
   d41c2:	bf00      	nop
   d41c4:	2003e134 	.word	0x2003e134
   d41c8:	2003e168 	.word	0x2003e168
   d41cc:	2003e270 	.word	0x2003e270

000d41d0 <_ZN10CloudClass9_variableIcEEbPKT_PK6StringRK23CloudVariableTypeString.isra.3>:
        static_assert(sizeof(T)==0, "\n\nUse Particle.variable(\"name\", myVar, STRING); without & in front of myVar\n\n");
        return false;
    }

    template<typename T>
    static inline bool _variable(const T *varKey, const String *userVar, const CloudVariableTypeString& userVarType)
   d41d0:	b507      	push	{r0, r1, r2, lr}
    {
        spark_variable_t extra;
        extra.size = sizeof(extra);
   d41d2:	2308      	movs	r3, #8
   d41d4:	f8ad 3000 	strh.w	r3, [sp]
        extra.update = update_string_variable;
   d41d8:	4b04      	ldr	r3, [pc, #16]	; (d41ec <_ZN10CloudClass9_variableIcEEbPKT_PK6StringRK23CloudVariableTypeString.isra.3+0x1c>)
   d41da:	9301      	str	r3, [sp, #4]
        return CLOUD_FN(spark_variable(varKey, userVar, CloudVariableTypeString::value(), &extra), false);
   d41dc:	2204      	movs	r2, #4
   d41de:	466b      	mov	r3, sp
   d41e0:	f004 ffee 	bl	d91c0 <spark_variable>
    }
   d41e4:	b003      	add	sp, #12
   d41e6:	f85d fb04 	ldr.w	pc, [sp], #4
   d41ea:	bf00      	nop
   d41ec:	000d40e5 	.word	0x000d40e5

000d41f0 <loop>:
  // Scroll the title text on the screen
  display.startscrollleft(0x00, 0x0F);
}

void loop()
{
   d41f0:	b5f8      	push	{r3, r4, r5, r6, r7, lr}
  unsigned long currentMillis = millis();
  int clickedItem = 0;

  if (menuShowing == false)
   d41f2:	4ea2      	ldr	r6, [pc, #648]	; (d447c <loop+0x28c>)
#endif

#include "timer_hal.h"
#include "delay_hal.h"

inline system_tick_t millis(void) { return HAL_Timer_Get_Milli_Seconds(); }
   d41f4:	f004 fd6c 	bl	d8cd0 <HAL_Timer_Get_Milli_Seconds>
   d41f8:	7833      	ldrb	r3, [r6, #0]
   d41fa:	4607      	mov	r7, r0
   d41fc:	bb3b      	cbnz	r3, d424e <loop+0x5e>
  {
    redButtonADebouncer.update();
   d41fe:	48a0      	ldr	r0, [pc, #640]	; (d4480 <loop+0x290>)
   d4200:	f004 fbd8 	bl	d89b4 <_ZN8Debounce6updateEv>
    blueButtonBDebouncer.update();
   d4204:	489f      	ldr	r0, [pc, #636]	; (d4484 <loop+0x294>)
   d4206:	f004 fbd5 	bl	d89b4 <_ZN8Debounce6updateEv>
    greenButtonCDebouncer.update();
   d420a:	489f      	ldr	r0, [pc, #636]	; (d4488 <loop+0x298>)
   d420c:	f004 fbd2 	bl	d89b4 <_ZN8Debounce6updateEv>
    yellowButtonDDebouncer.update();
   d4210:	489e      	ldr	r0, [pc, #632]	; (d448c <loop+0x29c>)
   d4212:	f004 fbcf 	bl	d89b4 <_ZN8Debounce6updateEv>
    joystickCenterDebouncer.update();
   d4216:	489e      	ldr	r0, [pc, #632]	; (d4490 <loop+0x2a0>)
   d4218:	f004 fbcc 	bl	d89b4 <_ZN8Debounce6updateEv>

    if (redButtonADebouncer.read() == LOW ||
   d421c:	4898      	ldr	r0, [pc, #608]	; (d4480 <loop+0x290>)
   d421e:	f004 fbf9 	bl	d8a14 <_ZN8Debounce4readEv>
        blueButtonBDebouncer.read() == LOW ||
        greenButtonCDebouncer.read() == LOW ||
        yellowButtonDDebouncer.read() == LOW ||
   d4222:	2800      	cmp	r0, #0
   d4224:	d07d      	beq.n	d4322 <loop+0x132>
    greenButtonCDebouncer.update();
    yellowButtonDDebouncer.update();
    joystickCenterDebouncer.update();

    if (redButtonADebouncer.read() == LOW ||
        blueButtonBDebouncer.read() == LOW ||
   d4226:	4897      	ldr	r0, [pc, #604]	; (d4484 <loop+0x294>)
   d4228:	f004 fbf4 	bl	d8a14 <_ZN8Debounce4readEv>
    blueButtonBDebouncer.update();
    greenButtonCDebouncer.update();
    yellowButtonDDebouncer.update();
    joystickCenterDebouncer.update();

    if (redButtonADebouncer.read() == LOW ||
   d422c:	2800      	cmp	r0, #0
   d422e:	d078      	beq.n	d4322 <loop+0x132>
        blueButtonBDebouncer.read() == LOW ||
        greenButtonCDebouncer.read() == LOW ||
   d4230:	4895      	ldr	r0, [pc, #596]	; (d4488 <loop+0x298>)
   d4232:	f004 fbef 	bl	d8a14 <_ZN8Debounce4readEv>
    greenButtonCDebouncer.update();
    yellowButtonDDebouncer.update();
    joystickCenterDebouncer.update();

    if (redButtonADebouncer.read() == LOW ||
        blueButtonBDebouncer.read() == LOW ||
   d4236:	2800      	cmp	r0, #0
   d4238:	d073      	beq.n	d4322 <loop+0x132>
        greenButtonCDebouncer.read() == LOW ||
        yellowButtonDDebouncer.read() == LOW ||
   d423a:	4894      	ldr	r0, [pc, #592]	; (d448c <loop+0x29c>)
   d423c:	f004 fbea 	bl	d8a14 <_ZN8Debounce4readEv>
    yellowButtonDDebouncer.update();
    joystickCenterDebouncer.update();

    if (redButtonADebouncer.read() == LOW ||
        blueButtonBDebouncer.read() == LOW ||
        greenButtonCDebouncer.read() == LOW ||
   d4240:	2800      	cmp	r0, #0
   d4242:	d06e      	beq.n	d4322 <loop+0x132>
        yellowButtonDDebouncer.read() == LOW ||
        joystickCenterDebouncer.read() == LOW)
   d4244:	4892      	ldr	r0, [pc, #584]	; (d4490 <loop+0x2a0>)
   d4246:	f004 fbe5 	bl	d8a14 <_ZN8Debounce4readEv>
    joystickCenterDebouncer.update();

    if (redButtonADebouncer.read() == LOW ||
        blueButtonBDebouncer.read() == LOW ||
        greenButtonCDebouncer.read() == LOW ||
        yellowButtonDDebouncer.read() == LOW ||
   d424a:	2800      	cmp	r0, #0
   d424c:	d069      	beq.n	d4322 <loop+0x132>
      clearScreen();
      menu.InitMenu(mnuRoot, cntRoot, 1);
    }
  }

  if (btncounter > 0 && menuShowing)
   d424e:	4d91      	ldr	r5, [pc, #580]	; (d4494 <loop+0x2a4>)
   d4250:	782b      	ldrb	r3, [r5, #0]
   d4252:	b15b      	cbz	r3, d426c <loop+0x7c>
   d4254:	7833      	ldrb	r3, [r6, #0]
   d4256:	2b00      	cmp	r3, #0
   d4258:	d16e      	bne.n	d4338 <loop+0x148>
   d425a:	e007      	b.n	d426c <loop+0x7c>
    case 5:
      clickedItem = menu.ProcessMenu(ACTION_SELECT);
      btncounter--;
      break;
    case 2:
      menu.ProcessMenu(ACTION_DOWN);
   d425c:	2102      	movs	r1, #2
      btncounter--;
      break;
    case 3:
      menu.ProcessMenu(ACTION_UP);
   d425e:	488e      	ldr	r0, [pc, #568]	; (d4498 <loop+0x2a8>)
   d4260:	f004 fcf4 	bl	d8c4c <_ZN11qMenuSystem11ProcessMenuEi>
      btncounter--;
   d4264:	782b      	ldrb	r3, [r5, #0]
   d4266:	3b01      	subs	r3, #1
   d4268:	b2db      	uxtb	r3, r3
   d426a:	702b      	strb	r3, [r5, #0]
    {
      menu.InitMenu((const char **)mnuRoot, cntRoot, 8);
    }
  }

  if (displayingCarousel)
   d426c:	4b8b      	ldr	r3, [pc, #556]	; (d449c <loop+0x2ac>)
   d426e:	781b      	ldrb	r3, [r3, #0]
   d4270:	b10b      	cbz	r3, d4276 <loop+0x86>
  {
    displayCarousel();
   d4272:	f001 f885 	bl	d5380 <_Z15displayCarouselv>
  }

  if (currentMillis - previousBatteryReading > BATT_CHECK_INTERVAL)
   d4276:	498a      	ldr	r1, [pc, #552]	; (d44a0 <loop+0x2b0>)
   d4278:	680b      	ldr	r3, [r1, #0]
   d427a:	1afa      	subs	r2, r7, r3
   d427c:	4b89      	ldr	r3, [pc, #548]	; (d44a4 <loop+0x2b4>)
   d427e:	429a      	cmp	r2, r3
   d4280:	461c      	mov	r4, r3
   d4282:	d902      	bls.n	d428a <loop+0x9a>
  {
    previousBatteryReading = currentMillis;
   d4284:	600f      	str	r7, [r1, #0]
    getBatteryReading();
   d4286:	f002 ff01 	bl	d708c <_Z17getBatteryReadingv>
  }

  if (currentMillis - previousEnvReading > TEMP_CHECK_INTERVAL)
   d428a:	4a87      	ldr	r2, [pc, #540]	; (d44a8 <loop+0x2b8>)
   d428c:	6813      	ldr	r3, [r2, #0]
   d428e:	1afb      	subs	r3, r7, r3
   d4290:	42a3      	cmp	r3, r4
   d4292:	d902      	bls.n	d429a <loop+0xaa>
  {
    previousEnvReading = currentMillis;
   d4294:	6017      	str	r7, [r2, #0]
    getTempAndHumidity();
   d4296:	f002 fe67 	bl	d6f68 <_Z18getTempAndHumidityv>
  }

  blueButtonBDebouncer.update();
   d429a:	487a      	ldr	r0, [pc, #488]	; (d4484 <loop+0x294>)
   d429c:	f004 fb8a 	bl	d89b4 <_ZN8Debounce6updateEv>
  if (blueButtonBDebouncer.read() == LOW)
   d42a0:	4878      	ldr	r0, [pc, #480]	; (d4484 <loop+0x294>)
   d42a2:	f004 fbb7 	bl	d8a14 <_ZN8Debounce4readEv>
   d42a6:	b908      	cbnz	r0, d42ac <loop+0xbc>
  {
    fireTowerSendEvent();
   d42a8:	f001 fbb0 	bl	d5a0c <_Z18fireTowerSendEventv>
  }

  if (!showingLightAnimation)
   d42ac:	4b7f      	ldr	r3, [pc, #508]	; (d44ac <loop+0x2bc>)
   d42ae:	781c      	ldrb	r4, [r3, #0]
   d42b0:	2c00      	cmp	r4, #0
   d42b2:	f040 81d4 	bne.w	d465e <loop+0x46e>
  {
    redButtonADebouncer.update();
   d42b6:	4872      	ldr	r0, [pc, #456]	; (d4480 <loop+0x290>)
   d42b8:	f004 fb7c 	bl	d89b4 <_ZN8Debounce6updateEv>
    if (redButtonADebouncer.read() == LOW)
   d42bc:	4870      	ldr	r0, [pc, #448]	; (d4480 <loop+0x290>)
   d42be:	f004 fba9 	bl	d8a14 <_ZN8Debounce4readEv>
   d42c2:	b908      	cbnz	r0, d42c8 <loop+0xd8>
    {
      digitalWrite(RED_BUTTON_A, HIGH);
   d42c4:	2101      	movs	r1, #1
   d42c6:	e000      	b.n	d42ca <loop+0xda>
    }
    else
    {
      digitalWrite(RED_BUTTON_A, LOW);
   d42c8:	4621      	mov	r1, r4
   d42ca:	200c      	movs	r0, #12
   d42cc:	f006 fe57 	bl	daf7e <digitalWrite>
    }

    blueButtonBDebouncer.update();
   d42d0:	486c      	ldr	r0, [pc, #432]	; (d4484 <loop+0x294>)
   d42d2:	f004 fb6f 	bl	d89b4 <_ZN8Debounce6updateEv>
    if (blueButtonBDebouncer.read() == LOW)
   d42d6:	486b      	ldr	r0, [pc, #428]	; (d4484 <loop+0x294>)
   d42d8:	f004 fb9c 	bl	d8a14 <_ZN8Debounce4readEv>
   d42dc:	b908      	cbnz	r0, d42e2 <loop+0xf2>
    {
      digitalWrite(BLUE_BUTTON_B, HIGH);
   d42de:	2101      	movs	r1, #1
   d42e0:	e000      	b.n	d42e4 <loop+0xf4>
    }
    else
    {
      digitalWrite(BLUE_BUTTON_B, LOW);
   d42e2:	2100      	movs	r1, #0
   d42e4:	200e      	movs	r0, #14
   d42e6:	f006 fe4a 	bl	daf7e <digitalWrite>
    }

    greenButtonCDebouncer.update();
   d42ea:	4867      	ldr	r0, [pc, #412]	; (d4488 <loop+0x298>)
   d42ec:	f004 fb62 	bl	d89b4 <_ZN8Debounce6updateEv>
    if (greenButtonCDebouncer.read() == LOW)
   d42f0:	4865      	ldr	r0, [pc, #404]	; (d4488 <loop+0x298>)
   d42f2:	f004 fb8f 	bl	d8a14 <_ZN8Debounce4readEv>
   d42f6:	b908      	cbnz	r0, d42fc <loop+0x10c>
    {
      digitalWrite(GREEN_BUTTON_C, HIGH);
   d42f8:	2101      	movs	r1, #1
   d42fa:	e000      	b.n	d42fe <loop+0x10e>
    }
    else
    {
      digitalWrite(GREEN_BUTTON_C, LOW);
   d42fc:	2100      	movs	r1, #0
   d42fe:	200d      	movs	r0, #13
   d4300:	f006 fe3d 	bl	daf7e <digitalWrite>
    }

    yellowButtonDDebouncer.update();
   d4304:	4861      	ldr	r0, [pc, #388]	; (d448c <loop+0x29c>)
   d4306:	f004 fb55 	bl	d89b4 <_ZN8Debounce6updateEv>
    if (yellowButtonDDebouncer.read() == LOW)
   d430a:	4860      	ldr	r0, [pc, #384]	; (d448c <loop+0x29c>)
   d430c:	f004 fb82 	bl	d8a14 <_ZN8Debounce4readEv>
   d4310:	b908      	cbnz	r0, d4316 <loop+0x126>
    {
      digitalWrite(YELLOW_BUTTON_D, HIGH);
   d4312:	2101      	movs	r1, #1
   d4314:	e000      	b.n	d4318 <loop+0x128>
    }
    else
    {
      digitalWrite(YELLOW_BUTTON_D, LOW);
   d4316:	2100      	movs	r1, #0
   d4318:	200f      	movs	r0, #15
    }
  }
}
   d431a:	e8bd 40f8 	ldmia.w	sp!, {r3, r4, r5, r6, r7, lr}
    {
      digitalWrite(YELLOW_BUTTON_D, HIGH);
    }
    else
    {
      digitalWrite(YELLOW_BUTTON_D, LOW);
   d431e:	f006 be2e 	b.w	daf7e <digitalWrite>
        blueButtonBDebouncer.read() == LOW ||
        greenButtonCDebouncer.read() == LOW ||
        yellowButtonDDebouncer.read() == LOW ||
        joystickCenterDebouncer.read() == LOW)
    {
      menuShowing = true;
   d4322:	2401      	movs	r4, #1
   d4324:	7034      	strb	r4, [r6, #0]

      clearScreen();
   d4326:	f001 f877 	bl	d5418 <_Z11clearScreenv>
      menu.InitMenu(mnuRoot, cntRoot, 1);
   d432a:	4623      	mov	r3, r4
   d432c:	2209      	movs	r2, #9
   d432e:	4960      	ldr	r1, [pc, #384]	; (d44b0 <loop+0x2c0>)
   d4330:	4859      	ldr	r0, [pc, #356]	; (d4498 <loop+0x2a8>)
   d4332:	f004 fc7b 	bl	d8c2c <_ZN11qMenuSystem8InitMenuEPPKcii>
   d4336:	e78a      	b.n	d424e <loop+0x5e>
    }
  }

  if (btncounter > 0 && menuShowing)
  {
    switch (btnid)
   d4338:	4b5e      	ldr	r3, [pc, #376]	; (d44b4 <loop+0x2c4>)
   d433a:	781b      	ldrb	r3, [r3, #0]
   d433c:	3b01      	subs	r3, #1
   d433e:	2b04      	cmp	r3, #4
   d4340:	d894      	bhi.n	d426c <loop+0x7c>
   d4342:	a201      	add	r2, pc, #4	; (adr r2, d4348 <loop+0x158>)
   d4344:	f852 f023 	ldr.w	pc, [r2, r3, lsl #2]
   d4348:	000d435d 	.word	0x000d435d
   d434c:	000d425d 	.word	0x000d425d
   d4350:	000d4361 	.word	0x000d4361
   d4354:	000d4365 	.word	0x000d4365
   d4358:	000d435d 	.word	0x000d435d
    {
    case 1:
    case 5:
      clickedItem = menu.ProcessMenu(ACTION_SELECT);
   d435c:	2103      	movs	r1, #3
   d435e:	e002      	b.n	d4366 <loop+0x176>
    case 2:
      menu.ProcessMenu(ACTION_DOWN);
      btncounter--;
      break;
    case 3:
      menu.ProcessMenu(ACTION_UP);
   d4360:	2101      	movs	r1, #1
   d4362:	e77c      	b.n	d425e <loop+0x6e>
      btncounter--;
      break;
    case 4:
      clickedItem = menu.ProcessMenu(ACTION_BACK);
   d4364:	2104      	movs	r1, #4
   d4366:	484c      	ldr	r0, [pc, #304]	; (d4498 <loop+0x2a8>)
   d4368:	f004 fc70 	bl	d8c4c <_ZN11qMenuSystem11ProcessMenuEi>
      btncounter--;
   d436c:	782b      	ldrb	r3, [r5, #0]
   d436e:	3b01      	subs	r3, #1
   d4370:	b2db      	uxtb	r3, r3
      break;
    }
  }

  if (clickedItem > 0 && menuShowing)
   d4372:	2800      	cmp	r0, #0
    case 3:
      menu.ProcessMenu(ACTION_UP);
      btncounter--;
      break;
    case 4:
      clickedItem = menu.ProcessMenu(ACTION_BACK);
   d4374:	4604      	mov	r4, r0
      btncounter--;
   d4376:	702b      	strb	r3, [r5, #0]
      break;
    }
  }

  if (clickedItem > 0 && menuShowing)
   d4378:	f340 8135 	ble.w	d45e6 <loop+0x3f6>
   d437c:	7833      	ldrb	r3, [r6, #0]
   d437e:	2b00      	cmp	r3, #0
   d4380:	f43f af74 	beq.w	d426c <loop+0x7c>
  {
    clearScreen();
   d4384:	f001 f848 	bl	d5418 <_Z11clearScreenv>

    if (menu.CurrentMenu == mnuRoot)
   d4388:	4843      	ldr	r0, [pc, #268]	; (d4498 <loop+0x2a8>)
   d438a:	4949      	ldr	r1, [pc, #292]	; (d44b0 <loop+0x2c0>)
   d438c:	6803      	ldr	r3, [r0, #0]
   d438e:	428b      	cmp	r3, r1
   d4390:	d12d      	bne.n	d43ee <loop+0x1fe>
    {
      switch (clickedItem)
   d4392:	3c01      	subs	r4, #1
   d4394:	2c08      	cmp	r4, #8
   d4396:	f63f af69 	bhi.w	d426c <loop+0x7c>
   d439a:	e8df f004 	tbb	[pc, r4]
   d439e:	0905      	.short	0x0905
   d43a0:	1915110d 	.word	0x1915110d
   d43a4:	211d      	.short	0x211d
   d43a6:	25          	.byte	0x25
   d43a7:	00          	.byte	0x00
      {
      case 1:
        menu.InitMenu((const char **)mnuDisplay, cntDisplay, 1);
   d43a8:	2301      	movs	r3, #1
   d43aa:	2206      	movs	r2, #6
   d43ac:	4942      	ldr	r1, [pc, #264]	; (d44b8 <loop+0x2c8>)
   d43ae:	e152      	b.n	d4656 <loop+0x466>
        break;
      case 2:
        menu.InitMenu((const char **)mnuMesh, cntMesh, 1);
   d43b0:	2301      	movs	r3, #1
   d43b2:	2204      	movs	r2, #4
   d43b4:	4941      	ldr	r1, [pc, #260]	; (d44bc <loop+0x2cc>)
   d43b6:	e14e      	b.n	d4656 <loop+0x466>
        break;
      case 3:
        menu.InitMenu((const char **)mnuSensors, cntSensors, 1);
   d43b8:	2301      	movs	r3, #1
   d43ba:	2203      	movs	r2, #3
   d43bc:	4940      	ldr	r1, [pc, #256]	; (d44c0 <loop+0x2d0>)
   d43be:	e14a      	b.n	d4656 <loop+0x466>
        break;
      case 4:
        menu.InitMenu((const char **)mnuMusic, cntMusic, 1);
   d43c0:	2301      	movs	r3, #1
   d43c2:	2205      	movs	r2, #5
   d43c4:	493f      	ldr	r1, [pc, #252]	; (d44c4 <loop+0x2d4>)
   d43c6:	e146      	b.n	d4656 <loop+0x466>
        break;
      case 5:
        menu.InitMenu((const char **)mnuGames, cntGames, 1);
   d43c8:	2301      	movs	r3, #1
   d43ca:	2203      	movs	r2, #3
   d43cc:	493e      	ldr	r1, [pc, #248]	; (d44c8 <loop+0x2d8>)
   d43ce:	e142      	b.n	d4656 <loop+0x466>
        break;
      case 6:
        menu.InitMenu((const char **)mnuGraphics, cntGraphics, 1);
   d43d0:	2301      	movs	r3, #1
   d43d2:	2205      	movs	r2, #5
   d43d4:	493d      	ldr	r1, [pc, #244]	; (d44cc <loop+0x2dc>)
   d43d6:	e13e      	b.n	d4656 <loop+0x466>
        break;
      case 7:
        menu.InitMenu((const char **)mnuAnimations, cntAnimations, 1);
   d43d8:	2301      	movs	r3, #1
   d43da:	2208      	movs	r2, #8
   d43dc:	493c      	ldr	r1, [pc, #240]	; (d44d0 <loop+0x2e0>)
   d43de:	e13a      	b.n	d4656 <loop+0x466>
        break;
      case 8:
        menu.InitMenu((const char **)mnuBlinky, cntBlinky, 1);
   d43e0:	2301      	movs	r3, #1
   d43e2:	2206      	movs	r2, #6
   d43e4:	493b      	ldr	r1, [pc, #236]	; (d44d4 <loop+0x2e4>)
   d43e6:	e136      	b.n	d4656 <loop+0x466>
        break;
      case 9:
        displayCredits();
   d43e8:	f001 fa34 	bl	d5854 <_Z14displayCreditsv>
        break;
   d43ec:	e73e      	b.n	d426c <loop+0x7c>
      }
    }
    // Logic for sub menus
    else if (menu.CurrentMenu == mnuDisplay)
   d43ee:	4a32      	ldr	r2, [pc, #200]	; (d44b8 <loop+0x2c8>)
   d43f0:	4293      	cmp	r3, r2
   d43f2:	d11b      	bne.n	d442c <loop+0x23c>
    {
      switch (clickedItem)
   d43f4:	3c01      	subs	r4, #1
   d43f6:	2c05      	cmp	r4, #5
   d43f8:	f63f af38 	bhi.w	d426c <loop+0x7c>
   d43fc:	e8df f004 	tbb	[pc, r4]
   d4400:	360e0b03 	.word	0x360e0b03
   d4404:	1411      	.short	0x1411
      {
      case 1:
        showTitle();
   d4406:	f000 ff8d 	bl	d5324 <_Z9showTitlev>
        display.startscrollleft(0x00, 0x0F);
   d440a:	220f      	movs	r2, #15
   d440c:	2100      	movs	r1, #0
   d440e:	4832      	ldr	r0, [pc, #200]	; (d44d8 <loop+0x2e8>)
   d4410:	f003 fffd 	bl	d840e <_ZN16Adafruit_SSD130615startscrollleftEhh>
        break;
   d4414:	e72a      	b.n	d426c <loop+0x7c>
      case 2:
        displayWearerDetails();
   d4416:	f001 f817 	bl	d5448 <_Z20displayWearerDetailsv>
        break;
   d441a:	e727      	b.n	d426c <loop+0x7c>
      case 3:
        displayTwitterHandle();
   d441c:	f001 f98e 	bl	d573c <_Z20displayTwitterHandlev>
        break;
   d4420:	e724      	b.n	d426c <loop+0x7c>
      case 4:
        showTempAndHumidity();
        break;
      case 5:
        displayCarousel();
   d4422:	f000 ffad 	bl	d5380 <_Z15displayCarouselv>
        break;
   d4426:	e721      	b.n	d426c <loop+0x7c>
      case 6:
        menu.InitMenu(mnuRoot, cntRoot, 1);
   d4428:	2301      	movs	r3, #1
   d442a:	e112      	b.n	d4652 <loop+0x462>
        break;
      }
    }
    else if (menu.CurrentMenu == mnuMesh)
   d442c:	4a23      	ldr	r2, [pc, #140]	; (d44bc <loop+0x2cc>)
   d442e:	4293      	cmp	r3, r2
   d4430:	d112      	bne.n	d4458 <loop+0x268>
    {
      switch (clickedItem)
   d4432:	3c01      	subs	r4, #1
   d4434:	2c03      	cmp	r4, #3
   d4436:	f63f af19 	bhi.w	d426c <loop+0x7c>
   d443a:	e8df f004 	tbb	[pc, r4]
   d443e:	0502      	.short	0x0502
   d4440:	0b08      	.short	0x0b08
      {
      case 1:
        getMeshNetworkInfo();
   d4442:	f002 fbe7 	bl	d6c14 <_Z18getMeshNetworkInfov>
        break;
   d4446:	e711      	b.n	d426c <loop+0x7c>
      case 2:
        fireHelloPingEvent();
   d4448:	f001 fb00 	bl	d5a4c <_Z18fireHelloPingEventv>
        break;
   d444c:	e70e      	b.n	d426c <loop+0x7c>
      case 3:
        fireGatewayPingEvent();
   d444e:	f001 fb27 	bl	d5aa0 <_Z20fireGatewayPingEventv>
        break;
   d4452:	e70b      	b.n	d426c <loop+0x7c>
      case 4:
        menu.InitMenu(mnuRoot, cntRoot, 3);
   d4454:	2303      	movs	r3, #3
   d4456:	e0fc      	b.n	d4652 <loop+0x462>
        break;
      }
    }
    else if (menu.CurrentMenu == mnuSensors)
   d4458:	4a19      	ldr	r2, [pc, #100]	; (d44c0 <loop+0x2d0>)
   d445a:	4293      	cmp	r3, r2
   d445c:	d13e      	bne.n	d44dc <loop+0x2ec>
    {
      switch (clickedItem)
   d445e:	2c02      	cmp	r4, #2
   d4460:	d007      	beq.n	d4472 <loop+0x282>
   d4462:	2c03      	cmp	r4, #3
   d4464:	d008      	beq.n	d4478 <loop+0x288>
   d4466:	2c01      	cmp	r4, #1
   d4468:	f47f af00 	bne.w	d426c <loop+0x7c>
      {
      case 1:
        showTempAndHumidity();
   d446c:	f001 f848 	bl	d5500 <_Z19showTempAndHumidityv>
        break;
   d4470:	e6fc      	b.n	d426c <loop+0x7c>
      case 2:
        showBattery();
   d4472:	f001 f98d 	bl	d5790 <_Z11showBatteryv>
        break;
   d4476:	e6f9      	b.n	d426c <loop+0x7c>
      case 3:
        menu.InitMenu(mnuRoot, cntRoot, 3);
   d4478:	4623      	mov	r3, r4
   d447a:	e0d4      	b.n	d4626 <loop+0x436>
   d447c:	2003e130 	.word	0x2003e130
   d4480:	2003e2e0 	.word	0x2003e2e0
   d4484:	2003e2f8 	.word	0x2003e2f8
   d4488:	2003e2d0 	.word	0x2003e2d0
   d448c:	2003e2d8 	.word	0x2003e2d8
   d4490:	2003e2c8 	.word	0x2003e2c8
   d4494:	2003e1e4 	.word	0x2003e1e4
   d4498:	2003e230 	.word	0x2003e230
   d449c:	2003e269 	.word	0x2003e269
   d44a0:	2003e210 	.word	0x2003e210
   d44a4:	0001d4c0 	.word	0x0001d4c0
   d44a8:	2003e1e8 	.word	0x2003e1e8
   d44ac:	2003e271 	.word	0x2003e271
   d44b0:	2003d804 	.word	0x2003d804
   d44b4:	2003e22c 	.word	0x2003e22c
   d44b8:	000dc180 	.word	0x000dc180
   d44bc:	000dc058 	.word	0x000dc058
   d44c0:	000dc03c 	.word	0x000dc03c
   d44c4:	000dbfc8 	.word	0x000dbfc8
   d44c8:	000dc02c 	.word	0x000dc02c
   d44cc:	000dc1c4 	.word	0x000dc1c4
   d44d0:	000dc108 	.word	0x000dc108
   d44d4:	000dc15c 	.word	0x000dc15c
   d44d8:	2003e1ec 	.word	0x2003e1ec
        break;
      }
    }
    else if (menu.CurrentMenu == mnuMusic)
   d44dc:	4a60      	ldr	r2, [pc, #384]	; (d4660 <loop+0x470>)
   d44de:	4293      	cmp	r3, r2
   d44e0:	d118      	bne.n	d4514 <loop+0x324>
    {
      switch (clickedItem)
   d44e2:	3c01      	subs	r4, #1
   d44e4:	2c04      	cmp	r4, #4
   d44e6:	f63f aec1 	bhi.w	d426c <loop+0x7c>
   d44ea:	e8df f004 	tbb	[pc, r4]
   d44ee:	0703      	.short	0x0703
   d44f0:	0e0b      	.short	0x0e0b
   d44f2:	11          	.byte	0x11
   d44f3:	00          	.byte	0x00
      {
      case 1:
        playStartup(BUZZER_PIN);
   d44f4:	2008      	movs	r0, #8
   d44f6:	f002 fc03 	bl	d6d00 <_Z11playStartupi>
        break;
   d44fa:	e6b7      	b.n	d426c <loop+0x7c>
      case 2:
        playGameOver(BUZZER_PIN);
   d44fc:	2008      	movs	r0, #8
   d44fe:	f002 fc05 	bl	d6d0c <_Z12playGameOveri>
        break;
   d4502:	e6b3      	b.n	d426c <loop+0x7c>
      case 3:
        playRoll();
   d4504:	f002 fd1a 	bl	d6f3c <_Z8playRollv>
        break;
   d4508:	e6b0      	b.n	d426c <loop+0x7c>
      case 4:
        playBeegees();
   d450a:	f002 fc05 	bl	d6d18 <_Z11playBeegeesv>
        break;
   d450e:	e6ad      	b.n	d426c <loop+0x7c>
      case 5:
        menu.InitMenu(mnuRoot, cntRoot, 4);
   d4510:	2304      	movs	r3, #4
   d4512:	e09e      	b.n	d4652 <loop+0x462>
        break;
      }
    }
    else if (menu.CurrentMenu == mnuGames)
   d4514:	4a53      	ldr	r2, [pc, #332]	; (d4664 <loop+0x474>)
   d4516:	4293      	cmp	r3, r2
   d4518:	d10e      	bne.n	d4538 <loop+0x348>
    {
      switch (clickedItem)
   d451a:	2c02      	cmp	r4, #2
   d451c:	d007      	beq.n	d452e <loop+0x33e>
   d451e:	2c04      	cmp	r4, #4
   d4520:	d008      	beq.n	d4534 <loop+0x344>
   d4522:	2c01      	cmp	r4, #1
   d4524:	f47f aea2 	bne.w	d426c <loop+0x7c>
      {
      case 1:
        etchASketch();
   d4528:	f001 fbc0 	bl	d5cac <_Z11etchASketchv>
        break;
   d452c:	e69e      	b.n	d426c <loop+0x7c>
      case 2:
        snakeGame();
   d452e:	f001 fe15 	bl	d615c <_Z9snakeGamev>
        break;
   d4532:	e69b      	b.n	d426c <loop+0x7c>
      case 4:
        menu.InitMenu(mnuRoot, cntRoot, 5);
   d4534:	2305      	movs	r3, #5
   d4536:	e08c      	b.n	d4652 <loop+0x462>
        break;
      }
    }
    else if (menu.CurrentMenu == mnuGraphics)
   d4538:	4a4b      	ldr	r2, [pc, #300]	; (d4668 <loop+0x478>)
   d453a:	4293      	cmp	r3, r2
   d453c:	d114      	bne.n	d4568 <loop+0x378>
    {
      switch (clickedItem)
   d453e:	3c01      	subs	r4, #1
   d4540:	2c04      	cmp	r4, #4
   d4542:	f63f ae93 	bhi.w	d426c <loop+0x7c>
   d4546:	e8df f004 	tbb	[pc, r4]
   d454a:	0603      	.short	0x0603
   d454c:	0c09      	.short	0x0c09
   d454e:	78          	.byte	0x78
   d454f:	00          	.byte	0x00
      {
      case 1:
        showSpark();
   d4550:	f001 f850 	bl	d55f4 <_Z9showSparkv>
        break;
   d4554:	e68a      	b.n	d426c <loop+0x7c>
      case 2:
        showSpectra();
   d4556:	f000 febd 	bl	d52d4 <_Z11showSpectrav>
        break;
   d455a:	e687      	b.n	d426c <loop+0x7c>
      case 3:
        showMesh();
   d455c:	f001 f9b2 	bl	d58c4 <_Z8showMeshv>
        break;
   d4560:	e684      	b.n	d426c <loop+0x7c>
      case 4:
        showKonami();
   d4562:	f001 f987 	bl	d5874 <_Z10showKonamiv>
        break;
   d4566:	e681      	b.n	d426c <loop+0x7c>
      case 5:
        menu.InitMenu(mnuRoot, cntRoot, 6);
        break;
      }
    }
    else if (menu.CurrentMenu == mnuAnimations)
   d4568:	4a40      	ldr	r2, [pc, #256]	; (d466c <loop+0x47c>)
   d456a:	4293      	cmp	r3, r2
   d456c:	d11e      	bne.n	d45ac <loop+0x3bc>
    {
      switch (clickedItem)
   d456e:	3c01      	subs	r4, #1
   d4570:	2c07      	cmp	r4, #7
   d4572:	f63f ae7b 	bhi.w	d426c <loop+0x7c>
   d4576:	e8df f004 	tbb	[pc, r4]
   d457a:	0704      	.short	0x0704
   d457c:	13100d0a 	.word	0x13100d0a
   d4580:	6516      	.short	0x6516
      {
      case 1:
        snowflakes();
   d4582:	f000 fb8f 	bl	d4ca4 <_Z10snowflakesv>
        break;
   d4586:	e671      	b.n	d426c <loop+0x7c>
      case 2:
        drawCircles();
   d4588:	f000 fbc0 	bl	d4d0c <_Z11drawCirclesv>
        break;
   d458c:	e66e      	b.n	d426c <loop+0x7c>
      case 3:
        drawRectangles();
   d458e:	f000 fe0b 	bl	d51a8 <_Z14drawRectanglesv>
        break;
   d4592:	e66b      	b.n	d426c <loop+0x7c>
      case 4:
        drawTriangles();
   d4594:	f000 fc7e 	bl	d4e94 <_Z13drawTrianglesv>
        break;
   d4598:	e668      	b.n	d426c <loop+0x7c>
      case 5:
        drawRoundedRectangles();
   d459a:	f000 fd17 	bl	d4fcc <_Z21drawRoundedRectanglesv>
        break;
   d459e:	e665      	b.n	d426c <loop+0x7c>
      case 6:
        scrollText();
   d45a0:	f000 fd86 	bl	d50b0 <_Z10scrollTextv>
        break;
   d45a4:	e662      	b.n	d426c <loop+0x7c>
      case 7:
        cycleAnimations();
   d45a6:	f000 fe15 	bl	d51d4 <_Z15cycleAnimationsv>
        break;
   d45aa:	e65f      	b.n	d426c <loop+0x7c>
      case 8:
        menu.InitMenu(mnuRoot, cntRoot, 7);
        break;
      }
    }
    else if (menu.CurrentMenu == mnuBlinky)
   d45ac:	4a30      	ldr	r2, [pc, #192]	; (d4670 <loop+0x480>)
   d45ae:	4293      	cmp	r3, r2
   d45b0:	f47f ae5c 	bne.w	d426c <loop+0x7c>
    {
      switch (clickedItem)
   d45b4:	3c01      	subs	r4, #1
   d45b6:	2c05      	cmp	r4, #5
   d45b8:	f63f ae58 	bhi.w	d426c <loop+0x7c>
   d45bc:	e8df f004 	tbb	[pc, r4]
   d45c0:	0d0a0603 	.word	0x0d0a0603
   d45c4:	4810      	.short	0x4810
      {
      case 1:
        ledChase();
   d45c6:	f002 f985 	bl	d68d4 <_Z8ledChasev>
        break;
   d45ca:	e64f      	b.n	d426c <loop+0x7c>
      case 2:
        ledPulse(true);
   d45cc:	2001      	movs	r0, #1
   d45ce:	f002 fa25 	bl	d6a1c <_Z8ledPulseb>
        break;
   d45d2:	e64b      	b.n	d426c <loop+0x7c>
      case 3:
        ledPulseChase();
   d45d4:	f002 f9d0 	bl	d6978 <_Z13ledPulseChasev>
        break;
   d45d8:	e648      	b.n	d426c <loop+0x7c>
      case 4:
        ledRandom();
   d45da:	f002 fa3f 	bl	d6a5c <_Z9ledRandomv>
        break;
   d45de:	e645      	b.n	d426c <loop+0x7c>
      case 5:
        ledSeeSaw();
   d45e0:	f002 fa72 	bl	d6ac8 <_Z9ledSeeSawv>
        break;
   d45e4:	e642      	b.n	d426c <loop+0x7c>
        menu.InitMenu(mnuRoot, cntRoot, 8);
        break;
      }
    }
  }
  else if (clickedItem == -1 && menuShowing)
   d45e6:	1c44      	adds	r4, r0, #1
   d45e8:	f47f ae40 	bne.w	d426c <loop+0x7c>
   d45ec:	7833      	ldrb	r3, [r6, #0]
   d45ee:	2b00      	cmp	r3, #0
   d45f0:	f43f ae3c 	beq.w	d426c <loop+0x7c>
  {
    if (menu.CurrentMenu == mnuRoot)
   d45f4:	481f      	ldr	r0, [pc, #124]	; (d4674 <loop+0x484>)
   d45f6:	4920      	ldr	r1, [pc, #128]	; (d4678 <loop+0x488>)
   d45f8:	6803      	ldr	r3, [r0, #0]
   d45fa:	428b      	cmp	r3, r1
   d45fc:	f43f ae36 	beq.w	d426c <loop+0x7c>
    { /* In root, do nothing */
    }

    //2nd level menus
    else if (menu.CurrentMenu == mnuDisplay)
   d4600:	4a1e      	ldr	r2, [pc, #120]	; (d467c <loop+0x48c>)
   d4602:	4293      	cmp	r3, r2
   d4604:	d101      	bne.n	d460a <loop+0x41a>
    {
      menu.InitMenu((const char **)mnuRoot, cntRoot, 1);
   d4606:	2301      	movs	r3, #1
   d4608:	e00d      	b.n	d4626 <loop+0x436>
    }
    else if (menu.CurrentMenu == mnuMesh)
   d460a:	4a1d      	ldr	r2, [pc, #116]	; (d4680 <loop+0x490>)
   d460c:	4293      	cmp	r3, r2
   d460e:	d101      	bne.n	d4614 <loop+0x424>
    {
      menu.InitMenu((const char **)mnuRoot, cntRoot, 2);
   d4610:	2302      	movs	r3, #2
   d4612:	e008      	b.n	d4626 <loop+0x436>
    }
    else if (menu.CurrentMenu == mnuSensors)
   d4614:	4a1b      	ldr	r2, [pc, #108]	; (d4684 <loop+0x494>)
   d4616:	4293      	cmp	r3, r2
   d4618:	d101      	bne.n	d461e <loop+0x42e>
    {
      menu.InitMenu((const char **)mnuRoot, cntRoot, 3);
   d461a:	2303      	movs	r3, #3
   d461c:	e003      	b.n	d4626 <loop+0x436>
    }
    else if (menu.CurrentMenu == mnuMusic)
   d461e:	4a10      	ldr	r2, [pc, #64]	; (d4660 <loop+0x470>)
   d4620:	4293      	cmp	r3, r2
   d4622:	d102      	bne.n	d462a <loop+0x43a>
    {
      menu.InitMenu((const char **)mnuRoot, cntRoot, 4);
   d4624:	2304      	movs	r3, #4
   d4626:	2209      	movs	r2, #9
   d4628:	e016      	b.n	d4658 <loop+0x468>
    }
    else if (menu.CurrentMenu == mnuGames)
   d462a:	4a0e      	ldr	r2, [pc, #56]	; (d4664 <loop+0x474>)
   d462c:	4293      	cmp	r3, r2
   d462e:	d101      	bne.n	d4634 <loop+0x444>
    {
      menu.InitMenu((const char **)mnuRoot, cntRoot, 5);
   d4630:	2305      	movs	r3, #5
   d4632:	e7f8      	b.n	d4626 <loop+0x436>
    }
    else if (menu.CurrentMenu == mnuGraphics)
   d4634:	4a0c      	ldr	r2, [pc, #48]	; (d4668 <loop+0x478>)
   d4636:	4293      	cmp	r3, r2
   d4638:	d101      	bne.n	d463e <loop+0x44e>
    {
      menu.InitMenu((const char **)mnuRoot, cntRoot, 6);
   d463a:	2306      	movs	r3, #6
   d463c:	e009      	b.n	d4652 <loop+0x462>
    }
    else if (menu.CurrentMenu == mnuAnimations)
   d463e:	4a0b      	ldr	r2, [pc, #44]	; (d466c <loop+0x47c>)
   d4640:	4293      	cmp	r3, r2
   d4642:	d101      	bne.n	d4648 <loop+0x458>
    {
      menu.InitMenu((const char **)mnuRoot, cntRoot, 7);
   d4644:	2307      	movs	r3, #7
   d4646:	e004      	b.n	d4652 <loop+0x462>
    }
    else if (menu.CurrentMenu == mnuBlinky)
   d4648:	4a09      	ldr	r2, [pc, #36]	; (d4670 <loop+0x480>)
   d464a:	4293      	cmp	r3, r2
   d464c:	f47f ae0e 	bne.w	d426c <loop+0x7c>
    {
      menu.InitMenu((const char **)mnuRoot, cntRoot, 8);
   d4650:	2308      	movs	r3, #8
   d4652:	4909      	ldr	r1, [pc, #36]	; (d4678 <loop+0x488>)
   d4654:	2209      	movs	r2, #9
   d4656:	4807      	ldr	r0, [pc, #28]	; (d4674 <loop+0x484>)
   d4658:	f004 fae8 	bl	d8c2c <_ZN11qMenuSystem8InitMenuEPPKcii>
   d465c:	e606      	b.n	d426c <loop+0x7c>
   d465e:	bdf8      	pop	{r3, r4, r5, r6, r7, pc}
   d4660:	000dbfc8 	.word	0x000dbfc8
   d4664:	000dc02c 	.word	0x000dc02c
   d4668:	000dc1c4 	.word	0x000dc1c4
   d466c:	000dc108 	.word	0x000dc108
   d4670:	000dc15c 	.word	0x000dc15c
   d4674:	2003e230 	.word	0x2003e230
   d4678:	2003d804 	.word	0x2003d804
   d467c:	000dc180 	.word	0x000dc180
   d4680:	000dc058 	.word	0x000dc058
   d4684:	000dc03c 	.word	0x000dc03c

000d4688 <_Z17initWearerDetailsv>:
  Particle.function("checkTemp", checkTempHandler);
}

// Fetch wearer details from our WearerInfo class
void initWearerDetails()
{
   d4688:	b510      	push	{r4, lr}
   d468a:	4c25      	ldr	r4, [pc, #148]	; (d4720 <_Z17initWearerDetailsv+0x98>)
   d468c:	b09a      	sub	sp, #104	; 0x68
  wearerInfo = WearerInfo();
   d468e:	4668      	mov	r0, sp
   d4690:	f000 f9f0 	bl	d4a74 <_ZN10WearerInfoC1Ev>
   d4694:	4620      	mov	r0, r4
   d4696:	9b00      	ldr	r3, [sp, #0]
   d4698:	f840 3b04 	str.w	r3, [r0], #4
   d469c:	a901      	add	r1, sp, #4
   d469e:	f005 fdee 	bl	da27e <_ZN6StringaSEOS_>
   d46a2:	a905      	add	r1, sp, #20
   d46a4:	f104 0014 	add.w	r0, r4, #20
   d46a8:	f005 fde9 	bl	da27e <_ZN6StringaSEOS_>
   d46ac:	a909      	add	r1, sp, #36	; 0x24
   d46ae:	f104 0024 	add.w	r0, r4, #36	; 0x24
   d46b2:	f005 fde4 	bl	da27e <_ZN6StringaSEOS_>
   d46b6:	2300      	movs	r3, #0
   d46b8:	eb0d 0103 	add.w	r1, sp, r3
   d46bc:	18e2      	adds	r2, r4, r3
   d46be:	3301      	adds	r3, #1
   d46c0:	f891 1034 	ldrb.w	r1, [r1, #52]	; 0x34
   d46c4:	f882 1034 	strb.w	r1, [r2, #52]	; 0x34
   d46c8:	2b32      	cmp	r3, #50	; 0x32
   d46ca:	d1f5      	bne.n	d46b8 <_Z17initWearerDetailsv+0x30>
   d46cc:	4668      	mov	r0, sp
   d46ce:	f7ff fd0c 	bl	d40ea <_ZN10WearerInfoD1Ev>

  if (wearerInfo.isSet())
   d46d2:	4813      	ldr	r0, [pc, #76]	; (d4720 <_Z17initWearerDetailsv+0x98>)
   d46d4:	f000 f9ac 	bl	d4a30 <_ZN10WearerInfo5isSetEv>
   d46d8:	b300      	cbz	r0, d471c <_Z17initWearerDetailsv+0x94>
  {
    wearerFirstName = wearerInfo.getFirstName();
   d46da:	4911      	ldr	r1, [pc, #68]	; (d4720 <_Z17initWearerDetailsv+0x98>)
   d46dc:	4668      	mov	r0, sp
   d46de:	f000 fa13 	bl	d4b08 <_ZN10WearerInfo12getFirstNameEv>
   d46e2:	4669      	mov	r1, sp
   d46e4:	480f      	ldr	r0, [pc, #60]	; (d4724 <_Z17initWearerDetailsv+0x9c>)
   d46e6:	f005 fdca 	bl	da27e <_ZN6StringaSEOS_>
   d46ea:	4668      	mov	r0, sp
   d46ec:	f005 fd36 	bl	da15c <_ZN6StringD1Ev>
    wearerLastName = wearerInfo.getLastName();
   d46f0:	490b      	ldr	r1, [pc, #44]	; (d4720 <_Z17initWearerDetailsv+0x98>)
   d46f2:	4668      	mov	r0, sp
   d46f4:	f000 fa21 	bl	d4b3a <_ZN10WearerInfo11getLastNameEv>
   d46f8:	4669      	mov	r1, sp
   d46fa:	480b      	ldr	r0, [pc, #44]	; (d4728 <_Z17initWearerDetailsv+0xa0>)
   d46fc:	f005 fdbf 	bl	da27e <_ZN6StringaSEOS_>
   d4700:	4668      	mov	r0, sp
   d4702:	f005 fd2b 	bl	da15c <_ZN6StringD1Ev>
    wearerTwitter = wearerInfo.getTwitter();
   d4706:	4906      	ldr	r1, [pc, #24]	; (d4720 <_Z17initWearerDetailsv+0x98>)
   d4708:	4668      	mov	r0, sp
   d470a:	f000 fa2f 	bl	d4b6c <_ZN10WearerInfo10getTwitterEv>
   d470e:	4669      	mov	r1, sp
   d4710:	4806      	ldr	r0, [pc, #24]	; (d472c <_Z17initWearerDetailsv+0xa4>)
   d4712:	f005 fdb4 	bl	da27e <_ZN6StringaSEOS_>
   d4716:	4668      	mov	r0, sp
   d4718:	f005 fd20 	bl	da15c <_ZN6StringD1Ev>
  }
}
   d471c:	b01a      	add	sp, #104	; 0x68
   d471e:	bd10      	pop	{r4, pc}
   d4720:	2003e168 	.word	0x2003e168
   d4724:	2003e144 	.word	0x2003e144
   d4728:	2003e1d4 	.word	0x2003e1d4
   d472c:	2003e134 	.word	0x2003e134

000d4730 <_ZN10CloudClass8functionIA10_cIPFi6StringEEEEbRKT_DpT0_>:
        return _function(name, args...);
    }

    static bool _function(const char *funcKey, user_function_int_str_t* func)
    {
        return CLOUD_FN(register_function(call_raw_user_function, (void*)func, funcKey), false);
   d4730:	4602      	mov	r2, r0
   d4732:	4801      	ldr	r0, [pc, #4]	; (d4738 <_ZN10CloudClass8functionIA10_cIPFi6StringEEEEbRKT_DpT0_+0x8>)
   d4734:	f004 be2e 	b.w	d9394 <_ZN10CloudClass17register_functionEPFiPvPKcS0_ES0_S2_>
   d4738:	000d9369 	.word	0x000d9369

000d473c <_Z9cloudInitv>:
  }
}

// Init our Device Cloud variables and functions
void cloudInit()
{
   d473c:	b508      	push	{r3, lr}
        return _variable(varKey, &var, DOUBLE);
    }

    static inline bool _variable(const char* varKey, const String& var)
    {
        return _variable(varKey, &var, STRING);
   d473e:	4914      	ldr	r1, [pc, #80]	; (d4790 <_Z9cloudInitv+0x54>)
   d4740:	4814      	ldr	r0, [pc, #80]	; (d4794 <_Z9cloudInitv+0x58>)
   d4742:	f7ff fd45 	bl	d41d0 <_ZN10CloudClass9_variableIcEEbPKT_PK6StringRK23CloudVariableTypeString.isra.3>
   d4746:	4914      	ldr	r1, [pc, #80]	; (d4798 <_Z9cloudInitv+0x5c>)
   d4748:	4814      	ldr	r0, [pc, #80]	; (d479c <_Z9cloudInitv+0x60>)
   d474a:	f7ff fd41 	bl	d41d0 <_ZN10CloudClass9_variableIcEEbPKT_PK6StringRK23CloudVariableTypeString.isra.3>
   d474e:	4914      	ldr	r1, [pc, #80]	; (d47a0 <_Z9cloudInitv+0x64>)
   d4750:	4814      	ldr	r0, [pc, #80]	; (d47a4 <_Z9cloudInitv+0x68>)
   d4752:	f7ff fd3d 	bl	d41d0 <_ZN10CloudClass9_variableIcEEbPKT_PK6StringRK23CloudVariableTypeString.isra.3>
        return _variable(varKey, (const char*)userVar, userVarType);
    }

    template<typename T> static inline bool _variable(const char *varKey, const typename T::varref userVar, const T& userVarType)
    {
        return CLOUD_FN(spark_variable(varKey, (const void*)userVar, T::value(), NULL), false);
   d4756:	2300      	movs	r3, #0
   d4758:	2202      	movs	r2, #2
   d475a:	4913      	ldr	r1, [pc, #76]	; (d47a8 <_Z9cloudInitv+0x6c>)
   d475c:	4813      	ldr	r0, [pc, #76]	; (d47ac <_Z9cloudInitv+0x70>)
   d475e:	f004 fd2f 	bl	d91c0 <spark_variable>
   d4762:	2300      	movs	r3, #0
   d4764:	2202      	movs	r2, #2
   d4766:	4912      	ldr	r1, [pc, #72]	; (d47b0 <_Z9cloudInitv+0x74>)
   d4768:	4812      	ldr	r0, [pc, #72]	; (d47b4 <_Z9cloudInitv+0x78>)
   d476a:	f004 fd29 	bl	d91c0 <spark_variable>
  Particle.variable("wearerTwttr", wearerTwitter);

  Particle.variable("currentTemp", currentTemp);
  Particle.variable("currentHu", currentHumidity);

  Particle.function("updateFName", updateFirstNameHandler);
   d476e:	4912      	ldr	r1, [pc, #72]	; (d47b8 <_Z9cloudInitv+0x7c>)
   d4770:	4812      	ldr	r0, [pc, #72]	; (d47bc <_Z9cloudInitv+0x80>)
   d4772:	f7ff ffdd 	bl	d4730 <_ZN10CloudClass8functionIA10_cIPFi6StringEEEEbRKT_DpT0_>
  Particle.function("updateLName", updateLastNameHandler);
   d4776:	4912      	ldr	r1, [pc, #72]	; (d47c0 <_Z9cloudInitv+0x84>)
   d4778:	4812      	ldr	r0, [pc, #72]	; (d47c4 <_Z9cloudInitv+0x88>)
   d477a:	f7ff ffd9 	bl	d4730 <_ZN10CloudClass8functionIA10_cIPFi6StringEEEEbRKT_DpT0_>
  Particle.function("updateTwttr", updateTwitterHandler);
   d477e:	4912      	ldr	r1, [pc, #72]	; (d47c8 <_Z9cloudInitv+0x8c>)
   d4780:	4812      	ldr	r0, [pc, #72]	; (d47cc <_Z9cloudInitv+0x90>)
   d4782:	f7ff ffd5 	bl	d4730 <_ZN10CloudClass8functionIA10_cIPFi6StringEEEEbRKT_DpT0_>

  Particle.function("checkTemp", checkTempHandler);
   d4786:	4912      	ldr	r1, [pc, #72]	; (d47d0 <_Z9cloudInitv+0x94>)
   d4788:	4812      	ldr	r0, [pc, #72]	; (d47d4 <_Z9cloudInitv+0x98>)
   d478a:	f7ff ffd1 	bl	d4730 <_ZN10CloudClass8functionIA10_cIPFi6StringEEEEbRKT_DpT0_>
   d478e:	bd08      	pop	{r3, pc}
   d4790:	2003e144 	.word	0x2003e144
   d4794:	000dc216 	.word	0x000dc216
   d4798:	2003e1d4 	.word	0x2003e1d4
   d479c:	000dc222 	.word	0x000dc222
   d47a0:	2003e134 	.word	0x2003e134
   d47a4:	000dc22e 	.word	0x000dc22e
   d47a8:	2003e1d0 	.word	0x2003e1d0
   d47ac:	000dc23a 	.word	0x000dc23a
   d47b0:	2003e154 	.word	0x2003e154
   d47b4:	000dc246 	.word	0x000dc246
   d47b8:	000d4111 	.word	0x000d4111
   d47bc:	000dc250 	.word	0x000dc250
   d47c0:	000d4151 	.word	0x000d4151
   d47c4:	000dc25c 	.word	0x000dc25c
   d47c8:	000d4191 	.word	0x000d4191
   d47cc:	000dc268 	.word	0x000dc268
   d47d0:	000d4107 	.word	0x000d4107
   d47d4:	000dc274 	.word	0x000dc274

000d47d8 <setup>:
int checkTempHandler(String data);
void cloudInit();
void initWearerDetails();

void setup()
{
   d47d8:	b51f      	push	{r0, r1, r2, r3, r4, lr}
  Serial.begin();
   d47da:	f006 fa87 	bl	dacec <_Z16_fetch_usbserialv>
   d47de:	f44f 5116 	mov.w	r1, #9600	; 0x2580
   d47e2:	f006 fa77 	bl	dacd4 <_ZN9USBSerial5beginEl>

  // setup Mesh
  meshSetup();
   d47e6:	f002 f9d2 	bl	d6b8e <_Z9meshSetupv>

  resetDisplayBools();
   d47ea:	f000 fdff 	bl	d53ec <_Z17resetDisplayBoolsv>
    }
    inline static SleepResult sleep(const pin_t* pins, size_t pinsSize, const InterruptMode* edgeTriggerMode, size_t edgeTriggerModeSize, SleepOptionFlags flag, long seconds = 0) {
        return sleep(pins, pinsSize, edgeTriggerMode, edgeTriggerModeSize, seconds, flag);
    }

    static String deviceID(void) { return spark_deviceID(); }
   d47ee:	4668      	mov	r0, sp
   d47f0:	f004 fcfe 	bl	d91f0 <spark_deviceID>

  // Get the current deviceId
  deviceId = System.deviceID();
   d47f4:	4669      	mov	r1, sp
   d47f6:	481a      	ldr	r0, [pc, #104]	; (d4860 <setup+0x88>)
   d47f8:	f005 fd41 	bl	da27e <_ZN6StringaSEOS_>
   d47fc:	4668      	mov	r0, sp
   d47fe:	f005 fcad 	bl	da15c <_ZN6StringD1Ev>

  // Initialize Temp and Humidity sensor
  while (!envSensor.begin())
   d4802:	4818      	ldr	r0, [pc, #96]	; (d4864 <setup+0x8c>)
   d4804:	f004 f89b 	bl	d893e <_ZN15Adafruit_Si70215beginEv>
   d4808:	2800      	cmp	r0, #0
   d480a:	d0fa      	beq.n	d4802 <setup+0x2a>
    ;

  // Init OLED
  display.begin(SSD1306_SWITCHCAPVCC, 0x3C);
   d480c:	223c      	movs	r2, #60	; 0x3c
   d480e:	2102      	movs	r1, #2
   d4810:	4815      	ldr	r0, [pc, #84]	; (d4868 <setup+0x90>)
   d4812:	f003 fd01 	bl	d8218 <_ZN16Adafruit_SSD13065beginEhh>

  // Show Particle Splashscreen
  showSplashscreen();
   d4816:	f000 ff5d 	bl	d56d4 <_Z16showSplashscreenv>

  // Show the title screen
  showTitle();
   d481a:	f000 fd83 	bl	d5324 <_Z9showTitlev>

  // Set up cloud variables and functions
  cloudInit();
   d481e:	f7ff ff8d 	bl	d473c <_Z9cloudInitv>

  // Set up mesh subscribe handlers
  setupMeshEvents();
   d4822:	f002 f9c3 	bl	d6bac <_Z15setupMeshEventsv>

  // Set the Piezo buzzer as an output
  pinMode(BUZZER_PIN, OUTPUT);
   d4826:	2101      	movs	r1, #1
   d4828:	2008      	movs	r0, #8
   d482a:	f006 fb97 	bl	daf5c <pinMode>

  // Init the LED and Joystick Buttons
  initInputDebouncers();
   d482e:	f001 fce5 	bl	d61fc <_Z19initInputDebouncersv>

  // Set up Interrupts
  setupJoystickInterrupts();
   d4832:	f001 fee1 	bl	d65f8 <_Z23setupJoystickInterruptsv>

  // Get an initial temp and humidity reading
  getTempAndHumidity();
   d4836:	f002 fb97 	bl	d6f68 <_Z18getTempAndHumidityv>

  // Get an Initial Battery Reading
  getBatteryReading();
   d483a:	f002 fc27 	bl	d708c <_Z17getBatteryReadingv>

  //Init Tactile LED Buttons
  initLEDButtons();
   d483e:	f001 ffcc 	bl	d67da <_Z14initLEDButtonsv>

  // Play a startup sound on the Piezo
  playStartup(BUZZER_PIN);
   d4842:	2008      	movs	r0, #8
   d4844:	f002 fa5c 	bl	d6d00 <_Z11playStartupi>
    { SystemClass::sleep(wakeUpPin, edgeTriggerMode, seconds); }

    static bool connected(void) { return spark_cloud_flag_connected(); }
    static bool disconnected(void) { return !connected(); }
    static void connect(void) {
        spark_cloud_flag_connect();
   d4848:	f004 fcca 	bl	d91e0 <spark_cloud_flag_connect>

  // Connect to the Particle device cloud
  Particle.connect();

  // Fetch badge wearer details from EEPROM
  initWearerDetails();
   d484c:	f7ff ff1c 	bl	d4688 <_Z17initWearerDetailsv>

  // Scroll the title text on the screen
  display.startscrollleft(0x00, 0x0F);
   d4850:	220f      	movs	r2, #15
   d4852:	2100      	movs	r1, #0
   d4854:	4804      	ldr	r0, [pc, #16]	; (d4868 <setup+0x90>)
   d4856:	f003 fdda 	bl	d840e <_ZN16Adafruit_SSD130615startscrollleftEhh>
}
   d485a:	b005      	add	sp, #20
   d485c:	f85d fb04 	ldr.w	pc, [sp], #4
   d4860:	2003e21c 	.word	0x2003e21c
   d4864:	2003e158 	.word	0x2003e158
   d4868:	2003e1ec 	.word	0x2003e1ec

000d486c <_ZN16Adafruit_SSD1306D0Ev>:
   d486c:	b510      	push	{r4, lr}
   d486e:	4604      	mov	r4, r0
   d4870:	f7ff fc15 	bl	d409e <_ZdlPv>
   d4874:	4620      	mov	r0, r4
   d4876:	bd10      	pop	{r4, pc}

000d4878 <_GLOBAL__sub_I_SystemMode>:
int checkTempHandler(String data)
{
  getTempAndHumidity();

  return 1;
}
   d4878:	b5f8      	push	{r3, r4, r5, r6, r7, lr}
    WAKEUP_REASON_RTC = 2,
    WAKEUP_REASON_PIN_OR_RTC = 3
};

struct SleepResult {
    SleepResult() {}
   d487a:	4b2b      	ldr	r3, [pc, #172]	; (d4928 <_GLOBAL__sub_I_SystemMode+0xb0>)

SYSTEM_MODE(SEMI_AUTOMATIC);
SYSTEM_THREAD(ENABLED);

// Init Display
Adafruit_SSD1306 display(RESET);
   d487c:	4d2b      	ldr	r5, [pc, #172]	; (d492c <_GLOBAL__sub_I_SystemMode+0xb4>)
void resetDisplayBools();

// Menu Init
qMenuSystem menu = qMenuSystem(&display);

String deviceId;
   d487e:	4e2c      	ldr	r6, [pc, #176]	; (d4930 <_GLOBAL__sub_I_SystemMode+0xb8>)
   d4880:	4f2c      	ldr	r7, [pc, #176]	; (d4934 <_GLOBAL__sub_I_SystemMode+0xbc>)
   d4882:	f64f 729c 	movw	r2, #65436	; 0xff9c
   d4886:	805a      	strh	r2, [r3, #2]
   d4888:	2400      	movs	r4, #0
   d488a:	f64f 72ff 	movw	r2, #65535	; 0xffff
   d488e:	701c      	strb	r4, [r3, #0]
   d4890:	809a      	strh	r2, [r3, #4]

class SystemClass {
public:

    SystemClass(System_Mode_TypeDef mode = DEFAULT) {
        set_system_mode(mode);
   d4892:	2002      	movs	r0, #2
   d4894:	f004 fc44 	bl	d9120 <set_system_mode>

#include "Adafruit_Si7021.h"
#include "events/events.h"

SYSTEM_MODE(SEMI_AUTOMATIC);
SYSTEM_THREAD(ENABLED);
   d4898:	4621      	mov	r1, r4
   d489a:	2001      	movs	r0, #1
   d489c:	f004 fc50 	bl	d9140 <system_thread_set_state>

// Init Display
Adafruit_SSD1306 display(RESET);
   d48a0:	4621      	mov	r1, r4
   d48a2:	4c25      	ldr	r4, [pc, #148]	; (d4938 <_GLOBAL__sub_I_SystemMode+0xc0>)
   d48a4:	4628      	mov	r0, r5
   d48a6:	f003 fc5f 	bl	d8168 <_ZN16Adafruit_SSD1306C1Ea>
   d48aa:	4622      	mov	r2, r4
   d48ac:	4923      	ldr	r1, [pc, #140]	; (d493c <_GLOBAL__sub_I_SystemMode+0xc4>)
   d48ae:	4628      	mov	r0, r5
   d48b0:	f006 fc48 	bl	db144 <__aeabi_atexit>
void resetDisplayBools();

// Menu Init
qMenuSystem menu = qMenuSystem(&display);
   d48b4:	4629      	mov	r1, r5
   d48b6:	4822      	ldr	r0, [pc, #136]	; (d4940 <_GLOBAL__sub_I_SystemMode+0xc8>)

String deviceId;
   d48b8:	4d22      	ldr	r5, [pc, #136]	; (d4944 <_GLOBAL__sub_I_SystemMode+0xcc>)
// Init Display
Adafruit_SSD1306 display(RESET);
void resetDisplayBools();

// Menu Init
qMenuSystem menu = qMenuSystem(&display);
   d48ba:	f004 f95f 	bl	d8b7c <_ZN11qMenuSystemC1EP16Adafruit_SSD1306>

String deviceId;
   d48be:	4631      	mov	r1, r6
   d48c0:	4638      	mov	r0, r7
   d48c2:	f005 fc92 	bl	da1ea <_ZN6StringC1EPK19__FlashStringHelper>
   d48c6:	4638      	mov	r0, r7
WearerInfo wearerInfo;
   d48c8:	4f1f      	ldr	r7, [pc, #124]	; (d4948 <_GLOBAL__sub_I_SystemMode+0xd0>)
void resetDisplayBools();

// Menu Init
qMenuSystem menu = qMenuSystem(&display);

String deviceId;
   d48ca:	4622      	mov	r2, r4
   d48cc:	4629      	mov	r1, r5
   d48ce:	f006 fc39 	bl	db144 <__aeabi_atexit>
WearerInfo wearerInfo;
   d48d2:	4638      	mov	r0, r7
   d48d4:	f000 f8ce 	bl	d4a74 <_ZN10WearerInfoC1Ev>
   d48d8:	4622      	mov	r2, r4
   d48da:	491c      	ldr	r1, [pc, #112]	; (d494c <_GLOBAL__sub_I_SystemMode+0xd4>)
   d48dc:	4638      	mov	r0, r7
unsigned long startTime = 0;
unsigned long previousEnvReading = 0;
unsigned long previousBatteryReading = 0;

// Wearer details
String wearerFirstName;
   d48de:	4f1c      	ldr	r7, [pc, #112]	; (d4950 <_GLOBAL__sub_I_SystemMode+0xd8>)

// Menu Init
qMenuSystem menu = qMenuSystem(&display);

String deviceId;
WearerInfo wearerInfo;
   d48e0:	f006 fc30 	bl	db144 <__aeabi_atexit>

// Initialize Si7021 sensor
Adafruit_Si7021 envSensor = Adafruit_Si7021();
   d48e4:	481b      	ldr	r0, [pc, #108]	; (d4954 <_GLOBAL__sub_I_SystemMode+0xdc>)
   d48e6:	f003 fe97 	bl	d8618 <_ZN15Adafruit_Si7021C1Ev>
unsigned long startTime = 0;
unsigned long previousEnvReading = 0;
unsigned long previousBatteryReading = 0;

// Wearer details
String wearerFirstName;
   d48ea:	4631      	mov	r1, r6
   d48ec:	4638      	mov	r0, r7
   d48ee:	f005 fc7c 	bl	da1ea <_ZN6StringC1EPK19__FlashStringHelper>
   d48f2:	4638      	mov	r0, r7
String wearerLastName;
   d48f4:	4f18      	ldr	r7, [pc, #96]	; (d4958 <_GLOBAL__sub_I_SystemMode+0xe0>)
unsigned long startTime = 0;
unsigned long previousEnvReading = 0;
unsigned long previousBatteryReading = 0;

// Wearer details
String wearerFirstName;
   d48f6:	4622      	mov	r2, r4
   d48f8:	4629      	mov	r1, r5
   d48fa:	f006 fc23 	bl	db144 <__aeabi_atexit>
String wearerLastName;
   d48fe:	4631      	mov	r1, r6
   d4900:	4638      	mov	r0, r7
   d4902:	f005 fc72 	bl	da1ea <_ZN6StringC1EPK19__FlashStringHelper>
   d4906:	4638      	mov	r0, r7
String wearerTwitter;
   d4908:	4f14      	ldr	r7, [pc, #80]	; (d495c <_GLOBAL__sub_I_SystemMode+0xe4>)
unsigned long previousEnvReading = 0;
unsigned long previousBatteryReading = 0;

// Wearer details
String wearerFirstName;
String wearerLastName;
   d490a:	4622      	mov	r2, r4
   d490c:	4629      	mov	r1, r5
   d490e:	f006 fc19 	bl	db144 <__aeabi_atexit>
String wearerTwitter;
   d4912:	4631      	mov	r1, r6
   d4914:	4638      	mov	r0, r7
   d4916:	f005 fc68 	bl	da1ea <_ZN6StringC1EPK19__FlashStringHelper>
   d491a:	4622      	mov	r2, r4
   d491c:	4629      	mov	r1, r5
   d491e:	4638      	mov	r0, r7
int checkTempHandler(String data)
{
  getTempAndHumidity();

  return 1;
}
   d4920:	e8bd 40f8 	ldmia.w	sp!, {r3, r4, r5, r6, r7, lr}
unsigned long previousBatteryReading = 0;

// Wearer details
String wearerFirstName;
String wearerLastName;
String wearerTwitter;
   d4924:	f006 bc0e 	b.w	db144 <__aeabi_atexit>
   d4928:	2003e214 	.word	0x2003e214
   d492c:	2003e1ec 	.word	0x2003e1ec
   d4930:	000de0c0 	.word	0x000de0c0
   d4934:	2003e21c 	.word	0x2003e21c
   d4938:	2003e12c 	.word	0x2003e12c
   d493c:	000d40e9 	.word	0x000d40e9
   d4940:	2003e230 	.word	0x2003e230
   d4944:	000da15d 	.word	0x000da15d
   d4948:	2003e168 	.word	0x2003e168
   d494c:	000d40eb 	.word	0x000d40eb
   d4950:	2003e144 	.word	0x2003e144
   d4954:	2003e158 	.word	0x2003e158
   d4958:	2003e1d4 	.word	0x2003e1d4
   d495c:	2003e134 	.word	0x2003e134

000d4960 <_ZN10WearerInfo12setFirstNameE6String>:
    _twitter = getFromEEPROM(EEPROM_TWITTER_LOCATION);
  }
}

void WearerInfo::setFirstName(String name)
{
   d4960:	b530      	push	{r4, r5, lr}
   d4962:	460d      	mov	r5, r1
   d4964:	b08f      	sub	sp, #60	; 0x3c
  char stringBuff[STRING_BUFFER_SIZE];
  stringBuff[(sizeof(stringBuff) - 1)] = 0;
   d4966:	2300      	movs	r3, #0
    _twitter = getFromEEPROM(EEPROM_TWITTER_LOCATION);
  }
}

void WearerInfo::setFirstName(String name)
{
   d4968:	4604      	mov	r4, r0
  char stringBuff[STRING_BUFFER_SIZE];
  stringBuff[(sizeof(stringBuff) - 1)] = 0;
  name.getBytes((unsigned char *)stringBuff, sizeof(stringBuff));
   d496a:	2232      	movs	r2, #50	; 0x32
   d496c:	a901      	add	r1, sp, #4
   d496e:	4628      	mov	r0, r5
}

void WearerInfo::setFirstName(String name)
{
  char stringBuff[STRING_BUFFER_SIZE];
  stringBuff[(sizeof(stringBuff) - 1)] = 0;
   d4970:	f88d 3035 	strb.w	r3, [sp, #53]	; 0x35
  name.getBytes((unsigned char *)stringBuff, sizeof(stringBuff));
   d4974:	f005 fd13 	bl	da39e <_ZNK6String8getBytesEPhjj>

  _firstName = name;
   d4978:	4629      	mov	r1, r5
   d497a:	1d20      	adds	r0, r4, #4
  _isSet = 1;
   d497c:	2501      	movs	r5, #1
{
  char stringBuff[STRING_BUFFER_SIZE];
  stringBuff[(sizeof(stringBuff) - 1)] = 0;
  name.getBytes((unsigned char *)stringBuff, sizeof(stringBuff));

  _firstName = name;
   d497e:	f005 fc64 	bl	da24a <_ZN6StringaSERKS_>
  _isSet = 1;
   d4982:	6025      	str	r5, [r4, #0]

  EEPROM.put(EEPROM_FIRSTNAME_LOCATION, stringBuff);
   d4984:	f006 fb88 	bl	db098 <_Z21__fetch_global_EEPROMv>
        return t;
    }

    template <typename T> const T &put( int idx, const T &t )
    {
        HAL_EEPROM_Put(idx, &t, sizeof(T));
   d4988:	2232      	movs	r2, #50	; 0x32
   d498a:	a901      	add	r1, sp, #4
   d498c:	4610      	mov	r0, r2
   d498e:	f004 f9b7 	bl	d8d00 <HAL_EEPROM_Put>
  EEPROM.put(EEPROM_SET_LOCATION, _isSet);
   d4992:	f006 fb81 	bl	db098 <_Z21__fetch_global_EEPROMv>
   d4996:	2204      	movs	r2, #4
   d4998:	4621      	mov	r1, r4
   d499a:	4628      	mov	r0, r5
   d499c:	f004 f9b0 	bl	d8d00 <HAL_EEPROM_Put>
}
   d49a0:	b00f      	add	sp, #60	; 0x3c
   d49a2:	bd30      	pop	{r4, r5, pc}

000d49a4 <_ZN10WearerInfo11setLastNameE6String>:

void WearerInfo::setLastName(String name)
{
   d49a4:	b530      	push	{r4, r5, lr}
   d49a6:	460d      	mov	r5, r1
   d49a8:	b08f      	sub	sp, #60	; 0x3c
  char stringBuff[STRING_BUFFER_SIZE];
  stringBuff[(sizeof(stringBuff) - 1)] = 0;
   d49aa:	2300      	movs	r3, #0
  EEPROM.put(EEPROM_FIRSTNAME_LOCATION, stringBuff);
  EEPROM.put(EEPROM_SET_LOCATION, _isSet);
}

void WearerInfo::setLastName(String name)
{
   d49ac:	4604      	mov	r4, r0
  char stringBuff[STRING_BUFFER_SIZE];
  stringBuff[(sizeof(stringBuff) - 1)] = 0;
  name.getBytes((unsigned char *)stringBuff, sizeof(stringBuff));
   d49ae:	2232      	movs	r2, #50	; 0x32
   d49b0:	a901      	add	r1, sp, #4
   d49b2:	4628      	mov	r0, r5
}

void WearerInfo::setLastName(String name)
{
  char stringBuff[STRING_BUFFER_SIZE];
  stringBuff[(sizeof(stringBuff) - 1)] = 0;
   d49b4:	f88d 3035 	strb.w	r3, [sp, #53]	; 0x35
  name.getBytes((unsigned char *)stringBuff, sizeof(stringBuff));
   d49b8:	f005 fcf1 	bl	da39e <_ZNK6String8getBytesEPhjj>

  _lastName = name;
   d49bc:	4629      	mov	r1, r5
   d49be:	f104 0014 	add.w	r0, r4, #20
  _isSet = 1;
   d49c2:	2501      	movs	r5, #1
{
  char stringBuff[STRING_BUFFER_SIZE];
  stringBuff[(sizeof(stringBuff) - 1)] = 0;
  name.getBytes((unsigned char *)stringBuff, sizeof(stringBuff));

  _lastName = name;
   d49c4:	f005 fc41 	bl	da24a <_ZN6StringaSERKS_>
  _isSet = 1;
   d49c8:	6025      	str	r5, [r4, #0]

  EEPROM.put(EEPROM_LASTNAME_LOCATION, stringBuff);
   d49ca:	f006 fb65 	bl	db098 <_Z21__fetch_global_EEPROMv>
   d49ce:	a901      	add	r1, sp, #4
   d49d0:	2232      	movs	r2, #50	; 0x32
   d49d2:	2078      	movs	r0, #120	; 0x78
   d49d4:	f004 f994 	bl	d8d00 <HAL_EEPROM_Put>
  EEPROM.put(EEPROM_SET_LOCATION, _isSet);
   d49d8:	f006 fb5e 	bl	db098 <_Z21__fetch_global_EEPROMv>
   d49dc:	2204      	movs	r2, #4
   d49de:	4621      	mov	r1, r4
   d49e0:	4628      	mov	r0, r5
   d49e2:	f004 f98d 	bl	d8d00 <HAL_EEPROM_Put>
}
   d49e6:	b00f      	add	sp, #60	; 0x3c
   d49e8:	bd30      	pop	{r4, r5, pc}

000d49ea <_ZN10WearerInfo10setTwitterE6String>:

void WearerInfo::setTwitter(String name)
{
   d49ea:	b530      	push	{r4, r5, lr}
   d49ec:	460d      	mov	r5, r1
   d49ee:	b08f      	sub	sp, #60	; 0x3c
  char stringBuff[STRING_BUFFER_SIZE];
  stringBuff[(sizeof(stringBuff) - 1)] = 0;
   d49f0:	2300      	movs	r3, #0
  EEPROM.put(EEPROM_LASTNAME_LOCATION, stringBuff);
  EEPROM.put(EEPROM_SET_LOCATION, _isSet);
}

void WearerInfo::setTwitter(String name)
{
   d49f2:	4604      	mov	r4, r0
  char stringBuff[STRING_BUFFER_SIZE];
  stringBuff[(sizeof(stringBuff) - 1)] = 0;
  name.getBytes((unsigned char *)stringBuff, sizeof(stringBuff));
   d49f4:	2232      	movs	r2, #50	; 0x32
   d49f6:	a901      	add	r1, sp, #4
   d49f8:	4628      	mov	r0, r5
}

void WearerInfo::setTwitter(String name)
{
  char stringBuff[STRING_BUFFER_SIZE];
  stringBuff[(sizeof(stringBuff) - 1)] = 0;
   d49fa:	f88d 3035 	strb.w	r3, [sp, #53]	; 0x35
  name.getBytes((unsigned char *)stringBuff, sizeof(stringBuff));
   d49fe:	f005 fcce 	bl	da39e <_ZNK6String8getBytesEPhjj>

  _twitter = name;
   d4a02:	4629      	mov	r1, r5
   d4a04:	f104 0024 	add.w	r0, r4, #36	; 0x24
  _isSet = 1;
   d4a08:	2501      	movs	r5, #1
{
  char stringBuff[STRING_BUFFER_SIZE];
  stringBuff[(sizeof(stringBuff) - 1)] = 0;
  name.getBytes((unsigned char *)stringBuff, sizeof(stringBuff));

  _twitter = name;
   d4a0a:	f005 fc1e 	bl	da24a <_ZN6StringaSERKS_>
  _isSet = 1;
   d4a0e:	6025      	str	r5, [r4, #0]

  EEPROM.put(EEPROM_TWITTER_LOCATION, stringBuff);
   d4a10:	f006 fb42 	bl	db098 <_Z21__fetch_global_EEPROMv>
   d4a14:	a901      	add	r1, sp, #4
   d4a16:	2232      	movs	r2, #50	; 0x32
   d4a18:	20be      	movs	r0, #190	; 0xbe
   d4a1a:	f004 f971 	bl	d8d00 <HAL_EEPROM_Put>
  EEPROM.put(EEPROM_SET_LOCATION, _isSet);
   d4a1e:	f006 fb3b 	bl	db098 <_Z21__fetch_global_EEPROMv>
   d4a22:	2204      	movs	r2, #4
   d4a24:	4621      	mov	r1, r4
   d4a26:	4628      	mov	r0, r5
   d4a28:	f004 f96a 	bl	d8d00 <HAL_EEPROM_Put>
}
   d4a2c:	b00f      	add	sp, #60	; 0x3c
   d4a2e:	bd30      	pop	{r4, r5, pc}

000d4a30 <_ZN10WearerInfo5isSetEv>:

boolean WearerInfo::isSet()
{
  return _isSet;
   d4a30:	6800      	ldr	r0, [r0, #0]
}
   d4a32:	3000      	adds	r0, #0
   d4a34:	bf18      	it	ne
   d4a36:	2001      	movne	r0, #1
   d4a38:	4770      	bx	lr
	...

000d4a3c <_ZN10WearerInfo13getFromEEPROMEi>:

  return _twitter;
}

String WearerInfo::getFromEEPROM(int address)
{
   d4a3c:	b530      	push	{r4, r5, lr}
   d4a3e:	4615      	mov	r5, r2
   d4a40:	b08f      	sub	sp, #60	; 0x3c
   d4a42:	4604      	mov	r4, r0
  char value[STRING_BUFFER_SIZE];

  EEPROM.get(address, value);
   d4a44:	f006 fb28 	bl	db098 <_Z21__fetch_global_EEPROMv>
    uint16_t length()                    { return HAL_EEPROM_Length(); }

    //Functionality to 'get' and 'put' objects to and from EEPROM.
    template <typename T> T &get( int idx, T &t )
    {
        HAL_EEPROM_Get(idx, &t, sizeof(T));
   d4a48:	a901      	add	r1, sp, #4
   d4a4a:	2232      	movs	r2, #50	; 0x32
   d4a4c:	4628      	mov	r0, r5
   d4a4e:	f004 f94f 	bl	d8cf0 <HAL_EEPROM_Get>
  value[sizeof(value) - 1] = 0;
   d4a52:	2300      	movs	r3, #0
   d4a54:	f88d 3035 	strb.w	r3, [sp, #53]	; 0x35

  if (value[0] != 255)
   d4a58:	f89d 3004 	ldrb.w	r3, [sp, #4]
   d4a5c:	2bff      	cmp	r3, #255	; 0xff
  {
    return String(value);
   d4a5e:	bf14      	ite	ne
   d4a60:	a901      	addne	r1, sp, #4
  }
  else
  {
    return String();
   d4a62:	4903      	ldreq	r1, [pc, #12]	; (d4a70 <_ZN10WearerInfo13getFromEEPROMEi+0x34>)
   d4a64:	4620      	mov	r0, r4
   d4a66:	f005 fbc0 	bl	da1ea <_ZN6StringC1EPK19__FlashStringHelper>
  }
}
   d4a6a:	4620      	mov	r0, r4
   d4a6c:	b00f      	add	sp, #60	; 0x3c
   d4a6e:	bd30      	pop	{r4, r5, pc}
   d4a70:	000de0c0 	.word	0x000de0c0

000d4a74 <_ZN10WearerInfoC1Ev>:
#include "WearerInfo.h"

WearerInfo::WearerInfo()
   d4a74:	b5f0      	push	{r4, r5, r6, r7, lr}
   d4a76:	4605      	mov	r5, r0
   d4a78:	2300      	movs	r3, #0
   d4a7a:	f845 3b04 	str.w	r3, [r5], #4
   d4a7e:	4604      	mov	r4, r0
   d4a80:	b085      	sub	sp, #20
   d4a82:	4920      	ldr	r1, [pc, #128]	; (d4b04 <_ZN10WearerInfoC1Ev+0x90>)
   d4a84:	4628      	mov	r0, r5
   d4a86:	f104 0714 	add.w	r7, r4, #20
   d4a8a:	f005 fbae 	bl	da1ea <_ZN6StringC1EPK19__FlashStringHelper>
   d4a8e:	f104 0624 	add.w	r6, r4, #36	; 0x24
   d4a92:	491c      	ldr	r1, [pc, #112]	; (d4b04 <_ZN10WearerInfoC1Ev+0x90>)
   d4a94:	4638      	mov	r0, r7
   d4a96:	f005 fba8 	bl	da1ea <_ZN6StringC1EPK19__FlashStringHelper>
   d4a9a:	491a      	ldr	r1, [pc, #104]	; (d4b04 <_ZN10WearerInfoC1Ev+0x90>)
   d4a9c:	4630      	mov	r0, r6
   d4a9e:	f005 fba4 	bl	da1ea <_ZN6StringC1EPK19__FlashStringHelper>
{
  EEPROM.get(EEPROM_SET_LOCATION, _isSet);
   d4aa2:	f006 faf9 	bl	db098 <_Z21__fetch_global_EEPROMv>
   d4aa6:	2204      	movs	r2, #4
   d4aa8:	4621      	mov	r1, r4
   d4aaa:	2001      	movs	r0, #1
   d4aac:	f004 f920 	bl	d8cf0 <HAL_EEPROM_Get>

  if (_isSet == 1)
   d4ab0:	6823      	ldr	r3, [r4, #0]
   d4ab2:	2b01      	cmp	r3, #1
   d4ab4:	d123      	bne.n	d4afe <_ZN10WearerInfoC1Ev+0x8a>
  {
    _firstName = getFromEEPROM(EEPROM_FIRSTNAME_LOCATION);
   d4ab6:	2232      	movs	r2, #50	; 0x32
   d4ab8:	4621      	mov	r1, r4
   d4aba:	4668      	mov	r0, sp
   d4abc:	f7ff ffbe 	bl	d4a3c <_ZN10WearerInfo13getFromEEPROMEi>
   d4ac0:	4669      	mov	r1, sp
   d4ac2:	4628      	mov	r0, r5
   d4ac4:	f005 fbdb 	bl	da27e <_ZN6StringaSEOS_>
   d4ac8:	4668      	mov	r0, sp
   d4aca:	f005 fb47 	bl	da15c <_ZN6StringD1Ev>
    _lastName = getFromEEPROM(EEPROM_LASTNAME_LOCATION);
   d4ace:	2278      	movs	r2, #120	; 0x78
   d4ad0:	4621      	mov	r1, r4
   d4ad2:	4668      	mov	r0, sp
   d4ad4:	f7ff ffb2 	bl	d4a3c <_ZN10WearerInfo13getFromEEPROMEi>
   d4ad8:	4669      	mov	r1, sp
   d4ada:	4638      	mov	r0, r7
   d4adc:	f005 fbcf 	bl	da27e <_ZN6StringaSEOS_>
   d4ae0:	4668      	mov	r0, sp
   d4ae2:	f005 fb3b 	bl	da15c <_ZN6StringD1Ev>
    _twitter = getFromEEPROM(EEPROM_TWITTER_LOCATION);
   d4ae6:	22be      	movs	r2, #190	; 0xbe
   d4ae8:	4621      	mov	r1, r4
   d4aea:	4668      	mov	r0, sp
   d4aec:	f7ff ffa6 	bl	d4a3c <_ZN10WearerInfo13getFromEEPROMEi>
   d4af0:	4669      	mov	r1, sp
   d4af2:	4630      	mov	r0, r6
   d4af4:	f005 fbc3 	bl	da27e <_ZN6StringaSEOS_>
   d4af8:	4668      	mov	r0, sp
   d4afa:	f005 fb2f 	bl	da15c <_ZN6StringD1Ev>
  }
}
   d4afe:	4620      	mov	r0, r4
   d4b00:	b005      	add	sp, #20
   d4b02:	bdf0      	pop	{r4, r5, r6, r7, pc}
   d4b04:	000de0c0 	.word	0x000de0c0

000d4b08 <_ZN10WearerInfo12getFirstNameEv>:
{
  return _isSet;
}

String WearerInfo::getFirstName()
{
   d4b08:	b530      	push	{r4, r5, lr}
  if (_firstName.length() == 0)
   d4b0a:	68cb      	ldr	r3, [r1, #12]
{
  return _isSet;
}

String WearerInfo::getFirstName()
{
   d4b0c:	460c      	mov	r4, r1
   d4b0e:	b085      	sub	sp, #20
   d4b10:	4605      	mov	r5, r0
   d4b12:	3404      	adds	r4, #4
  if (_firstName.length() == 0)
   d4b14:	b953      	cbnz	r3, d4b2c <_ZN10WearerInfo12getFirstNameEv+0x24>
  {
    _firstName = getFromEEPROM(EEPROM_FIRSTNAME_LOCATION);
   d4b16:	2232      	movs	r2, #50	; 0x32
   d4b18:	4668      	mov	r0, sp
   d4b1a:	f7ff ff8f 	bl	d4a3c <_ZN10WearerInfo13getFromEEPROMEi>
   d4b1e:	4669      	mov	r1, sp
   d4b20:	4620      	mov	r0, r4
   d4b22:	f005 fbac 	bl	da27e <_ZN6StringaSEOS_>
   d4b26:	4668      	mov	r0, sp
   d4b28:	f005 fb18 	bl	da15c <_ZN6StringD1Ev>
  }

  return _firstName;
   d4b2c:	4621      	mov	r1, r4
   d4b2e:	4628      	mov	r0, r5
   d4b30:	f005 fb9a 	bl	da268 <_ZN6StringC1ERKS_>
}
   d4b34:	4628      	mov	r0, r5
   d4b36:	b005      	add	sp, #20
   d4b38:	bd30      	pop	{r4, r5, pc}

000d4b3a <_ZN10WearerInfo11getLastNameEv>:

String WearerInfo::getLastName()
{
   d4b3a:	b530      	push	{r4, r5, lr}
  if (_lastName.length() == 0)
   d4b3c:	69cb      	ldr	r3, [r1, #28]

  return _firstName;
}

String WearerInfo::getLastName()
{
   d4b3e:	460c      	mov	r4, r1
   d4b40:	b085      	sub	sp, #20
   d4b42:	4605      	mov	r5, r0
   d4b44:	3414      	adds	r4, #20
  if (_lastName.length() == 0)
   d4b46:	b953      	cbnz	r3, d4b5e <_ZN10WearerInfo11getLastNameEv+0x24>
  {
    _lastName = getFromEEPROM(EEPROM_LASTNAME_LOCATION);
   d4b48:	2278      	movs	r2, #120	; 0x78
   d4b4a:	4668      	mov	r0, sp
   d4b4c:	f7ff ff76 	bl	d4a3c <_ZN10WearerInfo13getFromEEPROMEi>
   d4b50:	4669      	mov	r1, sp
   d4b52:	4620      	mov	r0, r4
   d4b54:	f005 fb93 	bl	da27e <_ZN6StringaSEOS_>
   d4b58:	4668      	mov	r0, sp
   d4b5a:	f005 faff 	bl	da15c <_ZN6StringD1Ev>
  }

  return _lastName;
   d4b5e:	4621      	mov	r1, r4
   d4b60:	4628      	mov	r0, r5
   d4b62:	f005 fb81 	bl	da268 <_ZN6StringC1ERKS_>
}
   d4b66:	4628      	mov	r0, r5
   d4b68:	b005      	add	sp, #20
   d4b6a:	bd30      	pop	{r4, r5, pc}

000d4b6c <_ZN10WearerInfo10getTwitterEv>:

String WearerInfo::getTwitter()
{
   d4b6c:	b530      	push	{r4, r5, lr}
  if (_twitter.length() == 0)
   d4b6e:	6acb      	ldr	r3, [r1, #44]	; 0x2c

  return _lastName;
}

String WearerInfo::getTwitter()
{
   d4b70:	460c      	mov	r4, r1
   d4b72:	b085      	sub	sp, #20
   d4b74:	4605      	mov	r5, r0
   d4b76:	3424      	adds	r4, #36	; 0x24
  if (_twitter.length() == 0)
   d4b78:	b953      	cbnz	r3, d4b90 <_ZN10WearerInfo10getTwitterEv+0x24>
  {
    _twitter = getFromEEPROM(EEPROM_TWITTER_LOCATION);
   d4b7a:	22be      	movs	r2, #190	; 0xbe
   d4b7c:	4668      	mov	r0, sp
   d4b7e:	f7ff ff5d 	bl	d4a3c <_ZN10WearerInfo13getFromEEPROMEi>
   d4b82:	4669      	mov	r1, sp
   d4b84:	4620      	mov	r0, r4
   d4b86:	f005 fb7a 	bl	da27e <_ZN6StringaSEOS_>
   d4b8a:	4668      	mov	r0, sp
   d4b8c:	f005 fae6 	bl	da15c <_ZN6StringD1Ev>
  }

  return _twitter;
   d4b90:	4621      	mov	r1, r4
   d4b92:	4628      	mov	r0, r5
   d4b94:	f005 fb68 	bl	da268 <_ZN6StringC1ERKS_>
}
   d4b98:	4628      	mov	r0, r5
   d4b9a:	b005      	add	sp, #20
   d4b9c:	bd30      	pop	{r4, r5, pc}
	...

000d4ba0 <_Z10drawbitmapPKhhh>:
#define LOGO16_GLCD_WIDTH 16
static const unsigned char logo16_glcd_bmp[] =
    {0B00000000, 0B00000000, 0B00000000, 0B00000000, 0B00000001, 0B00000000, 0B00010001, 0B10001000, 0B00001101, 0B00110000, 0B00001110, 0B11100000, 0B00000111, 0B11100000, 0B00111011, 0B11011100, 0B00010111, 0B11011000, 0B00000111, 0B11100000, 0B00001110, 0B01110000, 0B00001001, 0B10110000, 0B00010001, 0B10001000, 0B00000001, 0B00000000, 0B00000000, 0B00000000, 0B00000000, 0B00000000};

void drawbitmap(const uint8_t *bitmap, uint8_t w, uint8_t h)
{
   d4ba0:	e92d 4ff0 	stmdb	sp!, {r4, r5, r6, r7, r8, r9, sl, fp, lr}
  uint8_t icons[NUMFLAKES][3];
  appmode = 1;
   d4ba4:	4b3a      	ldr	r3, [pc, #232]	; (d4c90 <_Z10drawbitmapPKhhh+0xf0>)
#define LOGO16_GLCD_WIDTH 16
static const unsigned char logo16_glcd_bmp[] =
    {0B00000000, 0B00000000, 0B00000000, 0B00000000, 0B00000001, 0B00000000, 0B00010001, 0B10001000, 0B00001101, 0B00110000, 0B00001110, 0B11100000, 0B00000111, 0B11100000, 0B00111011, 0B11011100, 0B00010111, 0B11011000, 0B00000111, 0B11100000, 0B00001110, 0B01110000, 0B00001001, 0B10110000, 0B00010001, 0B10001000, 0B00000001, 0B00000000, 0B00000000, 0B00000000, 0B00000000, 0B00000000};

void drawbitmap(const uint8_t *bitmap, uint8_t w, uint8_t h)
{
   d4ba6:	4693      	mov	fp, r2
  uint8_t icons[NUMFLAKES][3];
  appmode = 1;
   d4ba8:	2201      	movs	r2, #1
#define LOGO16_GLCD_WIDTH 16
static const unsigned char logo16_glcd_bmp[] =
    {0B00000000, 0B00000000, 0B00000000, 0B00000000, 0B00000001, 0B00000000, 0B00010001, 0B10001000, 0B00001101, 0B00110000, 0B00001110, 0B11100000, 0B00000111, 0B11100000, 0B00111011, 0B11011100, 0B00010111, 0B11011000, 0B00000111, 0B11100000, 0B00001110, 0B01110000, 0B00001001, 0B10110000, 0B00010001, 0B10001000, 0B00000001, 0B00000000, 0B00000000, 0B00000000, 0B00000000, 0B00000000};

void drawbitmap(const uint8_t *bitmap, uint8_t w, uint8_t h)
{
   d4baa:	b08f      	sub	sp, #60	; 0x3c
  uint8_t icons[NUMFLAKES][3];
  appmode = 1;
   d4bac:	701a      	strb	r2, [r3, #0]
  btnid = 0;
   d4bae:	4a39      	ldr	r2, [pc, #228]	; (d4c94 <_Z10drawbitmapPKhhh+0xf4>)
#define LOGO16_GLCD_WIDTH 16
static const unsigned char logo16_glcd_bmp[] =
    {0B00000000, 0B00000000, 0B00000000, 0B00000000, 0B00000001, 0B00000000, 0B00010001, 0B10001000, 0B00001101, 0B00110000, 0B00001110, 0B11100000, 0B00000111, 0B11100000, 0B00111011, 0B11011100, 0B00010111, 0B11011000, 0B00000111, 0B11100000, 0B00001110, 0B01110000, 0B00001001, 0B10110000, 0B00010001, 0B10001000, 0B00000001, 0B00000000, 0B00000000, 0B00000000, 0B00000000, 0B00000000};

void drawbitmap(const uint8_t *bitmap, uint8_t w, uint8_t h)
{
   d4bb0:	9104      	str	r1, [sp, #16]
  uint8_t icons[NUMFLAKES][3];
  appmode = 1;
  btnid = 0;
   d4bb2:	2400      	movs	r4, #0
   d4bb4:	7014      	strb	r4, [r2, #0]
   d4bb6:	9305      	str	r3, [sp, #20]

  // initialize
  for (uint8_t f = 0; f < NUMFLAKES; f++)
  {
    icons[f][XPOS] = random(display.width());
   d4bb8:	ae06      	add	r6, sp, #24
    icons[f][YPOS] = 0;
   d4bba:	4627      	mov	r7, r4
  btnid = 0;

  // initialize
  for (uint8_t f = 0; f < NUMFLAKES; f++)
  {
    icons[f][XPOS] = random(display.width());
   d4bbc:	4836      	ldr	r0, [pc, #216]	; (d4c98 <_Z10drawbitmapPKhhh+0xf8>)
   d4bbe:	f003 f8fb 	bl	d7db8 <_ZN12Adafruit_GFX5widthEv>
   d4bc2:	f005 fa0f 	bl	d9fe4 <_Z6randomi>
   d4bc6:	1935      	adds	r5, r6, r4
   d4bc8:	5530      	strb	r0, [r6, r4]
    icons[f][YPOS] = 0;
   d4bca:	706f      	strb	r7, [r5, #1]
    icons[f][DELTAY] = random(5) + 1;
   d4bcc:	2005      	movs	r0, #5
   d4bce:	f005 fa09 	bl	d9fe4 <_Z6randomi>
   d4bd2:	3403      	adds	r4, #3
   d4bd4:	3001      	adds	r0, #1
  uint8_t icons[NUMFLAKES][3];
  appmode = 1;
  btnid = 0;

  // initialize
  for (uint8_t f = 0; f < NUMFLAKES; f++)
   d4bd6:	2c1e      	cmp	r4, #30
  {
    icons[f][XPOS] = random(display.width());
    icons[f][YPOS] = 0;
    icons[f][DELTAY] = random(5) + 1;
   d4bd8:	70a8      	strb	r0, [r5, #2]
  uint8_t icons[NUMFLAKES][3];
  appmode = 1;
  btnid = 0;

  // initialize
  for (uint8_t f = 0; f < NUMFLAKES; f++)
   d4bda:	d1ef      	bne.n	d4bbc <_Z10drawbitmapPKhhh+0x1c>
    icons[f][XPOS] = random(display.width());
    icons[f][YPOS] = 0;
    icons[f][DELTAY] = random(5) + 1;
  }

  setupLEDButtonInterrupt();
   d4bdc:	f001 fd42 	bl	d6664 <_Z23setupLEDButtonInterruptv>

  while (appmode)
   d4be0:	9b05      	ldr	r3, [sp, #20]
   d4be2:	781b      	ldrb	r3, [r3, #0]
   d4be4:	2b00      	cmp	r3, #0
   d4be6:	d049      	beq.n	d4c7c <_Z10drawbitmapPKhhh+0xdc>
  {
    // draw each icon
    for (uint8_t f = 0; f < NUMFLAKES; f++)
    {
      display.drawBitmap(icons[f][XPOS], icons[f][YPOS], logo16_glcd_bmp, w, h, WHITE);
   d4be8:	f9bd 8010 	ldrsh.w	r8, [sp, #16]
   d4bec:	2500      	movs	r5, #0
   d4bee:	ac06      	add	r4, sp, #24
   d4bf0:	1963      	adds	r3, r4, r5
   d4bf2:	fa0f f68b 	sxth.w	r6, fp
   d4bf6:	785a      	ldrb	r2, [r3, #1]
   d4bf8:	5d61      	ldrb	r1, [r4, r5]
   d4bfa:	4827      	ldr	r0, [pc, #156]	; (d4c98 <_Z10drawbitmapPKhhh+0xf8>)
   d4bfc:	9601      	str	r6, [sp, #4]
   d4bfe:	2301      	movs	r3, #1
   d4c00:	9302      	str	r3, [sp, #8]
   d4c02:	f8cd 8000 	str.w	r8, [sp]
   d4c06:	4b25      	ldr	r3, [pc, #148]	; (d4c9c <_Z10drawbitmapPKhhh+0xfc>)
   d4c08:	3503      	adds	r5, #3
   d4c0a:	f002 ffb9 	bl	d7b80 <_ZN12Adafruit_GFX10drawBitmapEssPKhsst>
  setupLEDButtonInterrupt();

  while (appmode)
  {
    // draw each icon
    for (uint8_t f = 0; f < NUMFLAKES; f++)
   d4c0e:	2d1e      	cmp	r5, #30
   d4c10:	d1ed      	bne.n	d4bee <_Z10drawbitmapPKhhh+0x4e>
    {
      display.drawBitmap(icons[f][XPOS], icons[f][YPOS], logo16_glcd_bmp, w, h, WHITE);
    }
    display.display();
   d4c12:	4821      	ldr	r0, [pc, #132]	; (d4c98 <_Z10drawbitmapPKhhh+0xf8>)
   d4c14:	f003 fc7e 	bl	d8514 <_ZN16Adafruit_SSD13067displayEv>
    delay(200);
   d4c18:	20c8      	movs	r0, #200	; 0xc8
   d4c1a:	f004 fb59 	bl	d92d0 <delay>
   d4c1e:	2500      	movs	r5, #0

    // then erase it + move it
    for (uint8_t f = 0; f < NUMFLAKES; f++)
    {
      display.drawBitmap(icons[f][XPOS], icons[f][YPOS], logo16_glcd_bmp, w, h, BLACK);
   d4c20:	462f      	mov	r7, r5
   d4c22:	f894 a001 	ldrb.w	sl, [r4, #1]
   d4c26:	4b1d      	ldr	r3, [pc, #116]	; (d4c9c <_Z10drawbitmapPKhhh+0xfc>)
   d4c28:	481b      	ldr	r0, [pc, #108]	; (d4c98 <_Z10drawbitmapPKhhh+0xf8>)
   d4c2a:	f10d 0918 	add.w	r9, sp, #24
   d4c2e:	4652      	mov	r2, sl
   d4c30:	f819 1005 	ldrb.w	r1, [r9, r5]
   d4c34:	9702      	str	r7, [sp, #8]
   d4c36:	9601      	str	r6, [sp, #4]
   d4c38:	f8cd 8000 	str.w	r8, [sp]
   d4c3c:	f002 ffa0 	bl	d7b80 <_ZN12Adafruit_GFX10drawBitmapEssPKhsst>
      // move it
      icons[f][YPOS] += icons[f][DELTAY];
   d4c40:	78a3      	ldrb	r3, [r4, #2]
      // if its gone, reinit
      if (icons[f][YPOS] > display.height())
   d4c42:	4815      	ldr	r0, [pc, #84]	; (d4c98 <_Z10drawbitmapPKhhh+0xf8>)
    // then erase it + move it
    for (uint8_t f = 0; f < NUMFLAKES; f++)
    {
      display.drawBitmap(icons[f][XPOS], icons[f][YPOS], logo16_glcd_bmp, w, h, BLACK);
      // move it
      icons[f][YPOS] += icons[f][DELTAY];
   d4c44:	449a      	add	sl, r3
   d4c46:	fa5f fa8a 	uxtb.w	sl, sl
   d4c4a:	f884 a001 	strb.w	sl, [r4, #1]
      // if its gone, reinit
      if (icons[f][YPOS] > display.height())
   d4c4e:	f003 f8b6 	bl	d7dbe <_ZN12Adafruit_GFX6heightEv>
   d4c52:	4582      	cmp	sl, r0
   d4c54:	dd0c      	ble.n	d4c70 <_Z10drawbitmapPKhhh+0xd0>
      {
        icons[f][XPOS] = random(display.width());
   d4c56:	4810      	ldr	r0, [pc, #64]	; (d4c98 <_Z10drawbitmapPKhhh+0xf8>)
   d4c58:	f003 f8ae 	bl	d7db8 <_ZN12Adafruit_GFX5widthEv>
   d4c5c:	f005 f9c2 	bl	d9fe4 <_Z6randomi>
   d4c60:	f809 0005 	strb.w	r0, [r9, r5]
        icons[f][YPOS] = 0;
   d4c64:	7067      	strb	r7, [r4, #1]
        icons[f][DELTAY] = random(5) + 1;
   d4c66:	2005      	movs	r0, #5
   d4c68:	f005 f9bc 	bl	d9fe4 <_Z6randomi>
   d4c6c:	3001      	adds	r0, #1
   d4c6e:	70a0      	strb	r0, [r4, #2]
   d4c70:	3503      	adds	r5, #3
    }
    display.display();
    delay(200);

    // then erase it + move it
    for (uint8_t f = 0; f < NUMFLAKES; f++)
   d4c72:	2d1e      	cmp	r5, #30
   d4c74:	f104 0403 	add.w	r4, r4, #3
   d4c78:	d1d3      	bne.n	d4c22 <_Z10drawbitmapPKhhh+0x82>
   d4c7a:	e7b1      	b.n	d4be0 <_Z10drawbitmapPKhhh+0x40>
        icons[f][YPOS] = 0;
        icons[f][DELTAY] = random(5) + 1;
      }
    }
  }
  appmode = 0;
   d4c7c:	4a04      	ldr	r2, [pc, #16]	; (d4c90 <_Z10drawbitmapPKhhh+0xf0>)
   d4c7e:	7013      	strb	r3, [r2, #0]
  btncounter++;
   d4c80:	4a07      	ldr	r2, [pc, #28]	; (d4ca0 <_Z10drawbitmapPKhhh+0x100>)
   d4c82:	7813      	ldrb	r3, [r2, #0]
   d4c84:	3301      	adds	r3, #1
   d4c86:	7013      	strb	r3, [r2, #0]
}
   d4c88:	b00f      	add	sp, #60	; 0x3c
   d4c8a:	e8bd 8ff0 	ldmia.w	sp!, {r4, r5, r6, r7, r8, r9, sl, fp, pc}
   d4c8e:	bf00      	nop
   d4c90:	2003e21a 	.word	0x2003e21a
   d4c94:	2003e22c 	.word	0x2003e22c
   d4c98:	2003e1ec 	.word	0x2003e1ec
   d4c9c:	000dc287 	.word	0x000dc287
   d4ca0:	2003e1e4 	.word	0x2003e1e4

000d4ca4 <_Z10snowflakesv>:

void snowflakes()
{
   d4ca4:	b508      	push	{r3, lr}
  clearScreen();
   d4ca6:	f000 fbb7 	bl	d5418 <_Z11clearScreenv>
  // draw a bitmap icon and 'animate' movement
  drawbitmap(logo16_glcd_bmp, LOGO16_GLCD_HEIGHT, LOGO16_GLCD_WIDTH);
   d4caa:	2210      	movs	r2, #16
   d4cac:	4611      	mov	r1, r2
   d4cae:	4802      	ldr	r0, [pc, #8]	; (d4cb8 <_Z10snowflakesv+0x14>)
}
   d4cb0:	e8bd 4008 	ldmia.w	sp!, {r3, lr}

void snowflakes()
{
  clearScreen();
  // draw a bitmap icon and 'animate' movement
  drawbitmap(logo16_glcd_bmp, LOGO16_GLCD_HEIGHT, LOGO16_GLCD_WIDTH);
   d4cb4:	f7ff bf74 	b.w	d4ba0 <_Z10drawbitmapPKhhh>
   d4cb8:	000dc287 	.word	0x000dc287

000d4cbc <_Z10drawcirclev>:
}

void drawcircle(void)
{
   d4cbc:	b5f7      	push	{r0, r1, r2, r4, r5, r6, r7, lr}
  clearScreen();
   d4cbe:	f000 fbab 	bl	d5418 <_Z11clearScreenv>

  for (int16_t i = 0; i < display.height(); i += 2)
   d4cc2:	2400      	movs	r4, #0
  {
    display.drawCircle(display.width() / 2, display.height() / 2, i, WHITE);
   d4cc4:	2602      	movs	r6, #2
   d4cc6:	2701      	movs	r7, #1

void drawcircle(void)
{
  clearScreen();

  for (int16_t i = 0; i < display.height(); i += 2)
   d4cc8:	480f      	ldr	r0, [pc, #60]	; (d4d08 <_Z10drawcirclev+0x4c>)
   d4cca:	f003 f878 	bl	d7dbe <_ZN12Adafruit_GFX6heightEv>
   d4cce:	4284      	cmp	r4, r0
   d4cd0:	da17      	bge.n	d4d02 <_Z10drawcirclev+0x46>
  {
    display.drawCircle(display.width() / 2, display.height() / 2, i, WHITE);
   d4cd2:	480d      	ldr	r0, [pc, #52]	; (d4d08 <_Z10drawcirclev+0x4c>)
   d4cd4:	f003 f870 	bl	d7db8 <_ZN12Adafruit_GFX5widthEv>
   d4cd8:	4605      	mov	r5, r0
   d4cda:	480b      	ldr	r0, [pc, #44]	; (d4d08 <_Z10drawcirclev+0x4c>)
   d4cdc:	f003 f86f 	bl	d7dbe <_ZN12Adafruit_GFX6heightEv>
   d4ce0:	fb95 f1f6 	sdiv	r1, r5, r6
   d4ce4:	4623      	mov	r3, r4
   d4ce6:	fb90 f2f6 	sdiv	r2, r0, r6
   d4cea:	b209      	sxth	r1, r1
   d4cec:	b212      	sxth	r2, r2
   d4cee:	4806      	ldr	r0, [pc, #24]	; (d4d08 <_Z10drawcirclev+0x4c>)
   d4cf0:	9700      	str	r7, [sp, #0]
   d4cf2:	f002 fb31 	bl	d7358 <_ZN12Adafruit_GFX10drawCircleEssst>
   d4cf6:	3402      	adds	r4, #2
    display.display();
   d4cf8:	4803      	ldr	r0, [pc, #12]	; (d4d08 <_Z10drawcirclev+0x4c>)
   d4cfa:	f003 fc0b 	bl	d8514 <_ZN16Adafruit_SSD13067displayEv>
   d4cfe:	b224      	sxth	r4, r4

void drawcircle(void)
{
  clearScreen();

  for (int16_t i = 0; i < display.height(); i += 2)
   d4d00:	e7e2      	b.n	d4cc8 <_Z10drawcirclev+0xc>
  {
    display.drawCircle(display.width() / 2, display.height() / 2, i, WHITE);
    display.display();
  }
}
   d4d02:	b003      	add	sp, #12
   d4d04:	bdf0      	pop	{r4, r5, r6, r7, pc}
   d4d06:	bf00      	nop
   d4d08:	2003e1ec 	.word	0x2003e1ec

000d4d0c <_Z11drawCirclesv>:

void drawCircles()
{
   d4d0c:	b510      	push	{r4, lr}
  appmode = 1;
   d4d0e:	4c07      	ldr	r4, [pc, #28]	; (d4d2c <_Z11drawCirclesv+0x20>)
   d4d10:	2301      	movs	r3, #1
   d4d12:	7023      	strb	r3, [r4, #0]
  btnid = 0;
   d4d14:	4b06      	ldr	r3, [pc, #24]	; (d4d30 <_Z11drawCirclesv+0x24>)
   d4d16:	2200      	movs	r2, #0
   d4d18:	701a      	strb	r2, [r3, #0]
  setupLEDButtonInterrupt();
   d4d1a:	f001 fca3 	bl	d6664 <_Z23setupLEDButtonInterruptv>

  while (appmode)
   d4d1e:	7823      	ldrb	r3, [r4, #0]
   d4d20:	b113      	cbz	r3, d4d28 <_Z11drawCirclesv+0x1c>
  {
    drawcircle();
   d4d22:	f7ff ffcb 	bl	d4cbc <_Z10drawcirclev>
{
  appmode = 1;
  btnid = 0;
  setupLEDButtonInterrupt();

  while (appmode)
   d4d26:	e7fa      	b.n	d4d1e <_Z11drawCirclesv+0x12>
   d4d28:	bd10      	pop	{r4, pc}
   d4d2a:	bf00      	nop
   d4d2c:	2003e21a 	.word	0x2003e21a
   d4d30:	2003e22c 	.word	0x2003e22c

000d4d34 <_Z12drawtrianglev>:
    drawcircle();
  }
}

void drawtriangle(void)
{
   d4d34:	e92d 4ff0 	stmdb	sp!, {r4, r5, r6, r7, r8, r9, sl, fp, lr}
   d4d38:	b085      	sub	sp, #20
  clearScreen();
   d4d3a:	f000 fb6d 	bl	d5418 <_Z11clearScreenv>

  for (int16_t i = 0; i < min(display.width(), display.height()) / 2; i += 5)
   d4d3e:	2400      	movs	r4, #0
   d4d40:	2602      	movs	r6, #2
  {
    display.drawTriangle(display.width() / 2, display.height() / 2 - i,
                         display.width() / 2 - i, display.height() / 2 + i,
                         display.width() / 2 + i, display.height() / 2 + i, WHITE);
   d4d42:	2701      	movs	r7, #1

void drawtriangle(void)
{
  clearScreen();

  for (int16_t i = 0; i < min(display.width(), display.height()) / 2; i += 5)
   d4d44:	4826      	ldr	r0, [pc, #152]	; (d4de0 <_Z12drawtrianglev+0xac>)
   d4d46:	f003 f837 	bl	d7db8 <_ZN12Adafruit_GFX5widthEv>
   d4d4a:	4605      	mov	r5, r0
   d4d4c:	4824      	ldr	r0, [pc, #144]	; (d4de0 <_Z12drawtrianglev+0xac>)
   d4d4e:	f003 f836 	bl	d7dbe <_ZN12Adafruit_GFX6heightEv>
   d4d52:	42a8      	cmp	r0, r5
   d4d54:	bfa8      	it	ge
   d4d56:	4628      	movge	r0, r5
   d4d58:	b200      	sxth	r0, r0
   d4d5a:	fb90 f0f6 	sdiv	r0, r0, r6
   d4d5e:	4284      	cmp	r4, r0
   d4d60:	da3b      	bge.n	d4dda <_Z12drawtrianglev+0xa6>
  {
    display.drawTriangle(display.width() / 2, display.height() / 2 - i,
   d4d62:	481f      	ldr	r0, [pc, #124]	; (d4de0 <_Z12drawtrianglev+0xac>)
   d4d64:	f003 f828 	bl	d7db8 <_ZN12Adafruit_GFX5widthEv>
   d4d68:	4682      	mov	sl, r0
   d4d6a:	481d      	ldr	r0, [pc, #116]	; (d4de0 <_Z12drawtrianglev+0xac>)
   d4d6c:	f003 f827 	bl	d7dbe <_ZN12Adafruit_GFX6heightEv>
   d4d70:	4681      	mov	r9, r0
                         display.width() / 2 - i, display.height() / 2 + i,
   d4d72:	481b      	ldr	r0, [pc, #108]	; (d4de0 <_Z12drawtrianglev+0xac>)
   d4d74:	f003 f820 	bl	d7db8 <_ZN12Adafruit_GFX5widthEv>
   d4d78:	4683      	mov	fp, r0
   d4d7a:	4819      	ldr	r0, [pc, #100]	; (d4de0 <_Z12drawtrianglev+0xac>)
   d4d7c:	f003 f81f 	bl	d7dbe <_ZN12Adafruit_GFX6heightEv>
   d4d80:	4605      	mov	r5, r0
                         display.width() / 2 + i, display.height() / 2 + i, WHITE);
   d4d82:	4817      	ldr	r0, [pc, #92]	; (d4de0 <_Z12drawtrianglev+0xac>)
   d4d84:	f003 f818 	bl	d7db8 <_ZN12Adafruit_GFX5widthEv>
   d4d88:	4680      	mov	r8, r0
   d4d8a:	4815      	ldr	r0, [pc, #84]	; (d4de0 <_Z12drawtrianglev+0xac>)
   d4d8c:	f003 f817 	bl	d7dbe <_ZN12Adafruit_GFX6heightEv>
   d4d90:	fb95 f5f6 	sdiv	r5, r5, r6
   d4d94:	fb9b f3f6 	sdiv	r3, fp, r6
{
  clearScreen();

  for (int16_t i = 0; i < min(display.width(), display.height()) / 2; i += 5)
  {
    display.drawTriangle(display.width() / 2, display.height() / 2 - i,
   d4d98:	b2a4      	uxth	r4, r4
                         display.width() / 2 - i, display.height() / 2 + i,
                         display.width() / 2 + i, display.height() / 2 + i, WHITE);
   d4d9a:	fb90 f0f6 	sdiv	r0, r0, r6
   d4d9e:	4420      	add	r0, r4
   d4da0:	b200      	sxth	r0, r0
   d4da2:	9002      	str	r0, [sp, #8]
   d4da4:	4425      	add	r5, r4
   d4da6:	fb98 f0f6 	sdiv	r0, r8, r6
   d4daa:	4420      	add	r0, r4
   d4dac:	1b1b      	subs	r3, r3, r4
   d4dae:	b200      	sxth	r0, r0
   d4db0:	fb99 f2f6 	sdiv	r2, r9, r6
   d4db4:	b22d      	sxth	r5, r5
   d4db6:	1b12      	subs	r2, r2, r4
   d4db8:	9001      	str	r0, [sp, #4]
   d4dba:	b21b      	sxth	r3, r3
   d4dbc:	b212      	sxth	r2, r2
   d4dbe:	4808      	ldr	r0, [pc, #32]	; (d4de0 <_Z12drawtrianglev+0xac>)
   d4dc0:	fb9a f1f6 	sdiv	r1, sl, r6
   d4dc4:	9703      	str	r7, [sp, #12]
   d4dc6:	b209      	sxth	r1, r1
   d4dc8:	9500      	str	r5, [sp, #0]
   d4dca:	f002 fdc9 	bl	d7960 <_ZN12Adafruit_GFX12drawTriangleEsssssst>
   d4dce:	3405      	adds	r4, #5
    display.display();
   d4dd0:	4803      	ldr	r0, [pc, #12]	; (d4de0 <_Z12drawtrianglev+0xac>)
   d4dd2:	f003 fb9f 	bl	d8514 <_ZN16Adafruit_SSD13067displayEv>
   d4dd6:	b224      	sxth	r4, r4

void drawtriangle(void)
{
  clearScreen();

  for (int16_t i = 0; i < min(display.width(), display.height()) / 2; i += 5)
   d4dd8:	e7b4      	b.n	d4d44 <_Z12drawtrianglev+0x10>
    display.drawTriangle(display.width() / 2, display.height() / 2 - i,
                         display.width() / 2 - i, display.height() / 2 + i,
                         display.width() / 2 + i, display.height() / 2 + i, WHITE);
    display.display();
  }
}
   d4dda:	b005      	add	sp, #20
   d4ddc:	e8bd 8ff0 	ldmia.w	sp!, {r4, r5, r6, r7, r8, r9, sl, fp, pc}
   d4de0:	2003e1ec 	.word	0x2003e1ec

000d4de4 <_Z12filltrianglev>:

void filltriangle(void)
{
   d4de4:	e92d 4ff0 	stmdb	sp!, {r4, r5, r6, r7, r8, r9, sl, fp, lr}
   d4de8:	b085      	sub	sp, #20
  clearScreen();
   d4dea:	f000 fb15 	bl	d5418 <_Z11clearScreenv>

  uint8_t color = WHITE;
  for (int16_t i = min(display.width(), display.height()) / 2; i > 0; i -= 5)
   d4dee:	4828      	ldr	r0, [pc, #160]	; (d4e90 <_Z12filltrianglev+0xac>)
   d4df0:	f002 ffe2 	bl	d7db8 <_ZN12Adafruit_GFX5widthEv>
   d4df4:	4604      	mov	r4, r0
   d4df6:	4826      	ldr	r0, [pc, #152]	; (d4e90 <_Z12filltrianglev+0xac>)
   d4df8:	f002 ffe1 	bl	d7dbe <_ZN12Adafruit_GFX6heightEv>
   d4dfc:	42a0      	cmp	r0, r4
   d4dfe:	bfa8      	it	ge
   d4e00:	4620      	movge	r0, r4
  {
    display.fillTriangle(display.width() / 2, display.height() / 2 - i,
                         display.width() / 2 - i, display.height() / 2 + i,
                         display.width() / 2 + i, display.height() / 2 + i, WHITE);
   d4e02:	2701      	movs	r7, #1
void filltriangle(void)
{
  clearScreen();

  uint8_t color = WHITE;
  for (int16_t i = min(display.width(), display.height()) / 2; i > 0; i -= 5)
   d4e04:	b204      	sxth	r4, r0
   d4e06:	2502      	movs	r5, #2
   d4e08:	fb94 f4f5 	sdiv	r4, r4, r5
   d4e0c:	2c00      	cmp	r4, #0
   d4e0e:	dd3b      	ble.n	d4e88 <_Z12filltrianglev+0xa4>
  {
    display.fillTriangle(display.width() / 2, display.height() / 2 - i,
   d4e10:	481f      	ldr	r0, [pc, #124]	; (d4e90 <_Z12filltrianglev+0xac>)
   d4e12:	f002 ffd1 	bl	d7db8 <_ZN12Adafruit_GFX5widthEv>
   d4e16:	4682      	mov	sl, r0
   d4e18:	481d      	ldr	r0, [pc, #116]	; (d4e90 <_Z12filltrianglev+0xac>)
   d4e1a:	f002 ffd0 	bl	d7dbe <_ZN12Adafruit_GFX6heightEv>
   d4e1e:	4681      	mov	r9, r0
                         display.width() / 2 - i, display.height() / 2 + i,
   d4e20:	481b      	ldr	r0, [pc, #108]	; (d4e90 <_Z12filltrianglev+0xac>)
   d4e22:	f002 ffc9 	bl	d7db8 <_ZN12Adafruit_GFX5widthEv>
   d4e26:	4683      	mov	fp, r0
   d4e28:	4819      	ldr	r0, [pc, #100]	; (d4e90 <_Z12filltrianglev+0xac>)
   d4e2a:	f002 ffc8 	bl	d7dbe <_ZN12Adafruit_GFX6heightEv>
   d4e2e:	4606      	mov	r6, r0
                         display.width() / 2 + i, display.height() / 2 + i, WHITE);
   d4e30:	4817      	ldr	r0, [pc, #92]	; (d4e90 <_Z12filltrianglev+0xac>)
   d4e32:	f002 ffc1 	bl	d7db8 <_ZN12Adafruit_GFX5widthEv>
   d4e36:	4680      	mov	r8, r0
   d4e38:	4815      	ldr	r0, [pc, #84]	; (d4e90 <_Z12filltrianglev+0xac>)
   d4e3a:	f002 ffc0 	bl	d7dbe <_ZN12Adafruit_GFX6heightEv>
   d4e3e:	fb96 f6f5 	sdiv	r6, r6, r5
   d4e42:	fb9b f3f5 	sdiv	r3, fp, r5
  clearScreen();

  uint8_t color = WHITE;
  for (int16_t i = min(display.width(), display.height()) / 2; i > 0; i -= 5)
  {
    display.fillTriangle(display.width() / 2, display.height() / 2 - i,
   d4e46:	b2a4      	uxth	r4, r4
                         display.width() / 2 - i, display.height() / 2 + i,
                         display.width() / 2 + i, display.height() / 2 + i, WHITE);
   d4e48:	fb90 f0f5 	sdiv	r0, r0, r5
   d4e4c:	4420      	add	r0, r4
   d4e4e:	b200      	sxth	r0, r0
   d4e50:	9002      	str	r0, [sp, #8]
   d4e52:	4426      	add	r6, r4
   d4e54:	fb98 f0f5 	sdiv	r0, r8, r5
   d4e58:	4420      	add	r0, r4
   d4e5a:	1b1b      	subs	r3, r3, r4
   d4e5c:	b200      	sxth	r0, r0
   d4e5e:	fb99 f2f5 	sdiv	r2, r9, r5
   d4e62:	b236      	sxth	r6, r6
   d4e64:	1b12      	subs	r2, r2, r4
   d4e66:	9001      	str	r0, [sp, #4]
   d4e68:	b21b      	sxth	r3, r3
   d4e6a:	b212      	sxth	r2, r2
   d4e6c:	4808      	ldr	r0, [pc, #32]	; (d4e90 <_Z12filltrianglev+0xac>)
   d4e6e:	fb9a f1f5 	sdiv	r1, sl, r5
   d4e72:	9703      	str	r7, [sp, #12]
   d4e74:	b209      	sxth	r1, r1
   d4e76:	9600      	str	r6, [sp, #0]
   d4e78:	f002 fd9f 	bl	d79ba <_ZN12Adafruit_GFX12fillTriangleEsssssst>
   d4e7c:	3c05      	subs	r4, #5
    if (color == WHITE)
      color = BLACK;
    else
      color = WHITE;
    display.display();
   d4e7e:	4804      	ldr	r0, [pc, #16]	; (d4e90 <_Z12filltrianglev+0xac>)
   d4e80:	f003 fb48 	bl	d8514 <_ZN16Adafruit_SSD13067displayEv>
   d4e84:	b224      	sxth	r4, r4
void filltriangle(void)
{
  clearScreen();

  uint8_t color = WHITE;
  for (int16_t i = min(display.width(), display.height()) / 2; i > 0; i -= 5)
   d4e86:	e7c1      	b.n	d4e0c <_Z12filltrianglev+0x28>
      color = BLACK;
    else
      color = WHITE;
    display.display();
  }
}
   d4e88:	b005      	add	sp, #20
   d4e8a:	e8bd 8ff0 	ldmia.w	sp!, {r4, r5, r6, r7, r8, r9, sl, fp, pc}
   d4e8e:	bf00      	nop
   d4e90:	2003e1ec 	.word	0x2003e1ec

000d4e94 <_Z13drawTrianglesv>:

void drawTriangles()
{
   d4e94:	b510      	push	{r4, lr}
  appmode = 1;
   d4e96:	4c0a      	ldr	r4, [pc, #40]	; (d4ec0 <_Z13drawTrianglesv+0x2c>)
   d4e98:	2301      	movs	r3, #1
   d4e9a:	7023      	strb	r3, [r4, #0]
  btnid = 0;
   d4e9c:	4b09      	ldr	r3, [pc, #36]	; (d4ec4 <_Z13drawTrianglesv+0x30>)
   d4e9e:	2200      	movs	r2, #0
   d4ea0:	701a      	strb	r2, [r3, #0]
  setupLEDButtonInterrupt();
   d4ea2:	f001 fbdf 	bl	d6664 <_Z23setupLEDButtonInterruptv>

  while (appmode)
   d4ea6:	7823      	ldrb	r3, [r4, #0]
   d4ea8:	b143      	cbz	r3, d4ebc <_Z13drawTrianglesv+0x28>
  {
    drawtriangle();
   d4eaa:	f7ff ff43 	bl	d4d34 <_Z12drawtrianglev>
    delay(1000);
   d4eae:	f44f 707a 	mov.w	r0, #1000	; 0x3e8
   d4eb2:	f004 fa0d 	bl	d92d0 <delay>
    filltriangle();
   d4eb6:	f7ff ff95 	bl	d4de4 <_Z12filltrianglev>
{
  appmode = 1;
  btnid = 0;
  setupLEDButtonInterrupt();

  while (appmode)
   d4eba:	e7f4      	b.n	d4ea6 <_Z13drawTrianglesv+0x12>
   d4ebc:	bd10      	pop	{r4, pc}
   d4ebe:	bf00      	nop
   d4ec0:	2003e21a 	.word	0x2003e21a
   d4ec4:	2003e22c 	.word	0x2003e22c

000d4ec8 <_Z13drawroundrectv>:
    filltriangle();
  }
}

void drawroundrect(void)
{
   d4ec8:	e92d 47ff 	stmdb	sp!, {r0, r1, r2, r3, r4, r5, r6, r7, r8, r9, sl, lr}
  clearScreen();
   d4ecc:	f000 faa4 	bl	d5418 <_Z11clearScreenv>

  for (int16_t i = 0; i < display.height() / 2 - 2; i += 2)
   d4ed0:	2500      	movs	r5, #0
   d4ed2:	f04f 0802 	mov.w	r8, #2
  {
    display.drawRoundRect(i, i, display.width() - 2 * i, display.height() - 2 * i, display.height() / 4, WHITE);
   d4ed6:	2701      	movs	r7, #1

void drawroundrect(void)
{
  clearScreen();

  for (int16_t i = 0; i < display.height() / 2 - 2; i += 2)
   d4ed8:	4819      	ldr	r0, [pc, #100]	; (d4f40 <_Z13drawroundrectv+0x78>)
   d4eda:	f002 ff70 	bl	d7dbe <_ZN12Adafruit_GFX6heightEv>
   d4ede:	fb90 f0f8 	sdiv	r0, r0, r8
   d4ee2:	b200      	sxth	r0, r0
   d4ee4:	3802      	subs	r0, #2
   d4ee6:	4285      	cmp	r5, r0
   d4ee8:	da26      	bge.n	d4f38 <_Z13drawroundrectv+0x70>
  {
    display.drawRoundRect(i, i, display.width() - 2 * i, display.height() - 2 * i, display.height() / 4, WHITE);
   d4eea:	4815      	ldr	r0, [pc, #84]	; (d4f40 <_Z13drawroundrectv+0x78>)
   d4eec:	f002 ff64 	bl	d7db8 <_ZN12Adafruit_GFX5widthEv>
   d4ef0:	4682      	mov	sl, r0
   d4ef2:	4813      	ldr	r0, [pc, #76]	; (d4f40 <_Z13drawroundrectv+0x78>)
   d4ef4:	f002 ff63 	bl	d7dbe <_ZN12Adafruit_GFX6heightEv>
   d4ef8:	b2ae      	uxth	r6, r5
   d4efa:	0074      	lsls	r4, r6, #1
   d4efc:	fa1f f984 	uxth.w	r9, r4
   d4f00:	4604      	mov	r4, r0
   d4f02:	480f      	ldr	r0, [pc, #60]	; (d4f40 <_Z13drawroundrectv+0x78>)
   d4f04:	f002 ff5b 	bl	d7dbe <_ZN12Adafruit_GFX6heightEv>
   d4f08:	ebc9 0404 	rsb	r4, r9, r4
   d4f0c:	2204      	movs	r2, #4
   d4f0e:	ebc9 030a 	rsb	r3, r9, sl
   d4f12:	fb90 f0f2 	sdiv	r0, r0, r2
   d4f16:	b224      	sxth	r4, r4
   d4f18:	b202      	sxth	r2, r0
   d4f1a:	4629      	mov	r1, r5
   d4f1c:	9201      	str	r2, [sp, #4]
   d4f1e:	b21b      	sxth	r3, r3
   d4f20:	462a      	mov	r2, r5
   d4f22:	4807      	ldr	r0, [pc, #28]	; (d4f40 <_Z13drawroundrectv+0x78>)
   d4f24:	9702      	str	r7, [sp, #8]
   d4f26:	9400      	str	r4, [sp, #0]
   d4f28:	f002 fc4f 	bl	d77ca <_ZN12Adafruit_GFX13drawRoundRectEssssst>
   d4f2c:	1cb5      	adds	r5, r6, #2
    display.display();
   d4f2e:	4804      	ldr	r0, [pc, #16]	; (d4f40 <_Z13drawroundrectv+0x78>)
   d4f30:	f003 faf0 	bl	d8514 <_ZN16Adafruit_SSD13067displayEv>
   d4f34:	b22d      	sxth	r5, r5

void drawroundrect(void)
{
  clearScreen();

  for (int16_t i = 0; i < display.height() / 2 - 2; i += 2)
   d4f36:	e7cf      	b.n	d4ed8 <_Z13drawroundrectv+0x10>
  {
    display.drawRoundRect(i, i, display.width() - 2 * i, display.height() - 2 * i, display.height() / 4, WHITE);
    display.display();
  }
}
   d4f38:	b004      	add	sp, #16
   d4f3a:	e8bd 87f0 	ldmia.w	sp!, {r4, r5, r6, r7, r8, r9, sl, pc}
   d4f3e:	bf00      	nop
   d4f40:	2003e1ec 	.word	0x2003e1ec

000d4f44 <_Z13fillroundrectv>:

void fillroundrect(void)
{
   d4f44:	e92d 4ff0 	stmdb	sp!, {r4, r5, r6, r7, r8, r9, sl, fp, lr}
   d4f48:	b085      	sub	sp, #20
  clearScreen();
   d4f4a:	f000 fa65 	bl	d5418 <_Z11clearScreenv>

  uint8_t color = WHITE;
  for (int16_t i = 0; i < display.height() / 2 - 2; i += 2)
   d4f4e:	2500      	movs	r5, #0

void fillroundrect(void)
{
  clearScreen();

  uint8_t color = WHITE;
   d4f50:	2601      	movs	r6, #1
  for (int16_t i = 0; i < display.height() / 2 - 2; i += 2)
   d4f52:	f04f 0802 	mov.w	r8, #2
  {
    display.fillRoundRect(i, i, display.width() - 2 * i, display.height() - 2 * i, display.height() / 4, color);
   d4f56:	2704      	movs	r7, #4
void fillroundrect(void)
{
  clearScreen();

  uint8_t color = WHITE;
  for (int16_t i = 0; i < display.height() / 2 - 2; i += 2)
   d4f58:	481b      	ldr	r0, [pc, #108]	; (d4fc8 <_Z13fillroundrectv+0x84>)
   d4f5a:	f002 ff30 	bl	d7dbe <_ZN12Adafruit_GFX6heightEv>
   d4f5e:	fb90 f0f8 	sdiv	r0, r0, r8
   d4f62:	b200      	sxth	r0, r0
   d4f64:	3802      	subs	r0, #2
   d4f66:	4285      	cmp	r5, r0
   d4f68:	da2a      	bge.n	d4fc0 <_Z13fillroundrectv+0x7c>
  {
    display.fillRoundRect(i, i, display.width() - 2 * i, display.height() - 2 * i, display.height() / 4, color);
   d4f6a:	4817      	ldr	r0, [pc, #92]	; (d4fc8 <_Z13fillroundrectv+0x84>)
   d4f6c:	f002 ff24 	bl	d7db8 <_ZN12Adafruit_GFX5widthEv>
   d4f70:	4683      	mov	fp, r0
   d4f72:	4815      	ldr	r0, [pc, #84]	; (d4fc8 <_Z13fillroundrectv+0x84>)
   d4f74:	f002 ff23 	bl	d7dbe <_ZN12Adafruit_GFX6heightEv>
   d4f78:	fa1f f985 	uxth.w	r9, r5
   d4f7c:	ea4f 0449 	mov.w	r4, r9, lsl #1
   d4f80:	fa1f fa84 	uxth.w	sl, r4
   d4f84:	4604      	mov	r4, r0
   d4f86:	4810      	ldr	r0, [pc, #64]	; (d4fc8 <_Z13fillroundrectv+0x84>)
   d4f88:	f002 ff19 	bl	d7dbe <_ZN12Adafruit_GFX6heightEv>
   d4f8c:	ebca 0404 	rsb	r4, sl, r4
   d4f90:	ebca 030b 	rsb	r3, sl, fp
   d4f94:	fb90 f0f7 	sdiv	r0, r0, r7
   d4f98:	b224      	sxth	r4, r4
   d4f9a:	b200      	sxth	r0, r0
   d4f9c:	462a      	mov	r2, r5
   d4f9e:	4629      	mov	r1, r5
   d4fa0:	9602      	str	r6, [sp, #8]
   d4fa2:	9001      	str	r0, [sp, #4]
   d4fa4:	b21b      	sxth	r3, r3
   d4fa6:	4808      	ldr	r0, [pc, #32]	; (d4fc8 <_Z13fillroundrectv+0x84>)
   d4fa8:	9400      	str	r4, [sp, #0]
   d4faa:	f002 fc92 	bl	d78d2 <_ZN12Adafruit_GFX13fillRoundRectEssssst>
   d4fae:	f109 0502 	add.w	r5, r9, #2
    if (color == WHITE)
      color = BLACK;
    else
      color = WHITE;
    display.display();
   d4fb2:	4805      	ldr	r0, [pc, #20]	; (d4fc8 <_Z13fillroundrectv+0x84>)
   d4fb4:	f086 0601 	eor.w	r6, r6, #1
   d4fb8:	f003 faac 	bl	d8514 <_ZN16Adafruit_SSD13067displayEv>
   d4fbc:	b22d      	sxth	r5, r5
void fillroundrect(void)
{
  clearScreen();

  uint8_t color = WHITE;
  for (int16_t i = 0; i < display.height() / 2 - 2; i += 2)
   d4fbe:	e7cb      	b.n	d4f58 <_Z13fillroundrectv+0x14>
      color = BLACK;
    else
      color = WHITE;
    display.display();
  }
}
   d4fc0:	b005      	add	sp, #20
   d4fc2:	e8bd 8ff0 	ldmia.w	sp!, {r4, r5, r6, r7, r8, r9, sl, fp, pc}
   d4fc6:	bf00      	nop
   d4fc8:	2003e1ec 	.word	0x2003e1ec

000d4fcc <_Z21drawRoundedRectanglesv>:

void drawRoundedRectangles()
{
   d4fcc:	b510      	push	{r4, lr}
  appmode = 1;
   d4fce:	4c08      	ldr	r4, [pc, #32]	; (d4ff0 <_Z21drawRoundedRectanglesv+0x24>)
   d4fd0:	2301      	movs	r3, #1
   d4fd2:	7023      	strb	r3, [r4, #0]
  btnid = 0;
   d4fd4:	4b07      	ldr	r3, [pc, #28]	; (d4ff4 <_Z21drawRoundedRectanglesv+0x28>)
   d4fd6:	2200      	movs	r2, #0
   d4fd8:	701a      	strb	r2, [r3, #0]
  setupLEDButtonInterrupt();
   d4fda:	f001 fb43 	bl	d6664 <_Z23setupLEDButtonInterruptv>

  while (appmode)
   d4fde:	7823      	ldrb	r3, [r4, #0]
   d4fe0:	b123      	cbz	r3, d4fec <_Z21drawRoundedRectanglesv+0x20>
  {
    drawroundrect();
   d4fe2:	f7ff ff71 	bl	d4ec8 <_Z13drawroundrectv>
    fillroundrect();
   d4fe6:	f7ff ffad 	bl	d4f44 <_Z13fillroundrectv>
{
  appmode = 1;
  btnid = 0;
  setupLEDButtonInterrupt();

  while (appmode)
   d4fea:	e7f8      	b.n	d4fde <_Z21drawRoundedRectanglesv+0x12>
   d4fec:	bd10      	pop	{r4, pc}
   d4fee:	bf00      	nop
   d4ff0:	2003e21a 	.word	0x2003e21a
   d4ff4:	2003e22c 	.word	0x2003e22c

000d4ff8 <_Z10scrolltextv>:
    fillrect();
  }
}

void scrolltext()
{
   d4ff8:	b510      	push	{r4, lr}
  clearScreen();

  display.setTextSize(2);
   d4ffa:	4c2a      	ldr	r4, [pc, #168]	; (d50a4 <_Z10scrolltextv+0xac>)
  }
}

void scrolltext()
{
  clearScreen();
   d4ffc:	f000 fa0c 	bl	d5418 <_Z11clearScreenv>

  display.setTextSize(2);
   d5000:	4620      	mov	r0, r4
   d5002:	2102      	movs	r1, #2
   d5004:	f002 fecc 	bl	d7da0 <_ZN12Adafruit_GFX11setTextSizeEh>
  display.setTextColor(WHITE);
   d5008:	4620      	mov	r0, r4
   d500a:	2101      	movs	r1, #1
   d500c:	f002 fecd 	bl	d7daa <_ZN12Adafruit_GFX12setTextColorEt>
  display.setCursor(10, 0);
   d5010:	2200      	movs	r2, #0
   d5012:	210a      	movs	r1, #10
   d5014:	4620      	mov	r0, r4
   d5016:	f002 fec0 	bl	d7d9a <_ZN12Adafruit_GFX9setCursorEss>
  display.clearDisplay();
   d501a:	4620      	mov	r0, r4
   d501c:	f003 faf0 	bl	d8600 <_ZN16Adafruit_SSD130612clearDisplayEv>
  display.println("#Parti");
   d5020:	4921      	ldr	r1, [pc, #132]	; (d50a8 <_Z10scrolltextv+0xb0>)
   d5022:	4620      	mov	r0, r4
   d5024:	f004 ff47 	bl	d9eb6 <_ZN5Print7printlnEPKc>
  display.println("Badge");
   d5028:	4920      	ldr	r1, [pc, #128]	; (d50ac <_Z10scrolltextv+0xb4>)
   d502a:	4620      	mov	r0, r4
   d502c:	f004 ff43 	bl	d9eb6 <_ZN5Print7printlnEPKc>
  display.display();
   d5030:	4620      	mov	r0, r4
   d5032:	f003 fa6f 	bl	d8514 <_ZN16Adafruit_SSD13067displayEv>

  display.startscrollright(0B00000000, 0x0F);
   d5036:	220f      	movs	r2, #15
   d5038:	2100      	movs	r1, #0
   d503a:	4620      	mov	r0, r4
   d503c:	f003 f9c2 	bl	d83c4 <_ZN16Adafruit_SSD130616startscrollrightEhh>
  delay(2000);
   d5040:	f44f 60fa 	mov.w	r0, #2000	; 0x7d0
   d5044:	f004 f944 	bl	d92d0 <delay>
  display.stopscroll();
   d5048:	4620      	mov	r0, r4
   d504a:	f003 fa5f 	bl	d850c <_ZN16Adafruit_SSD130610stopscrollEv>
  delay(1000);
   d504e:	f44f 707a 	mov.w	r0, #1000	; 0x3e8
   d5052:	f004 f93d 	bl	d92d0 <delay>
  display.startscrollleft(0B00000000, 0x0F);
   d5056:	220f      	movs	r2, #15
   d5058:	2100      	movs	r1, #0
   d505a:	4620      	mov	r0, r4
   d505c:	f003 f9d7 	bl	d840e <_ZN16Adafruit_SSD130615startscrollleftEhh>
  delay(2000);
   d5060:	f44f 60fa 	mov.w	r0, #2000	; 0x7d0
   d5064:	f004 f934 	bl	d92d0 <delay>
  display.stopscroll();
   d5068:	4620      	mov	r0, r4
   d506a:	f003 fa4f 	bl	d850c <_ZN16Adafruit_SSD130610stopscrollEv>
  delay(1000);
   d506e:	f44f 707a 	mov.w	r0, #1000	; 0x3e8
   d5072:	f004 f92d 	bl	d92d0 <delay>
  display.startscrolldiagright(0B00000000, 0B00000111);
   d5076:	2207      	movs	r2, #7
   d5078:	2100      	movs	r1, #0
   d507a:	4620      	mov	r0, r4
   d507c:	f003 f9ec 	bl	d8458 <_ZN16Adafruit_SSD130620startscrolldiagrightEhh>
  delay(2000);
   d5080:	f44f 60fa 	mov.w	r0, #2000	; 0x7d0
   d5084:	f004 f924 	bl	d92d0 <delay>
  display.startscrolldiagleft(0B00000000, 0B00000111);
   d5088:	4620      	mov	r0, r4
   d508a:	2207      	movs	r2, #7
   d508c:	2100      	movs	r1, #0
   d508e:	f003 fa10 	bl	d84b2 <_ZN16Adafruit_SSD130619startscrolldiagleftEhh>
  delay(2000);
   d5092:	f44f 60fa 	mov.w	r0, #2000	; 0x7d0
   d5096:	f004 f91b 	bl	d92d0 <delay>
  display.stopscroll();
   d509a:	4620      	mov	r0, r4
}
   d509c:	e8bd 4010 	ldmia.w	sp!, {r4, lr}
  delay(1000);
  display.startscrolldiagright(0B00000000, 0B00000111);
  delay(2000);
  display.startscrolldiagleft(0B00000000, 0B00000111);
  delay(2000);
  display.stopscroll();
   d50a0:	f003 ba34 	b.w	d850c <_ZN16Adafruit_SSD130610stopscrollEv>
   d50a4:	2003e1ec 	.word	0x2003e1ec
   d50a8:	000dc2a7 	.word	0x000dc2a7
   d50ac:	000dc888 	.word	0x000dc888

000d50b0 <_Z10scrollTextv>:
}

void scrollText(void)
{
   d50b0:	b510      	push	{r4, lr}
  appmode = 1;
   d50b2:	4c07      	ldr	r4, [pc, #28]	; (d50d0 <_Z10scrollTextv+0x20>)
   d50b4:	2301      	movs	r3, #1
   d50b6:	7023      	strb	r3, [r4, #0]
  btnid = 0;
   d50b8:	4b06      	ldr	r3, [pc, #24]	; (d50d4 <_Z10scrollTextv+0x24>)
   d50ba:	2200      	movs	r2, #0
   d50bc:	701a      	strb	r2, [r3, #0]
  setupLEDButtonInterrupt();
   d50be:	f001 fad1 	bl	d6664 <_Z23setupLEDButtonInterruptv>

  while (appmode)
   d50c2:	7823      	ldrb	r3, [r4, #0]
   d50c4:	b113      	cbz	r3, d50cc <_Z10scrollTextv+0x1c>
  {
    scrolltext();
   d50c6:	f7ff ff97 	bl	d4ff8 <_Z10scrolltextv>
{
  appmode = 1;
  btnid = 0;
  setupLEDButtonInterrupt();

  while (appmode)
   d50ca:	e7fa      	b.n	d50c2 <_Z10scrollTextv+0x12>
   d50cc:	bd10      	pop	{r4, pc}
   d50ce:	bf00      	nop
   d50d0:	2003e21a 	.word	0x2003e21a
   d50d4:	2003e22c 	.word	0x2003e22c

000d50d8 <_Z8fillrectv>:
    fillroundrect();
  }
}

void fillrect(void)
{
   d50d8:	e92d 43f7 	stmdb	sp!, {r0, r1, r2, r4, r5, r6, r7, r8, r9, lr}
  clearScreen();
   d50dc:	f000 f99c 	bl	d5418 <_Z11clearScreenv>

  uint8_t color = 1;
  for (int16_t i = 0; i < display.height() / 2; i += 3)
   d50e0:	2600      	movs	r6, #0

void fillrect(void)
{
  clearScreen();

  uint8_t color = 1;
   d50e2:	2501      	movs	r5, #1
  for (int16_t i = 0; i < display.height() / 2; i += 3)
   d50e4:	f04f 0802 	mov.w	r8, #2
   d50e8:	4815      	ldr	r0, [pc, #84]	; (d5140 <_Z8fillrectv+0x68>)
   d50ea:	f002 fe68 	bl	d7dbe <_ZN12Adafruit_GFX6heightEv>
   d50ee:	fb90 f0f8 	sdiv	r0, r0, r8
   d50f2:	b200      	sxth	r0, r0
   d50f4:	4286      	cmp	r6, r0
   d50f6:	da1f      	bge.n	d5138 <_Z8fillrectv+0x60>
  {
    // alternate colors
    display.fillRect(i, i, display.width() - i * 2, display.height() - i * 2, color % 2);
   d50f8:	4811      	ldr	r0, [pc, #68]	; (d5140 <_Z8fillrectv+0x68>)
   d50fa:	f002 fe5d 	bl	d7db8 <_ZN12Adafruit_GFX5widthEv>
   d50fe:	4681      	mov	r9, r0
   d5100:	480f      	ldr	r0, [pc, #60]	; (d5140 <_Z8fillrectv+0x68>)
   d5102:	f002 fe5c 	bl	d7dbe <_ZN12Adafruit_GFX6heightEv>
   d5106:	b2b7      	uxth	r7, r6
   d5108:	007c      	lsls	r4, r7, #1
   d510a:	b2a4      	uxth	r4, r4
   d510c:	1b00      	subs	r0, r0, r4
   d510e:	f005 0201 	and.w	r2, r5, #1
   d5112:	ebc4 0309 	rsb	r3, r4, r9
   d5116:	b204      	sxth	r4, r0
   d5118:	4631      	mov	r1, r6
   d511a:	9201      	str	r2, [sp, #4]
   d511c:	b21b      	sxth	r3, r3
   d511e:	4632      	mov	r2, r6
   d5120:	4807      	ldr	r0, [pc, #28]	; (d5140 <_Z8fillrectv+0x68>)
   d5122:	9400      	str	r4, [sp, #0]
   d5124:	f002 f8d7 	bl	d72d6 <_ZN12Adafruit_GFX8fillRectEsssst>
    display.display();
    color++;
   d5128:	3501      	adds	r5, #1
  uint8_t color = 1;
  for (int16_t i = 0; i < display.height() / 2; i += 3)
  {
    // alternate colors
    display.fillRect(i, i, display.width() - i * 2, display.height() - i * 2, color % 2);
    display.display();
   d512a:	4805      	ldr	r0, [pc, #20]	; (d5140 <_Z8fillrectv+0x68>)
   d512c:	1cfe      	adds	r6, r7, #3
   d512e:	f003 f9f1 	bl	d8514 <_ZN16Adafruit_SSD13067displayEv>
    color++;
   d5132:	b2ed      	uxtb	r5, r5
   d5134:	b236      	sxth	r6, r6
void fillrect(void)
{
  clearScreen();

  uint8_t color = 1;
  for (int16_t i = 0; i < display.height() / 2; i += 3)
   d5136:	e7d7      	b.n	d50e8 <_Z8fillrectv+0x10>
    // alternate colors
    display.fillRect(i, i, display.width() - i * 2, display.height() - i * 2, color % 2);
    display.display();
    color++;
  }
}
   d5138:	b003      	add	sp, #12
   d513a:	e8bd 83f0 	ldmia.w	sp!, {r4, r5, r6, r7, r8, r9, pc}
   d513e:	bf00      	nop
   d5140:	2003e1ec 	.word	0x2003e1ec

000d5144 <_Z8drawrectv>:

void drawrect(void)
{
   d5144:	e92d 43f7 	stmdb	sp!, {r0, r1, r2, r4, r5, r6, r7, r8, r9, lr}
  clearScreen();
   d5148:	f000 f966 	bl	d5418 <_Z11clearScreenv>

  for (int16_t i = 0; i < display.height() / 2; i += 2)
   d514c:	2500      	movs	r5, #0
   d514e:	f04f 0802 	mov.w	r8, #2
  {
    display.drawRect(i, i, display.width() - 2 * i, display.height() - 2 * i, WHITE);
   d5152:	2701      	movs	r7, #1

void drawrect(void)
{
  clearScreen();

  for (int16_t i = 0; i < display.height() / 2; i += 2)
   d5154:	4813      	ldr	r0, [pc, #76]	; (d51a4 <_Z8drawrectv+0x60>)
   d5156:	f002 fe32 	bl	d7dbe <_ZN12Adafruit_GFX6heightEv>
   d515a:	fb90 f0f8 	sdiv	r0, r0, r8
   d515e:	b200      	sxth	r0, r0
   d5160:	4285      	cmp	r5, r0
   d5162:	da1b      	bge.n	d519c <_Z8drawrectv+0x58>
  {
    display.drawRect(i, i, display.width() - 2 * i, display.height() - 2 * i, WHITE);
   d5164:	480f      	ldr	r0, [pc, #60]	; (d51a4 <_Z8drawrectv+0x60>)
   d5166:	f002 fe27 	bl	d7db8 <_ZN12Adafruit_GFX5widthEv>
   d516a:	4681      	mov	r9, r0
   d516c:	480d      	ldr	r0, [pc, #52]	; (d51a4 <_Z8drawrectv+0x60>)
   d516e:	f002 fe26 	bl	d7dbe <_ZN12Adafruit_GFX6heightEv>
   d5172:	b2ae      	uxth	r6, r5
   d5174:	0074      	lsls	r4, r6, #1
   d5176:	b2a4      	uxth	r4, r4
   d5178:	1b00      	subs	r0, r0, r4
   d517a:	ebc4 0309 	rsb	r3, r4, r9
   d517e:	b204      	sxth	r4, r0
   d5180:	462a      	mov	r2, r5
   d5182:	4629      	mov	r1, r5
   d5184:	b21b      	sxth	r3, r3
   d5186:	4807      	ldr	r0, [pc, #28]	; (d51a4 <_Z8drawrectv+0x60>)
   d5188:	9701      	str	r7, [sp, #4]
   d518a:	9400      	str	r4, [sp, #0]
   d518c:	f002 f858 	bl	d7240 <_ZN12Adafruit_GFX8drawRectEsssst>
   d5190:	1cb5      	adds	r5, r6, #2
    display.display();
   d5192:	4804      	ldr	r0, [pc, #16]	; (d51a4 <_Z8drawrectv+0x60>)
   d5194:	f003 f9be 	bl	d8514 <_ZN16Adafruit_SSD13067displayEv>
   d5198:	b22d      	sxth	r5, r5

void drawrect(void)
{
  clearScreen();

  for (int16_t i = 0; i < display.height() / 2; i += 2)
   d519a:	e7db      	b.n	d5154 <_Z8drawrectv+0x10>
  {
    display.drawRect(i, i, display.width() - 2 * i, display.height() - 2 * i, WHITE);
    display.display();
  }
}
   d519c:	b003      	add	sp, #12
   d519e:	e8bd 83f0 	ldmia.w	sp!, {r4, r5, r6, r7, r8, r9, pc}
   d51a2:	bf00      	nop
   d51a4:	2003e1ec 	.word	0x2003e1ec

000d51a8 <_Z14drawRectanglesv>:

void drawRectangles()
{
   d51a8:	b510      	push	{r4, lr}
  appmode = 1;
   d51aa:	4c08      	ldr	r4, [pc, #32]	; (d51cc <_Z14drawRectanglesv+0x24>)
   d51ac:	2301      	movs	r3, #1
   d51ae:	7023      	strb	r3, [r4, #0]
  btnid = 0;
   d51b0:	4b07      	ldr	r3, [pc, #28]	; (d51d0 <_Z14drawRectanglesv+0x28>)
   d51b2:	2200      	movs	r2, #0
   d51b4:	701a      	strb	r2, [r3, #0]
  setupLEDButtonInterrupt();
   d51b6:	f001 fa55 	bl	d6664 <_Z23setupLEDButtonInterruptv>

  while (appmode)
   d51ba:	7823      	ldrb	r3, [r4, #0]
   d51bc:	b123      	cbz	r3, d51c8 <_Z14drawRectanglesv+0x20>
  {
    drawrect();
   d51be:	f7ff ffc1 	bl	d5144 <_Z8drawrectv>
    fillrect();
   d51c2:	f7ff ff89 	bl	d50d8 <_Z8fillrectv>
{
  appmode = 1;
  btnid = 0;
  setupLEDButtonInterrupt();

  while (appmode)
   d51c6:	e7f8      	b.n	d51ba <_Z14drawRectanglesv+0x12>
   d51c8:	bd10      	pop	{r4, pc}
   d51ca:	bf00      	nop
   d51cc:	2003e21a 	.word	0x2003e21a
   d51d0:	2003e22c 	.word	0x2003e22c

000d51d4 <_Z15cycleAnimationsv>:
    scrolltext();
  }
}

void cycleAnimations()
{
   d51d4:	b510      	push	{r4, lr}
  appmode = 1;
   d51d6:	4c3c      	ldr	r4, [pc, #240]	; (d52c8 <_Z15cycleAnimationsv+0xf4>)
   d51d8:	2301      	movs	r3, #1
   d51da:	7023      	strb	r3, [r4, #0]
  btnid = 0;
   d51dc:	4b3b      	ldr	r3, [pc, #236]	; (d52cc <_Z15cycleAnimationsv+0xf8>)
   d51de:	2200      	movs	r2, #0
   d51e0:	701a      	strb	r2, [r3, #0]
  setupLEDButtonInterrupt();
   d51e2:	f001 fa3f 	bl	d6664 <_Z23setupLEDButtonInterruptv>

  while (appmode)
   d51e6:	7823      	ldrb	r3, [r4, #0]
   d51e8:	2b00      	cmp	r3, #0
   d51ea:	d06b      	beq.n	d52c4 <_Z15cycleAnimationsv+0xf0>
  {
    clearScreen();
   d51ec:	f000 f914 	bl	d5418 <_Z11clearScreenv>

    // draw rectangles
    drawrect();
   d51f0:	f7ff ffa8 	bl	d5144 <_Z8drawrectv>
    display.display();
   d51f4:	4836      	ldr	r0, [pc, #216]	; (d52d0 <_Z15cycleAnimationsv+0xfc>)
   d51f6:	f003 f98d 	bl	d8514 <_ZN16Adafruit_SSD13067displayEv>
    delay(2000);
   d51fa:	f44f 60fa 	mov.w	r0, #2000	; 0x7d0
   d51fe:	f004 f867 	bl	d92d0 <delay>
    display.clearDisplay();
   d5202:	4833      	ldr	r0, [pc, #204]	; (d52d0 <_Z15cycleAnimationsv+0xfc>)
   d5204:	f003 f9fc 	bl	d8600 <_ZN16Adafruit_SSD130612clearDisplayEv>

    // draw multiple rectangles
    fillrect();
   d5208:	f7ff ff66 	bl	d50d8 <_Z8fillrectv>
    display.display();
   d520c:	4830      	ldr	r0, [pc, #192]	; (d52d0 <_Z15cycleAnimationsv+0xfc>)
   d520e:	f003 f981 	bl	d8514 <_ZN16Adafruit_SSD13067displayEv>
    delay(2000);
   d5212:	f44f 60fa 	mov.w	r0, #2000	; 0x7d0
   d5216:	f004 f85b 	bl	d92d0 <delay>
    display.clearDisplay();
   d521a:	482d      	ldr	r0, [pc, #180]	; (d52d0 <_Z15cycleAnimationsv+0xfc>)
   d521c:	f003 f9f0 	bl	d8600 <_ZN16Adafruit_SSD130612clearDisplayEv>

    // draw mulitple circles
    drawcircle();
   d5220:	f7ff fd4c 	bl	d4cbc <_Z10drawcirclev>
    display.display();
   d5224:	482a      	ldr	r0, [pc, #168]	; (d52d0 <_Z15cycleAnimationsv+0xfc>)
   d5226:	f003 f975 	bl	d8514 <_ZN16Adafruit_SSD13067displayEv>
    delay(2000);
   d522a:	f44f 60fa 	mov.w	r0, #2000	; 0x7d0
   d522e:	f004 f84f 	bl	d92d0 <delay>
    display.clearDisplay();
   d5232:	4827      	ldr	r0, [pc, #156]	; (d52d0 <_Z15cycleAnimationsv+0xfc>)
   d5234:	f003 f9e4 	bl	d8600 <_ZN16Adafruit_SSD130612clearDisplayEv>

    drawroundrect();
   d5238:	f7ff fe46 	bl	d4ec8 <_Z13drawroundrectv>
    delay(2000);
   d523c:	f44f 60fa 	mov.w	r0, #2000	; 0x7d0
   d5240:	f004 f846 	bl	d92d0 <delay>
    display.clearDisplay();
   d5244:	4822      	ldr	r0, [pc, #136]	; (d52d0 <_Z15cycleAnimationsv+0xfc>)
   d5246:	f003 f9db 	bl	d8600 <_ZN16Adafruit_SSD130612clearDisplayEv>

    fillroundrect();
   d524a:	f7ff fe7b 	bl	d4f44 <_Z13fillroundrectv>
    delay(2000);
   d524e:	f44f 60fa 	mov.w	r0, #2000	; 0x7d0
   d5252:	f004 f83d 	bl	d92d0 <delay>
    display.clearDisplay();
   d5256:	481e      	ldr	r0, [pc, #120]	; (d52d0 <_Z15cycleAnimationsv+0xfc>)
   d5258:	f003 f9d2 	bl	d8600 <_ZN16Adafruit_SSD130612clearDisplayEv>

    drawtriangle();
   d525c:	f7ff fd6a 	bl	d4d34 <_Z12drawtrianglev>
    delay(2000);
   d5260:	f44f 60fa 	mov.w	r0, #2000	; 0x7d0
   d5264:	f004 f834 	bl	d92d0 <delay>
    display.clearDisplay();
   d5268:	4819      	ldr	r0, [pc, #100]	; (d52d0 <_Z15cycleAnimationsv+0xfc>)
   d526a:	f003 f9c9 	bl	d8600 <_ZN16Adafruit_SSD130612clearDisplayEv>

    filltriangle();
   d526e:	f7ff fdb9 	bl	d4de4 <_Z12filltrianglev>
    delay(2000);
   d5272:	f44f 60fa 	mov.w	r0, #2000	; 0x7d0
   d5276:	f004 f82b 	bl	d92d0 <delay>
    display.clearDisplay();
   d527a:	4815      	ldr	r0, [pc, #84]	; (d52d0 <_Z15cycleAnimationsv+0xfc>)
   d527c:	f003 f9c0 	bl	d8600 <_ZN16Adafruit_SSD130612clearDisplayEv>

    // draw scrolling text
    scrolltext();
   d5280:	f7ff feba 	bl	d4ff8 <_Z10scrolltextv>
    delay(2000);
   d5284:	f44f 60fa 	mov.w	r0, #2000	; 0x7d0
   d5288:	f004 f822 	bl	d92d0 <delay>
    display.clearDisplay();
   d528c:	4810      	ldr	r0, [pc, #64]	; (d52d0 <_Z15cycleAnimationsv+0xfc>)
   d528e:	f003 f9b7 	bl	d8600 <_ZN16Adafruit_SSD130612clearDisplayEv>

    // invert the display
    display.invertDisplay(true);
   d5292:	2101      	movs	r1, #1
   d5294:	480e      	ldr	r0, [pc, #56]	; (d52d0 <_Z15cycleAnimationsv+0xfc>)
   d5296:	f003 f88f 	bl	d83b8 <_ZN16Adafruit_SSD130613invertDisplayEh>
    delay(1000);
   d529a:	f44f 707a 	mov.w	r0, #1000	; 0x3e8
   d529e:	f004 f817 	bl	d92d0 <delay>
    display.invertDisplay(false);
   d52a2:	2100      	movs	r1, #0
   d52a4:	480a      	ldr	r0, [pc, #40]	; (d52d0 <_Z15cycleAnimationsv+0xfc>)
   d52a6:	f003 f887 	bl	d83b8 <_ZN16Adafruit_SSD130613invertDisplayEh>
    delay(1000);
   d52aa:	f44f 707a 	mov.w	r0, #1000	; 0x3e8
   d52ae:	f004 f80f 	bl	d92d0 <delay>
    display.clearDisplay();
   d52b2:	4807      	ldr	r0, [pc, #28]	; (d52d0 <_Z15cycleAnimationsv+0xfc>)
   d52b4:	f003 f9a4 	bl	d8600 <_ZN16Adafruit_SSD130612clearDisplayEv>
    display.display();
   d52b8:	4805      	ldr	r0, [pc, #20]	; (d52d0 <_Z15cycleAnimationsv+0xfc>)
   d52ba:	f003 f92b 	bl	d8514 <_ZN16Adafruit_SSD13067displayEv>

    snowflakes();
   d52be:	f7ff fcf1 	bl	d4ca4 <_Z10snowflakesv>
{
  appmode = 1;
  btnid = 0;
  setupLEDButtonInterrupt();

  while (appmode)
   d52c2:	e790      	b.n	d51e6 <_Z15cycleAnimationsv+0x12>
   d52c4:	bd10      	pop	{r4, pc}
   d52c6:	bf00      	nop
   d52c8:	2003e21a 	.word	0x2003e21a
   d52cc:	2003e22c 	.word	0x2003e22c
   d52d0:	2003e1ec 	.word	0x2003e1ec

000d52d4 <_Z11showSpectrav>:
  display.display();
  display.startscrolldiagright(0x00, 0x07);
}

void showSpectra()
{
   d52d4:	b51f      	push	{r0, r1, r2, r3, r4, lr}
  display.clearDisplay();
   d52d6:	4c11      	ldr	r4, [pc, #68]	; (d531c <_Z11showSpectrav+0x48>)
   d52d8:	4620      	mov	r0, r4
   d52da:	f003 f991 	bl	d8600 <_ZN16Adafruit_SSD130612clearDisplayEv>
  display.display();
   d52de:	4620      	mov	r0, r4
   d52e0:	f003 f918 	bl	d8514 <_ZN16Adafruit_SSD13067displayEv>
  display.setCursor(0, 0);
   d52e4:	2200      	movs	r2, #0
   d52e6:	4611      	mov	r1, r2
   d52e8:	4620      	mov	r0, r4
   d52ea:	f002 fd56 	bl	d7d9a <_ZN12Adafruit_GFX9setCursorEss>
  display.drawBitmap(0, 0, spectraLogo, 128, 64, 1);
   d52ee:	2180      	movs	r1, #128	; 0x80
   d52f0:	2240      	movs	r2, #64	; 0x40
   d52f2:	2301      	movs	r3, #1
   d52f4:	e88d 000e 	stmia.w	sp, {r1, r2, r3}
   d52f8:	2200      	movs	r2, #0
   d52fa:	4611      	mov	r1, r2
   d52fc:	4b08      	ldr	r3, [pc, #32]	; (d5320 <_Z11showSpectrav+0x4c>)
   d52fe:	4620      	mov	r0, r4
   d5300:	f002 fc3e 	bl	d7b80 <_ZN12Adafruit_GFX10drawBitmapEssPKhsst>
  display.display();
   d5304:	4620      	mov	r0, r4
   d5306:	f003 f905 	bl	d8514 <_ZN16Adafruit_SSD13067displayEv>
  display.startscrollleft(0x00, 0x0F);
   d530a:	220f      	movs	r2, #15
   d530c:	2100      	movs	r1, #0
   d530e:	4620      	mov	r0, r4
}
   d5310:	b004      	add	sp, #16
   d5312:	e8bd 4010 	ldmia.w	sp!, {r4, lr}
  display.clearDisplay();
  display.display();
  display.setCursor(0, 0);
  display.drawBitmap(0, 0, spectraLogo, 128, 64, 1);
  display.display();
  display.startscrollleft(0x00, 0x0F);
   d5316:	f003 b87a 	b.w	d840e <_ZN16Adafruit_SSD130615startscrollleftEhh>
   d531a:	bf00      	nop
   d531c:	2003e1ec 	.word	0x2003e1ec
   d5320:	000dc483 	.word	0x000dc483

000d5324 <_Z9showTitlev>:
  display.startscrollleft(0x00, 0x0F);
}

// Show the title text on the display
void showTitle()
{
   d5324:	b510      	push	{r4, lr}
  display.clearDisplay();
   d5326:	4c13      	ldr	r4, [pc, #76]	; (d5374 <_Z9showTitlev+0x50>)
   d5328:	4620      	mov	r0, r4
   d532a:	f003 f969 	bl	d8600 <_ZN16Adafruit_SSD130612clearDisplayEv>
  display.setTextWrap(true);
   d532e:	4620      	mov	r0, r4
   d5330:	2101      	movs	r1, #1
   d5332:	f002 fd3d 	bl	d7db0 <_ZN12Adafruit_GFX11setTextWrapEb>
  display.setTextColor(WHITE);
   d5336:	4620      	mov	r0, r4
   d5338:	2101      	movs	r1, #1
   d533a:	f002 fd36 	bl	d7daa <_ZN12Adafruit_GFX12setTextColorEt>
  display.setTextSize(2);
   d533e:	4620      	mov	r0, r4
   d5340:	2102      	movs	r1, #2
   d5342:	f002 fd2d 	bl	d7da0 <_ZN12Adafruit_GFX11setTextSizeEh>

  display.setCursor(1, 18);
   d5346:	2212      	movs	r2, #18
   d5348:	4620      	mov	r0, r4
   d534a:	2101      	movs	r1, #1
   d534c:	f002 fd25 	bl	d7d9a <_ZN12Adafruit_GFX9setCursorEss>
  display.println("PartiBadge");
   d5350:	4909      	ldr	r1, [pc, #36]	; (d5378 <_Z9showTitlev+0x54>)
   d5352:	4620      	mov	r0, r4
   d5354:	f004 fdaf 	bl	d9eb6 <_ZN5Print7printlnEPKc>
  display.setCursor(0, 35);
   d5358:	4620      	mov	r0, r4
   d535a:	2223      	movs	r2, #35	; 0x23
   d535c:	2100      	movs	r1, #0
   d535e:	f002 fd1c 	bl	d7d9a <_ZN12Adafruit_GFX9setCursorEss>
  display.println("Spectra 18");
   d5362:	4620      	mov	r0, r4
   d5364:	4905      	ldr	r1, [pc, #20]	; (d537c <_Z9showTitlev+0x58>)
   d5366:	f004 fda6 	bl	d9eb6 <_ZN5Print7printlnEPKc>
  display.display();
   d536a:	4620      	mov	r0, r4
}
   d536c:	e8bd 4010 	ldmia.w	sp!, {r4, lr}

  display.setCursor(1, 18);
  display.println("PartiBadge");
  display.setCursor(0, 35);
  display.println("Spectra 18");
  display.display();
   d5370:	f003 b8d0 	b.w	d8514 <_ZN16Adafruit_SSD13067displayEv>
   d5374:	2003e1ec 	.word	0x2003e1ec
   d5378:	000dc883 	.word	0x000dc883
   d537c:	000dc88e 	.word	0x000dc88e

000d5380 <_Z15displayCarouselv>:
int funcArraySize = sizeof(carouselFuncs) / sizeof(carouselFuncs[0]);
int currentFunc = 0;
unsigned long prevCarouselRotation;

void displayCarousel()
{
   d5380:	b570      	push	{r4, r5, r6, lr}
  unsigned long currentMillis = millis();

  if (!displayingCarousel)
   d5382:	4d15      	ldr	r5, [pc, #84]	; (d53d8 <_Z15displayCarouselv+0x58>)
   d5384:	4c15      	ldr	r4, [pc, #84]	; (d53dc <_Z15displayCarouselv+0x5c>)
   d5386:	f003 fca3 	bl	d8cd0 <HAL_Timer_Get_Milli_Seconds>
   d538a:	782b      	ldrb	r3, [r5, #0]
   d538c:	b963      	cbnz	r3, d53a8 <_Z15displayCarouselv+0x28>
  {
    currentFunc = 0;
   d538e:	4e14      	ldr	r6, [pc, #80]	; (d53e0 <_Z15displayCarouselv+0x60>)
   d5390:	6033      	str	r3, [r6, #0]
   d5392:	f003 fc9d 	bl	d8cd0 <HAL_Timer_Get_Milli_Seconds>
    prevCarouselRotation = millis();
    carouselFuncs[currentFunc]();
   d5396:	6832      	ldr	r2, [r6, #0]
   d5398:	4b12      	ldr	r3, [pc, #72]	; (d53e4 <_Z15displayCarouselv+0x64>)
  unsigned long currentMillis = millis();

  if (!displayingCarousel)
  {
    currentFunc = 0;
    prevCarouselRotation = millis();
   d539a:	6020      	str	r0, [r4, #0]
    carouselFuncs[currentFunc]();
   d539c:	f853 3022 	ldr.w	r3, [r3, r2, lsl #2]
   d53a0:	4798      	blx	r3
    displayingCarousel = true;
   d53a2:	2301      	movs	r3, #1
   d53a4:	702b      	strb	r3, [r5, #0]
   d53a6:	bd70      	pop	{r4, r5, r6, pc}
  }
  else if (currentMillis - prevCarouselRotation > CAROUSEL_INTERVAL)
   d53a8:	6823      	ldr	r3, [r4, #0]
   d53aa:	f242 7210 	movw	r2, #10000	; 0x2710
   d53ae:	1ac3      	subs	r3, r0, r3
   d53b0:	4293      	cmp	r3, r2
   d53b2:	d90f      	bls.n	d53d4 <_Z15displayCarouselv+0x54>
  {
    prevCarouselRotation = currentMillis;
   d53b4:	6020      	str	r0, [r4, #0]
    carouselFuncs[currentFunc]();
   d53b6:	4c0a      	ldr	r4, [pc, #40]	; (d53e0 <_Z15displayCarouselv+0x60>)
   d53b8:	4b0a      	ldr	r3, [pc, #40]	; (d53e4 <_Z15displayCarouselv+0x64>)
   d53ba:	6822      	ldr	r2, [r4, #0]
   d53bc:	f853 3022 	ldr.w	r3, [r3, r2, lsl #2]
   d53c0:	4798      	blx	r3
    currentFunc++;

    if (currentFunc == funcArraySize)
   d53c2:	4a09      	ldr	r2, [pc, #36]	; (d53e8 <_Z15displayCarouselv+0x68>)
  }
  else if (currentMillis - prevCarouselRotation > CAROUSEL_INTERVAL)
  {
    prevCarouselRotation = currentMillis;
    carouselFuncs[currentFunc]();
    currentFunc++;
   d53c4:	6823      	ldr	r3, [r4, #0]

    if (currentFunc == funcArraySize)
   d53c6:	6812      	ldr	r2, [r2, #0]
  }
  else if (currentMillis - prevCarouselRotation > CAROUSEL_INTERVAL)
  {
    prevCarouselRotation = currentMillis;
    carouselFuncs[currentFunc]();
    currentFunc++;
   d53c8:	3301      	adds	r3, #1

    if (currentFunc == funcArraySize)
   d53ca:	4293      	cmp	r3, r2
  }
  else if (currentMillis - prevCarouselRotation > CAROUSEL_INTERVAL)
  {
    prevCarouselRotation = currentMillis;
    carouselFuncs[currentFunc]();
    currentFunc++;
   d53cc:	6023      	str	r3, [r4, #0]

    if (currentFunc == funcArraySize)
    {
      currentFunc = 0;
   d53ce:	bf04      	itt	eq
   d53d0:	2300      	moveq	r3, #0
   d53d2:	6023      	streq	r3, [r4, #0]
   d53d4:	bd70      	pop	{r4, r5, r6, pc}
   d53d6:	bf00      	nop
   d53d8:	2003e269 	.word	0x2003e269
   d53dc:	2003e274 	.word	0x2003e274
   d53e0:	2003e26c 	.word	0x2003e26c
   d53e4:	2003d830 	.word	0x2003d830
   d53e8:	2003d82c 	.word	0x2003d82c

000d53ec <_Z17resetDisplayBoolsv>:
}

// Reset all display-related state booleans
void resetDisplayBools()
{
  displayingTemp = false;
   d53ec:	4a05      	ldr	r2, [pc, #20]	; (d5404 <_Z17resetDisplayBoolsv+0x18>)
   d53ee:	2300      	movs	r3, #0
   d53f0:	7013      	strb	r3, [r2, #0]
  displayingWearerDetails = false;
   d53f2:	4a05      	ldr	r2, [pc, #20]	; (d5408 <_Z17resetDisplayBoolsv+0x1c>)
   d53f4:	7013      	strb	r3, [r2, #0]
  displayingCarousel = false;
   d53f6:	4a05      	ldr	r2, [pc, #20]	; (d540c <_Z17resetDisplayBoolsv+0x20>)
   d53f8:	7013      	strb	r3, [r2, #0]
  displayingBattery = false;
   d53fa:	4a05      	ldr	r2, [pc, #20]	; (d5410 <_Z17resetDisplayBoolsv+0x24>)
   d53fc:	7013      	strb	r3, [r2, #0]
  showingLightAnimation = false;
   d53fe:	4a05      	ldr	r2, [pc, #20]	; (d5414 <_Z17resetDisplayBoolsv+0x28>)
   d5400:	7013      	strb	r3, [r2, #0]
   d5402:	4770      	bx	lr
   d5404:	2003e268 	.word	0x2003e268
   d5408:	2003e270 	.word	0x2003e270
   d540c:	2003e269 	.word	0x2003e269
   d5410:	2003e272 	.word	0x2003e272
   d5414:	2003e271 	.word	0x2003e271

000d5418 <_Z11clearScreenv>:
}

// Clear the OLED display
void clearScreen()
{
   d5418:	b510      	push	{r4, lr}
  display.stopscroll();
   d541a:	4c0a      	ldr	r4, [pc, #40]	; (d5444 <_Z11clearScreenv+0x2c>)
   d541c:	4620      	mov	r0, r4
   d541e:	f003 f875 	bl	d850c <_ZN16Adafruit_SSD130610stopscrollEv>
  display.clearDisplay();
   d5422:	4620      	mov	r0, r4
   d5424:	f003 f8ec 	bl	d8600 <_ZN16Adafruit_SSD130612clearDisplayEv>
  display.display();
   d5428:	4620      	mov	r0, r4
   d542a:	f003 f873 	bl	d8514 <_ZN16Adafruit_SSD13067displayEv>
  display.setCursor(0, 0);
   d542e:	2200      	movs	r2, #0
   d5430:	4620      	mov	r0, r4
   d5432:	4611      	mov	r1, r2
   d5434:	f002 fcb1 	bl	d7d9a <_ZN12Adafruit_GFX9setCursorEss>
  display.setTextWrap(true);
   d5438:	4620      	mov	r0, r4
   d543a:	2101      	movs	r1, #1
}
   d543c:	e8bd 4010 	ldmia.w	sp!, {r4, lr}
{
  display.stopscroll();
  display.clearDisplay();
  display.display();
  display.setCursor(0, 0);
  display.setTextWrap(true);
   d5440:	f002 bcb6 	b.w	d7db0 <_ZN12Adafruit_GFX11setTextWrapEb>
   d5444:	2003e1ec 	.word	0x2003e1ec

000d5448 <_Z20displayWearerDetailsv>:
  delay(2000);
}

// Display the wearer's first and last name on the display
void displayWearerDetails()
{
   d5448:	b5f8      	push	{r3, r4, r5, r6, r7, lr}
  displayingWearerDetails = true;
   d544a:	4b28      	ldr	r3, [pc, #160]	; (d54ec <_Z20displayWearerDetailsv+0xa4>)
   d544c:	4928      	ldr	r1, [pc, #160]	; (d54f0 <_Z20displayWearerDetailsv+0xa8>)
   d544e:	2201      	movs	r2, #1
   d5450:	701a      	strb	r2, [r3, #0]
   d5452:	4a28      	ldr	r2, [pc, #160]	; (d54f4 <_Z20displayWearerDetailsv+0xac>)

  int fnameLength = wearerFirstName.length();
   d5454:	6888      	ldr	r0, [r1, #8]
  int lnameLength = wearerLastName.length();
   d5456:	6893      	ldr	r3, [r2, #8]
   d5458:	4298      	cmp	r0, r3
   d545a:	4607      	mov	r7, r0
   d545c:	bfb8      	it	lt
   d545e:	461f      	movlt	r7, r3
  int longestLength = ((fnameLength > lnameLength) ? fnameLength : lnameLength);

  if (fnameLength > 0 || lnameLength > 0)
   d5460:	2800      	cmp	r0, #0
   d5462:	460e      	mov	r6, r1
   d5464:	4615      	mov	r5, r2
   d5466:	dc01      	bgt.n	d546c <_Z20displayWearerDetailsv+0x24>
   d5468:	2b00      	cmp	r3, #0
   d546a:	dd3d      	ble.n	d54e8 <_Z20displayWearerDetailsv+0xa0>
  {
    clearScreen();
   d546c:	f7ff ffd4 	bl	d5418 <_Z11clearScreenv>
   d5470:	4b21      	ldr	r3, [pc, #132]	; (d54f8 <_Z20displayWearerDetailsv+0xb0>)
    //put Twitter info up in yellow band area
    if (wearerTwitter.length() > 10)
   d5472:	689a      	ldr	r2, [r3, #8]
   d5474:	2a0a      	cmp	r2, #10
   d5476:	461c      	mov	r4, r3
   d5478:	d903      	bls.n	d5482 <_Z20displayWearerDetailsv+0x3a>
    {
      display.setTextSize(1);
   d547a:	2101      	movs	r1, #1
   d547c:	481f      	ldr	r0, [pc, #124]	; (d54fc <_Z20displayWearerDetailsv+0xb4>)
   d547e:	f002 fc8f 	bl	d7da0 <_ZN12Adafruit_GFX11setTextSizeEh>
    }
    if (wearerTwitter.length() > 0)
   d5482:	68a3      	ldr	r3, [r4, #8]
   d5484:	b123      	cbz	r3, d5490 <_Z20displayWearerDetailsv+0x48>
    {
      display.println(wearerTwitter);
   d5486:	4b1c      	ldr	r3, [pc, #112]	; (d54f8 <_Z20displayWearerDetailsv+0xb0>)
   d5488:	481c      	ldr	r0, [pc, #112]	; (d54fc <_Z20displayWearerDetailsv+0xb4>)
   d548a:	6819      	ldr	r1, [r3, #0]
   d548c:	f004 fd13 	bl	d9eb6 <_ZN5Print7printlnEPKc>

    // setTextSize based on largest of two lengths
    // Display is 128 x 64
    // So if the longest of the two names is longer than 10 characters,
    // set the size to 1
    if (longestLength > 10)
   d5490:	2f0a      	cmp	r7, #10
   d5492:	dd05      	ble.n	d54a0 <_Z20displayWearerDetailsv+0x58>
    {
      display.setTextSize(1);
   d5494:	2101      	movs	r1, #1
   d5496:	4819      	ldr	r0, [pc, #100]	; (d54fc <_Z20displayWearerDetailsv+0xb4>)
   d5498:	f002 fc82 	bl	d7da0 <_ZN12Adafruit_GFX11setTextSizeEh>
      display.setCursor(0, 20);
   d549c:	2214      	movs	r2, #20
   d549e:	e004      	b.n	d54aa <_Z20displayWearerDetailsv+0x62>
    }
    else
    {
      display.setTextSize(2);
   d54a0:	2102      	movs	r1, #2
   d54a2:	4816      	ldr	r0, [pc, #88]	; (d54fc <_Z20displayWearerDetailsv+0xb4>)
   d54a4:	f002 fc7c 	bl	d7da0 <_ZN12Adafruit_GFX11setTextSizeEh>
      display.setCursor(0, 10);
   d54a8:	220a      	movs	r2, #10
   d54aa:	2100      	movs	r1, #0
   d54ac:	4813      	ldr	r0, [pc, #76]	; (d54fc <_Z20displayWearerDetailsv+0xb4>)
   d54ae:	f002 fc74 	bl	d7d9a <_ZN12Adafruit_GFX9setCursorEss>
    }

    display.println();
   d54b2:	4812      	ldr	r0, [pc, #72]	; (d54fc <_Z20displayWearerDetailsv+0xb4>)
   d54b4:	f004 fcf3 	bl	d9e9e <_ZN5Print7printlnEv>

    if (wearerFirstName.length() > 0)
   d54b8:	68b3      	ldr	r3, [r6, #8]
   d54ba:	b123      	cbz	r3, d54c6 <_Z20displayWearerDetailsv+0x7e>
    {
      display.println(wearerFirstName);
   d54bc:	4b0c      	ldr	r3, [pc, #48]	; (d54f0 <_Z20displayWearerDetailsv+0xa8>)
   d54be:	480f      	ldr	r0, [pc, #60]	; (d54fc <_Z20displayWearerDetailsv+0xb4>)
   d54c0:	6819      	ldr	r1, [r3, #0]
   d54c2:	f004 fcf8 	bl	d9eb6 <_ZN5Print7printlnEPKc>
    }
    if (wearerLastName.length() > 0)
   d54c6:	68ab      	ldr	r3, [r5, #8]
   d54c8:	b123      	cbz	r3, d54d4 <_Z20displayWearerDetailsv+0x8c>
    {
      display.println(wearerLastName);
   d54ca:	4b0a      	ldr	r3, [pc, #40]	; (d54f4 <_Z20displayWearerDetailsv+0xac>)
   d54cc:	480b      	ldr	r0, [pc, #44]	; (d54fc <_Z20displayWearerDetailsv+0xb4>)
   d54ce:	6819      	ldr	r1, [r3, #0]
   d54d0:	f004 fcf1 	bl	d9eb6 <_ZN5Print7printlnEPKc>
    }

    display.display();
   d54d4:	4809      	ldr	r0, [pc, #36]	; (d54fc <_Z20displayWearerDetailsv+0xb4>)
   d54d6:	f003 f81d 	bl	d8514 <_ZN16Adafruit_SSD13067displayEv>
    display.startscrollleft(0x00, 0x0F);
   d54da:	220f      	movs	r2, #15
   d54dc:	2100      	movs	r1, #0
   d54de:	4807      	ldr	r0, [pc, #28]	; (d54fc <_Z20displayWearerDetailsv+0xb4>)
  }
}
   d54e0:	e8bd 40f8 	ldmia.w	sp!, {r3, r4, r5, r6, r7, lr}
    {
      display.println(wearerLastName);
    }

    display.display();
    display.startscrollleft(0x00, 0x0F);
   d54e4:	f002 bf93 	b.w	d840e <_ZN16Adafruit_SSD130615startscrollleftEhh>
   d54e8:	bdf8      	pop	{r3, r4, r5, r6, r7, pc}
   d54ea:	bf00      	nop
   d54ec:	2003e270 	.word	0x2003e270
   d54f0:	2003e144 	.word	0x2003e144
   d54f4:	2003e1d4 	.word	0x2003e1d4
   d54f8:	2003e134 	.word	0x2003e134
   d54fc:	2003e1ec 	.word	0x2003e1ec

000d5500 <_Z19showTempAndHumidityv>:
  displayingBattery = true;
}

// Show the temperature and humidity on the display
void showTempAndHumidity()
{
   d5500:	b57f      	push	{r0, r1, r2, r3, r4, r5, r6, lr}
  clearScreen();

  display.drawBitmap(7, 18, tempImage, 16, 43, 1);
   d5502:	4c32      	ldr	r4, [pc, #200]	; (d55cc <_Z19showTempAndHumidityv+0xcc>)
}

// Show the temperature and humidity on the display
void showTempAndHumidity()
{
  clearScreen();
   d5504:	f7ff ff88 	bl	d5418 <_Z11clearScreenv>

  display.drawBitmap(7, 18, tempImage, 16, 43, 1);
   d5508:	2501      	movs	r5, #1
   d550a:	2610      	movs	r6, #16
   d550c:	232b      	movs	r3, #43	; 0x2b
   d550e:	9301      	str	r3, [sp, #4]
   d5510:	2212      	movs	r2, #18
   d5512:	4b2f      	ldr	r3, [pc, #188]	; (d55d0 <_Z19showTempAndHumidityv+0xd0>)
   d5514:	9502      	str	r5, [sp, #8]
   d5516:	4620      	mov	r0, r4
   d5518:	9600      	str	r6, [sp, #0]
   d551a:	2107      	movs	r1, #7
   d551c:	f002 fb30 	bl	d7b80 <_ZN12Adafruit_GFX10drawBitmapEssPKhsst>
  display.setTextSize(1);
   d5520:	4629      	mov	r1, r5
   d5522:	4620      	mov	r0, r4
   d5524:	f002 fc3c 	bl	d7da0 <_ZN12Adafruit_GFX11setTextSizeEh>
  display.setCursor(52, 16);
   d5528:	4632      	mov	r2, r6
   d552a:	4620      	mov	r0, r4
   d552c:	2134      	movs	r1, #52	; 0x34
   d552e:	f002 fc34 	bl	d7d9a <_ZN12Adafruit_GFX9setCursorEss>
  display.println("Temp");
   d5532:	4928      	ldr	r1, [pc, #160]	; (d55d4 <_Z19showTempAndHumidityv+0xd4>)
   d5534:	4620      	mov	r0, r4
   d5536:	f004 fcbe 	bl	d9eb6 <_ZN5Print7printlnEPKc>
  display.setTextSize(2);
   d553a:	4620      	mov	r0, r4
   d553c:	2102      	movs	r1, #2
   d553e:	f002 fc2f 	bl	d7da0 <_ZN12Adafruit_GFX11setTextSizeEh>
  display.setCursor(48, 25);
   d5542:	4620      	mov	r0, r4
   d5544:	2219      	movs	r2, #25
   d5546:	2130      	movs	r1, #48	; 0x30
   d5548:	f002 fc27 	bl	d7d9a <_ZN12Adafruit_GFX9setCursorEss>
  display.print((int)currentTemp);
   d554c:	4b22      	ldr	r3, [pc, #136]	; (d55d8 <_Z19showTempAndHumidityv+0xd8>)
   d554e:	220a      	movs	r2, #10
   d5550:	6819      	ldr	r1, [r3, #0]
   d5552:	4620      	mov	r0, r4
   d5554:	f004 fd0a 	bl	d9f6c <_ZN5Print5printEii>
  display.println("f");
   d5558:	4920      	ldr	r1, [pc, #128]	; (d55dc <_Z19showTempAndHumidityv+0xdc>)
   d555a:	4620      	mov	r0, r4
   d555c:	f004 fcab 	bl	d9eb6 <_ZN5Print7printlnEPKc>
  display.setTextSize(1);
   d5560:	4629      	mov	r1, r5
   d5562:	4620      	mov	r0, r4
   d5564:	f002 fc1c 	bl	d7da0 <_ZN12Adafruit_GFX11setTextSizeEh>
  display.setCursor(42, 42);
   d5568:	222a      	movs	r2, #42	; 0x2a
   d556a:	4611      	mov	r1, r2
   d556c:	4620      	mov	r0, r4
   d556e:	f002 fc14 	bl	d7d9a <_ZN12Adafruit_GFX9setCursorEss>
  display.println("Humidity");
   d5572:	491b      	ldr	r1, [pc, #108]	; (d55e0 <_Z19showTempAndHumidityv+0xe0>)
   d5574:	4620      	mov	r0, r4
   d5576:	f004 fc9e 	bl	d9eb6 <_ZN5Print7printlnEPKc>
  display.setTextSize(2);
   d557a:	4620      	mov	r0, r4
   d557c:	2102      	movs	r1, #2
   d557e:	f002 fc0f 	bl	d7da0 <_ZN12Adafruit_GFX11setTextSizeEh>
  display.setCursor(48, 50);
   d5582:	4620      	mov	r0, r4
   d5584:	2232      	movs	r2, #50	; 0x32
   d5586:	2130      	movs	r1, #48	; 0x30
   d5588:	f002 fc07 	bl	d7d9a <_ZN12Adafruit_GFX9setCursorEss>
  display.print((int)currentHumidity);
   d558c:	4b15      	ldr	r3, [pc, #84]	; (d55e4 <_Z19showTempAndHumidityv+0xe4>)
   d558e:	220a      	movs	r2, #10
   d5590:	6819      	ldr	r1, [r3, #0]
   d5592:	4620      	mov	r0, r4
   d5594:	f004 fcea 	bl	d9f6c <_ZN5Print5printEii>
  display.println("%");
   d5598:	4913      	ldr	r1, [pc, #76]	; (d55e8 <_Z19showTempAndHumidityv+0xe8>)
   d559a:	4620      	mov	r0, r4
   d559c:	f004 fc8b 	bl	d9eb6 <_ZN5Print7printlnEPKc>
  display.drawBitmap(105, 28, humidityImage, 20, 27, 1);
   d55a0:	2214      	movs	r2, #20
   d55a2:	231b      	movs	r3, #27
   d55a4:	e88d 000c 	stmia.w	sp, {r2, r3}
   d55a8:	2169      	movs	r1, #105	; 0x69
   d55aa:	4b10      	ldr	r3, [pc, #64]	; (d55ec <_Z19showTempAndHumidityv+0xec>)
   d55ac:	9502      	str	r5, [sp, #8]
   d55ae:	221c      	movs	r2, #28
   d55b0:	4620      	mov	r0, r4
   d55b2:	f002 fae5 	bl	d7b80 <_ZN12Adafruit_GFX10drawBitmapEssPKhsst>
  display.display();
   d55b6:	4620      	mov	r0, r4
   d55b8:	f002 ffac 	bl	d8514 <_ZN16Adafruit_SSD13067displayEv>
  display.setTextSize(1);
   d55bc:	4629      	mov	r1, r5
   d55be:	4620      	mov	r0, r4
   d55c0:	f002 fbee 	bl	d7da0 <_ZN12Adafruit_GFX11setTextSizeEh>

  displayingTemp = true;
   d55c4:	4b0a      	ldr	r3, [pc, #40]	; (d55f0 <_Z19showTempAndHumidityv+0xf0>)
   d55c6:	701d      	strb	r5, [r3, #0]
}
   d55c8:	b004      	add	sp, #16
   d55ca:	bd70      	pop	{r4, r5, r6, pc}
   d55cc:	2003e1ec 	.word	0x2003e1ec
   d55d0:	000dc2bc 	.word	0x000dc2bc
   d55d4:	000dc279 	.word	0x000dc279
   d55d8:	2003e1d0 	.word	0x2003e1d0
   d55dc:	000dc899 	.word	0x000dc899
   d55e0:	000dc89b 	.word	0x000dc89b
   d55e4:	2003e154 	.word	0x2003e154
   d55e8:	000dc8a4 	.word	0x000dc8a4
   d55ec:	000dc432 	.word	0x000dc432
   d55f0:	2003e268 	.word	0x2003e268

000d55f4 <_Z9showSparkv>:

void showSpark()
{
   d55f4:	b51f      	push	{r0, r1, r2, r3, r4, lr}
  clearScreen();
  display.drawBitmap(0, 16, sparkLogo, 128, 48, 1);
   d55f6:	4c0c      	ldr	r4, [pc, #48]	; (d5628 <_Z9showSparkv+0x34>)
  displayingTemp = true;
}

void showSpark()
{
  clearScreen();
   d55f8:	f7ff ff0e 	bl	d5418 <_Z11clearScreenv>
  display.drawBitmap(0, 16, sparkLogo, 128, 48, 1);
   d55fc:	2180      	movs	r1, #128	; 0x80
   d55fe:	2230      	movs	r2, #48	; 0x30
   d5600:	2301      	movs	r3, #1
   d5602:	e88d 000e 	stmia.w	sp, {r1, r2, r3}
   d5606:	4620      	mov	r0, r4
   d5608:	4b08      	ldr	r3, [pc, #32]	; (d562c <_Z9showSparkv+0x38>)
   d560a:	2210      	movs	r2, #16
   d560c:	2100      	movs	r1, #0
   d560e:	f002 fab7 	bl	d7b80 <_ZN12Adafruit_GFX10drawBitmapEssPKhsst>
  display.display();
   d5612:	4620      	mov	r0, r4
   d5614:	f002 ff7e 	bl	d8514 <_ZN16Adafruit_SSD13067displayEv>
  display.startscrollleft(0x00, 0x0F);
   d5618:	220f      	movs	r2, #15
   d561a:	2100      	movs	r1, #0
   d561c:	4620      	mov	r0, r4
}
   d561e:	b004      	add	sp, #16
   d5620:	e8bd 4010 	ldmia.w	sp!, {r4, lr}
void showSpark()
{
  clearScreen();
  display.drawBitmap(0, 16, sparkLogo, 128, 48, 1);
  display.display();
  display.startscrollleft(0x00, 0x0F);
   d5624:	f002 bef3 	b.w	d840e <_ZN16Adafruit_SSD130615startscrollleftEhh>
   d5628:	2003e1ec 	.word	0x2003e1ec
   d562c:	000dd143 	.word	0x000dd143

000d5630 <_Z10getCenterXPKci>:
  display.setCursor(0, 0);
  display.setTextWrap(true);
}

int getCenterX(const char text[], int textSize)
{
   d5630:	b510      	push	{r4, lr}
   d5632:	460c      	mov	r4, r1
  int textWidth = strlen(text) * 9 * textSize;
   d5634:	f006 fc61 	bl	dbefa <strlen>

  return 64 - (textWidth / 2);
   d5638:	eb04 04c4 	add.w	r4, r4, r4, lsl #3
   d563c:	4344      	muls	r4, r0
   d563e:	2002      	movs	r0, #2
   d5640:	fb94 f0f0 	sdiv	r0, r4, r0
}
   d5644:	f1c0 0040 	rsb	r0, r0, #64	; 0x40
   d5648:	bd10      	pop	{r4, pc}
	...

000d564c <_Z19messageBoxWithArrayPPKcii>:

void messageBoxWithArray(const char *textStrings[], int arrayLen, int textSize)
{
   d564c:	e92d 4ff7 	stmdb	sp!, {r0, r1, r2, r4, r5, r6, r7, r8, r9, sl, fp, lr}
  int textHeight = 12;
  int y = textSize == 1 ? 64 / arrayLen : 18;
   d5650:	2a01      	cmp	r2, #1

  return 64 - (textWidth / 2);
}

void messageBoxWithArray(const char *textStrings[], int arrayLen, int textSize)
{
   d5652:	4615      	mov	r5, r2
   d5654:	4606      	mov	r6, r0
  int textHeight = 12;
  int y = textSize == 1 ? 64 / arrayLen : 18;
   d5656:	bf08      	it	eq
   d5658:	f04f 0940 	moveq.w	r9, #64	; 0x40

  return 64 - (textWidth / 2);
}

void messageBoxWithArray(const char *textStrings[], int arrayLen, int textSize)
{
   d565c:	468a      	mov	sl, r1
  int textHeight = 12;
  int y = textSize == 1 ? 64 / arrayLen : 18;
   d565e:	bf0c      	ite	eq
   d5660:	fb99 f9f1 	sdiveq	r9, r9, r1
   d5664:	f04f 0912 	movne.w	r9, #18
  clearScreen();
   d5668:	f7ff fed6 	bl	d5418 <_Z11clearScreenv>
  display.setTextSize(textSize);
   d566c:	b2e9      	uxtb	r1, r5
   d566e:	4818      	ldr	r0, [pc, #96]	; (d56d0 <_Z19messageBoxWithArrayPPKcii+0x84>)
   d5670:	eb05 0745 	add.w	r7, r5, r5, lsl #1
   d5674:	f002 fb94 	bl	d7da0 <_ZN12Adafruit_GFX11setTextSizeEh>
   d5678:	00bf      	lsls	r7, r7, #2

  for (int i = 0; i < arrayLen; i++)
  {
    int x = getCenterX(textStrings[i], textSize);

    display.setCursor(x + (15 / textSize) + i, y + textHeight * i * textSize);
   d567a:	2400      	movs	r4, #0
   d567c:	b2bf      	uxth	r7, r7
   d567e:	3e04      	subs	r6, #4
  int textHeight = 12;
  int y = textSize == 1 ? 64 / arrayLen : 18;
  clearScreen();
  display.setTextSize(textSize);

  for (int i = 0; i < arrayLen; i++)
   d5680:	46a0      	mov	r8, r4
  {
    int x = getCenterX(textStrings[i], textSize);

    display.setCursor(x + (15 / textSize) + i, y + textHeight * i * textSize);
   d5682:	f04f 0b0f 	mov.w	fp, #15
   d5686:	193b      	adds	r3, r7, r4
   d5688:	b29b      	uxth	r3, r3
  int textHeight = 12;
  int y = textSize == 1 ? 64 / arrayLen : 18;
  clearScreen();
  display.setTextSize(textSize);

  for (int i = 0; i < arrayLen; i++)
   d568a:	45d0      	cmp	r8, sl
   d568c:	9301      	str	r3, [sp, #4]
   d568e:	da18      	bge.n	d56c2 <_Z19messageBoxWithArrayPPKcii+0x76>
  {
    int x = getCenterX(textStrings[i], textSize);
   d5690:	f856 0f04 	ldr.w	r0, [r6, #4]!
   d5694:	4629      	mov	r1, r5
   d5696:	f7ff ffcb 	bl	d5630 <_Z10getCenterXPKci>

    display.setCursor(x + (15 / textSize) + i, y + textHeight * i * textSize);
   d569a:	fb9b f1f5 	sdiv	r1, fp, r5
   d569e:	4441      	add	r1, r8
   d56a0:	eb04 0209 	add.w	r2, r4, r9
   d56a4:	4401      	add	r1, r0
   d56a6:	b212      	sxth	r2, r2
   d56a8:	b209      	sxth	r1, r1
   d56aa:	4809      	ldr	r0, [pc, #36]	; (d56d0 <_Z19messageBoxWithArrayPPKcii+0x84>)
   d56ac:	f002 fb75 	bl	d7d9a <_ZN12Adafruit_GFX9setCursorEss>
    display.println(textStrings[i]);
   d56b0:	6831      	ldr	r1, [r6, #0]
   d56b2:	4807      	ldr	r0, [pc, #28]	; (d56d0 <_Z19messageBoxWithArrayPPKcii+0x84>)
   d56b4:	f004 fbff 	bl	d9eb6 <_ZN5Print7printlnEPKc>
  int textHeight = 12;
  int y = textSize == 1 ? 64 / arrayLen : 18;
  clearScreen();
  display.setTextSize(textSize);

  for (int i = 0; i < arrayLen; i++)
   d56b8:	9b01      	ldr	r3, [sp, #4]
   d56ba:	f108 0801 	add.w	r8, r8, #1
   d56be:	461c      	mov	r4, r3
   d56c0:	e7e1      	b.n	d5686 <_Z19messageBoxWithArrayPPKcii+0x3a>
    int x = getCenterX(textStrings[i], textSize);

    display.setCursor(x + (15 / textSize) + i, y + textHeight * i * textSize);
    display.println(textStrings[i]);
  }
  display.display();
   d56c2:	4803      	ldr	r0, [pc, #12]	; (d56d0 <_Z19messageBoxWithArrayPPKcii+0x84>)
}
   d56c4:	b003      	add	sp, #12
   d56c6:	e8bd 4ff0 	ldmia.w	sp!, {r4, r5, r6, r7, r8, r9, sl, fp, lr}
    int x = getCenterX(textStrings[i], textSize);

    display.setCursor(x + (15 / textSize) + i, y + textHeight * i * textSize);
    display.println(textStrings[i]);
  }
  display.display();
   d56ca:	f002 bf23 	b.w	d8514 <_ZN16Adafruit_SSD13067displayEv>
   d56ce:	bf00      	nop
   d56d0:	2003e1ec 	.word	0x2003e1ec

000d56d4 <_Z16showSplashscreenv>:
}

void showSplashscreen()
{
   d56d4:	b57f      	push	{r0, r1, r2, r3, r4, r5, r6, lr}
  clearScreen();
  display.drawBitmap(0, 16, sparkLogo, 128, 48, 1);
   d56d6:	4c16      	ldr	r4, [pc, #88]	; (d5730 <_Z16showSplashscreenv+0x5c>)
  display.display();
}

void showSplashscreen()
{
  clearScreen();
   d56d8:	f7ff fe9e 	bl	d5418 <_Z11clearScreenv>
  display.drawBitmap(0, 16, sparkLogo, 128, 48, 1);
   d56dc:	2601      	movs	r6, #1
   d56de:	2580      	movs	r5, #128	; 0x80
   d56e0:	2330      	movs	r3, #48	; 0x30
   d56e2:	2210      	movs	r2, #16
   d56e4:	2100      	movs	r1, #0
   d56e6:	9301      	str	r3, [sp, #4]
   d56e8:	4620      	mov	r0, r4
   d56ea:	4b12      	ldr	r3, [pc, #72]	; (d5734 <_Z16showSplashscreenv+0x60>)
   d56ec:	9602      	str	r6, [sp, #8]
   d56ee:	9500      	str	r5, [sp, #0]
   d56f0:	f002 fa46 	bl	d7b80 <_ZN12Adafruit_GFX10drawBitmapEssPKhsst>
  display.display();
   d56f4:	4620      	mov	r0, r4
   d56f6:	f002 ff0d 	bl	d8514 <_ZN16Adafruit_SSD13067displayEv>
  delay(2000);
   d56fa:	f44f 60fa 	mov.w	r0, #2000	; 0x7d0
   d56fe:	f003 fde7 	bl	d92d0 <delay>
  clearScreen();
   d5702:	f7ff fe89 	bl	d5418 <_Z11clearScreenv>
  display.drawBitmap(0, 0, spectraLogo, 128, 64, 1);
   d5706:	2200      	movs	r2, #0
   d5708:	2340      	movs	r3, #64	; 0x40
   d570a:	9301      	str	r3, [sp, #4]
   d570c:	4611      	mov	r1, r2
   d570e:	4b0a      	ldr	r3, [pc, #40]	; (d5738 <_Z16showSplashscreenv+0x64>)
   d5710:	9602      	str	r6, [sp, #8]
   d5712:	4620      	mov	r0, r4
   d5714:	9500      	str	r5, [sp, #0]
   d5716:	f002 fa33 	bl	d7b80 <_ZN12Adafruit_GFX10drawBitmapEssPKhsst>
  display.display();
   d571a:	4620      	mov	r0, r4
   d571c:	f002 fefa 	bl	d8514 <_ZN16Adafruit_SSD13067displayEv>
  delay(2000);
   d5720:	f44f 60fa 	mov.w	r0, #2000	; 0x7d0
}
   d5724:	b004      	add	sp, #16
   d5726:	e8bd 4070 	ldmia.w	sp!, {r4, r5, r6, lr}
  display.display();
  delay(2000);
  clearScreen();
  display.drawBitmap(0, 0, spectraLogo, 128, 64, 1);
  display.display();
  delay(2000);
   d572a:	f003 bdd1 	b.w	d92d0 <delay>
   d572e:	bf00      	nop
   d5730:	2003e1ec 	.word	0x2003e1ec
   d5734:	000dd143 	.word	0x000dd143
   d5738:	000dc483 	.word	0x000dc483

000d573c <_Z20displayTwitterHandlev>:
    display.startscrollleft(0x00, 0x0F);
  }
}

void displayTwitterHandle()
{
   d573c:	b508      	push	{r3, lr}
  displayingWearerDetails = true;
   d573e:	4b11      	ldr	r3, [pc, #68]	; (d5784 <_Z20displayTwitterHandlev+0x48>)
   d5740:	2201      	movs	r2, #1
   d5742:	701a      	strb	r2, [r3, #0]

  clearScreen();
   d5744:	f7ff fe68 	bl	d5418 <_Z11clearScreenv>
  display.setTextSize(2);
   d5748:	2102      	movs	r1, #2
   d574a:	480f      	ldr	r0, [pc, #60]	; (d5788 <_Z20displayTwitterHandlev+0x4c>)
   d574c:	f002 fb28 	bl	d7da0 <_ZN12Adafruit_GFX11setTextSizeEh>
  display.setCursor(0, 10);
   d5750:	220a      	movs	r2, #10
   d5752:	2100      	movs	r1, #0
   d5754:	480c      	ldr	r0, [pc, #48]	; (d5788 <_Z20displayTwitterHandlev+0x4c>)
   d5756:	f002 fb20 	bl	d7d9a <_ZN12Adafruit_GFX9setCursorEss>
  display.println();
   d575a:	480b      	ldr	r0, [pc, #44]	; (d5788 <_Z20displayTwitterHandlev+0x4c>)
   d575c:	f004 fb9f 	bl	d9e9e <_ZN5Print7printlnEv>
   d5760:	4b0a      	ldr	r3, [pc, #40]	; (d578c <_Z20displayTwitterHandlev+0x50>)

  if (wearerTwitter.length() > 0)
   d5762:	689a      	ldr	r2, [r3, #8]
   d5764:	b11a      	cbz	r2, d576e <_Z20displayTwitterHandlev+0x32>
  {
    display.println(wearerTwitter);
   d5766:	6819      	ldr	r1, [r3, #0]
   d5768:	4807      	ldr	r0, [pc, #28]	; (d5788 <_Z20displayTwitterHandlev+0x4c>)
   d576a:	f004 fba4 	bl	d9eb6 <_ZN5Print7printlnEPKc>
  }

  display.display();
   d576e:	4806      	ldr	r0, [pc, #24]	; (d5788 <_Z20displayTwitterHandlev+0x4c>)
   d5770:	f002 fed0 	bl	d8514 <_ZN16Adafruit_SSD13067displayEv>
  display.startscrollleft(0x00, 0x0F);
   d5774:	220f      	movs	r2, #15
   d5776:	2100      	movs	r1, #0
   d5778:	4803      	ldr	r0, [pc, #12]	; (d5788 <_Z20displayTwitterHandlev+0x4c>)
}
   d577a:	e8bd 4008 	ldmia.w	sp!, {r3, lr}
  {
    display.println(wearerTwitter);
  }

  display.display();
  display.startscrollleft(0x00, 0x0F);
   d577e:	f002 be46 	b.w	d840e <_ZN16Adafruit_SSD130615startscrollleftEhh>
   d5782:	bf00      	nop
   d5784:	2003e270 	.word	0x2003e270
   d5788:	2003e1ec 	.word	0x2003e1ec
   d578c:	2003e134 	.word	0x2003e134

000d5790 <_Z11showBatteryv>:
  display.println("Spectra 18");
  display.display();
}

void showBattery()
{
   d5790:	b51f      	push	{r0, r1, r2, r3, r4, lr}
  clearScreen();
   d5792:	f7ff fe41 	bl	d5418 <_Z11clearScreenv>

  display.setTextSize(1);
   d5796:	2101      	movs	r1, #1
   d5798:	4825      	ldr	r0, [pc, #148]	; (d5830 <_Z11showBatteryv+0xa0>)
  display.setCursor(25, 1);
  display.print("Battery - ");
  display.print((int)currentBatteryReading);
   d579a:	4c26      	ldr	r4, [pc, #152]	; (d5834 <_Z11showBatteryv+0xa4>)

void showBattery()
{
  clearScreen();

  display.setTextSize(1);
   d579c:	f002 fb00 	bl	d7da0 <_ZN12Adafruit_GFX11setTextSizeEh>
  display.setCursor(25, 1);
   d57a0:	2201      	movs	r2, #1
   d57a2:	2119      	movs	r1, #25
   d57a4:	4822      	ldr	r0, [pc, #136]	; (d5830 <_Z11showBatteryv+0xa0>)
   d57a6:	f002 faf8 	bl	d7d9a <_ZN12Adafruit_GFX9setCursorEss>
  display.print("Battery - ");
   d57aa:	4923      	ldr	r1, [pc, #140]	; (d5838 <_Z11showBatteryv+0xa8>)
   d57ac:	4820      	ldr	r0, [pc, #128]	; (d5830 <_Z11showBatteryv+0xa0>)
   d57ae:	f004 fb6f 	bl	d9e90 <_ZN5Print5printEPKc>
  display.print((int)currentBatteryReading);
   d57b2:	220a      	movs	r2, #10
   d57b4:	6821      	ldr	r1, [r4, #0]
   d57b6:	481e      	ldr	r0, [pc, #120]	; (d5830 <_Z11showBatteryv+0xa0>)
   d57b8:	f004 fbd8 	bl	d9f6c <_ZN5Print5printEii>
  display.println("%");
   d57bc:	491f      	ldr	r1, [pc, #124]	; (d583c <_Z11showBatteryv+0xac>)
   d57be:	481c      	ldr	r0, [pc, #112]	; (d5830 <_Z11showBatteryv+0xa0>)
   d57c0:	f004 fb79 	bl	d9eb6 <_ZN5Print7printlnEPKc>

  // Show battery image based on reading
  int battX = 28;
  int battY = 23;
  if (currentBatteryReading > 0 && currentBatteryReading <= 20)
   d57c4:	6823      	ldr	r3, [r4, #0]
   d57c6:	1e5a      	subs	r2, r3, #1
   d57c8:	2a13      	cmp	r2, #19
   d57ca:	f04f 0201 	mov.w	r2, #1
   d57ce:	d806      	bhi.n	d57de <_Z11showBatteryv+0x4e>
  {
    display.drawBitmap(battX, battY, batteryEmptyImage, 72, 32, 1);
   d57d0:	2320      	movs	r3, #32
   d57d2:	2048      	movs	r0, #72	; 0x48
   d57d4:	e88d 0009 	stmia.w	sp, {r0, r3}
   d57d8:	9202      	str	r2, [sp, #8]
   d57da:	4b19      	ldr	r3, [pc, #100]	; (d5840 <_Z11showBatteryv+0xb0>)
   d57dc:	e016      	b.n	d580c <_Z11showBatteryv+0x7c>
  }
  else if (currentBatteryReading > 20 && currentBatteryReading <= 50)
   d57de:	f1a3 0115 	sub.w	r1, r3, #21
   d57e2:	291d      	cmp	r1, #29
   d57e4:	d806      	bhi.n	d57f4 <_Z11showBatteryv+0x64>
  {
    display.drawBitmap(battX, battY, batteryLowImage, 72, 32, 1);
   d57e6:	2320      	movs	r3, #32
   d57e8:	2148      	movs	r1, #72	; 0x48
   d57ea:	e88d 000a 	stmia.w	sp, {r1, r3}
   d57ee:	9202      	str	r2, [sp, #8]
   d57f0:	4b14      	ldr	r3, [pc, #80]	; (d5844 <_Z11showBatteryv+0xb4>)
   d57f2:	e00b      	b.n	d580c <_Z11showBatteryv+0x7c>
  }
  else if (currentBatteryReading > 50 && currentBatteryReading <= 90)
   d57f4:	3b33      	subs	r3, #51	; 0x33
   d57f6:	2b27      	cmp	r3, #39	; 0x27
  {
    display.drawBitmap(battX, battY, batteryMediumImage, 72, 32, 1);
   d57f8:	9202      	str	r2, [sp, #8]
   d57fa:	f04f 0320 	mov.w	r3, #32
   d57fe:	f04f 0248 	mov.w	r2, #72	; 0x48
   d5802:	e88d 000c 	stmia.w	sp, {r2, r3}
   d5806:	bf94      	ite	ls
   d5808:	4b0f      	ldrls	r3, [pc, #60]	; (d5848 <_Z11showBatteryv+0xb8>)
  }
  else
  {
    display.drawBitmap(battX, battY, batteryFullImage, 72, 32, 1);
   d580a:	4b10      	ldrhi	r3, [pc, #64]	; (d584c <_Z11showBatteryv+0xbc>)
   d580c:	4808      	ldr	r0, [pc, #32]	; (d5830 <_Z11showBatteryv+0xa0>)
   d580e:	2217      	movs	r2, #23
   d5810:	211c      	movs	r1, #28
   d5812:	f002 f9b5 	bl	d7b80 <_ZN12Adafruit_GFX10drawBitmapEssPKhsst>
  }

  display.display();
   d5816:	4806      	ldr	r0, [pc, #24]	; (d5830 <_Z11showBatteryv+0xa0>)
   d5818:	f002 fe7c 	bl	d8514 <_ZN16Adafruit_SSD13067displayEv>
  display.setTextSize(1);
   d581c:	2101      	movs	r1, #1
   d581e:	4804      	ldr	r0, [pc, #16]	; (d5830 <_Z11showBatteryv+0xa0>)
   d5820:	f002 fabe 	bl	d7da0 <_ZN12Adafruit_GFX11setTextSizeEh>

  displayingBattery = true;
   d5824:	4b0a      	ldr	r3, [pc, #40]	; (d5850 <_Z11showBatteryv+0xc0>)
   d5826:	2201      	movs	r2, #1
   d5828:	701a      	strb	r2, [r3, #0]
}
   d582a:	b004      	add	sp, #16
   d582c:	bd10      	pop	{r4, pc}
   d582e:	bf00      	nop
   d5830:	2003e1ec 	.word	0x2003e1ec
   d5834:	2003e164 	.word	0x2003e164
   d5838:	000dc8a6 	.word	0x000dc8a6
   d583c:	000dc8a4 	.word	0x000dc8a4
   d5840:	000dd443 	.word	0x000dd443
   d5844:	000dc312 	.word	0x000dc312
   d5848:	000dcd0b 	.word	0x000dcd0b
   d584c:	000dce2b 	.word	0x000dce2b
   d5850:	2003e272 	.word	0x2003e272

000d5854 <_Z14displayCreditsv>:
  display.display();
  display.startscrollleft(0x00, 0x0F);
}

void displayCredits()
{
   d5854:	b51f      	push	{r0, r1, r2, r3, r4, lr}
  const char *creditStrings[] = {"Created by",
                                 "a GLOBAL team", "at Particle!"};
   d5856:	4a06      	ldr	r2, [pc, #24]	; (d5870 <_Z14displayCreditsv+0x1c>)
   d5858:	ca07      	ldmia	r2, {r0, r1, r2}
   d585a:	ab01      	add	r3, sp, #4
   d585c:	e883 0007 	stmia.w	r3, {r0, r1, r2}

  messageBoxWithArray(creditStrings, 3, 1);
   d5860:	2201      	movs	r2, #1
   d5862:	2103      	movs	r1, #3
   d5864:	4618      	mov	r0, r3
   d5866:	f7ff fef1 	bl	d564c <_Z19messageBoxWithArrayPPKcii>
}
   d586a:	b005      	add	sp, #20
   d586c:	f85d fb04 	ldr.w	pc, [sp], #4
   d5870:	000dc2b0 	.word	0x000dc2b0

000d5874 <_Z10showKonamiv>:

void showKonami()
{
   d5874:	b51f      	push	{r0, r1, r2, r3, r4, lr}
  display.clearDisplay();
   d5876:	4c11      	ldr	r4, [pc, #68]	; (d58bc <_Z10showKonamiv+0x48>)
   d5878:	4620      	mov	r0, r4
   d587a:	f002 fec1 	bl	d8600 <_ZN16Adafruit_SSD130612clearDisplayEv>
  display.display();
   d587e:	4620      	mov	r0, r4
   d5880:	f002 fe48 	bl	d8514 <_ZN16Adafruit_SSD13067displayEv>
  display.setCursor(0, 0);
   d5884:	2200      	movs	r2, #0
   d5886:	4611      	mov	r1, r2
   d5888:	4620      	mov	r0, r4
   d588a:	f002 fa86 	bl	d7d9a <_ZN12Adafruit_GFX9setCursorEss>
  display.drawBitmap(0, 0, konamiLogo, 128, 64, 1);
   d588e:	2180      	movs	r1, #128	; 0x80
   d5890:	2240      	movs	r2, #64	; 0x40
   d5892:	2301      	movs	r3, #1
   d5894:	e88d 000e 	stmia.w	sp, {r1, r2, r3}
   d5898:	2200      	movs	r2, #0
   d589a:	4611      	mov	r1, r2
   d589c:	4b08      	ldr	r3, [pc, #32]	; (d58c0 <_Z10showKonamiv+0x4c>)
   d589e:	4620      	mov	r0, r4
   d58a0:	f002 f96e 	bl	d7b80 <_ZN12Adafruit_GFX10drawBitmapEssPKhsst>
  display.display();
   d58a4:	4620      	mov	r0, r4
   d58a6:	f002 fe35 	bl	d8514 <_ZN16Adafruit_SSD13067displayEv>
  display.startscrolldiagleft(0x00, 0x07);
   d58aa:	2207      	movs	r2, #7
   d58ac:	2100      	movs	r1, #0
   d58ae:	4620      	mov	r0, r4
}
   d58b0:	b004      	add	sp, #16
   d58b2:	e8bd 4010 	ldmia.w	sp!, {r4, lr}
  display.clearDisplay();
  display.display();
  display.setCursor(0, 0);
  display.drawBitmap(0, 0, konamiLogo, 128, 64, 1);
  display.display();
  display.startscrolldiagleft(0x00, 0x07);
   d58b6:	f002 bdfc 	b.w	d84b2 <_ZN16Adafruit_SSD130619startscrolldiagleftEhh>
   d58ba:	bf00      	nop
   d58bc:	2003e1ec 	.word	0x2003e1ec
   d58c0:	000dc90b 	.word	0x000dc90b

000d58c4 <_Z8showMeshv>:
}

void showMesh()
{
   d58c4:	b51f      	push	{r0, r1, r2, r3, r4, lr}
  display.clearDisplay();
   d58c6:	4c11      	ldr	r4, [pc, #68]	; (d590c <_Z8showMeshv+0x48>)
   d58c8:	4620      	mov	r0, r4
   d58ca:	f002 fe99 	bl	d8600 <_ZN16Adafruit_SSD130612clearDisplayEv>
  display.display();
   d58ce:	4620      	mov	r0, r4
   d58d0:	f002 fe20 	bl	d8514 <_ZN16Adafruit_SSD13067displayEv>
  display.setCursor(0, 0);
   d58d4:	2200      	movs	r2, #0
   d58d6:	4611      	mov	r1, r2
   d58d8:	4620      	mov	r0, r4
   d58da:	f002 fa5e 	bl	d7d9a <_ZN12Adafruit_GFX9setCursorEss>
  display.drawBitmap(0, 0, meshLogo, 64, 63, 1);
   d58de:	2140      	movs	r1, #64	; 0x40
   d58e0:	223f      	movs	r2, #63	; 0x3f
   d58e2:	2301      	movs	r3, #1
   d58e4:	e88d 000e 	stmia.w	sp, {r1, r2, r3}
   d58e8:	2200      	movs	r2, #0
   d58ea:	4611      	mov	r1, r2
   d58ec:	4b08      	ldr	r3, [pc, #32]	; (d5910 <_Z8showMeshv+0x4c>)
   d58ee:	4620      	mov	r0, r4
   d58f0:	f002 f946 	bl	d7b80 <_ZN12Adafruit_GFX10drawBitmapEssPKhsst>
  display.display();
   d58f4:	4620      	mov	r0, r4
   d58f6:	f002 fe0d 	bl	d8514 <_ZN16Adafruit_SSD13067displayEv>
  display.startscrolldiagright(0x00, 0x07);
   d58fa:	2207      	movs	r2, #7
   d58fc:	2100      	movs	r1, #0
   d58fe:	4620      	mov	r0, r4
}
   d5900:	b004      	add	sp, #16
   d5902:	e8bd 4010 	ldmia.w	sp!, {r4, lr}
  display.clearDisplay();
  display.display();
  display.setCursor(0, 0);
  display.drawBitmap(0, 0, meshLogo, 64, 63, 1);
  display.display();
  display.startscrolldiagright(0x00, 0x07);
   d5906:	f002 bda7 	b.w	d8458 <_ZN16Adafruit_SSD130620startscrolldiagrightEhh>
   d590a:	bf00      	nop
   d590c:	2003e1ec 	.word	0x2003e1ec
   d5910:	000dcf4b 	.word	0x000dcf4b

000d5914 <_Z15displayMeshPingv>:
  display.display();
  display.startscrollleft(0x00, 0x0F);
}

void displayMeshPing()
{
   d5914:	b510      	push	{r4, lr}
  const char *text = "You got a mesh ping!";
  clearScreen();
  display.setTextSize(1);
   d5916:	4c0c      	ldr	r4, [pc, #48]	; (d5948 <_Z15displayMeshPingv+0x34>)
}

void displayMeshPing()
{
  const char *text = "You got a mesh ping!";
  clearScreen();
   d5918:	f7ff fd7e 	bl	d5418 <_Z11clearScreenv>
  display.setTextSize(1);
   d591c:	4620      	mov	r0, r4
   d591e:	2101      	movs	r1, #1
   d5920:	f002 fa3e 	bl	d7da0 <_ZN12Adafruit_GFX11setTextSizeEh>
  display.setCursor(2, 35);
   d5924:	2223      	movs	r2, #35	; 0x23
   d5926:	4620      	mov	r0, r4
   d5928:	2102      	movs	r1, #2
   d592a:	f002 fa36 	bl	d7d9a <_ZN12Adafruit_GFX9setCursorEss>
  display.setTextWrap(true);
   d592e:	4620      	mov	r0, r4
   d5930:	2101      	movs	r1, #1
   d5932:	f002 fa3d 	bl	d7db0 <_ZN12Adafruit_GFX11setTextWrapEb>
  display.println(text);
   d5936:	4620      	mov	r0, r4
   d5938:	4904      	ldr	r1, [pc, #16]	; (d594c <_Z15displayMeshPingv+0x38>)
   d593a:	f004 fabc 	bl	d9eb6 <_ZN5Print7printlnEPKc>
  display.display();
   d593e:	4620      	mov	r0, r4
}
   d5940:	e8bd 4010 	ldmia.w	sp!, {r4, lr}
  clearScreen();
  display.setTextSize(1);
  display.setCursor(2, 35);
  display.setTextWrap(true);
  display.println(text);
  display.display();
   d5944:	f002 bde6 	b.w	d8514 <_ZN16Adafruit_SSD13067displayEv>
   d5948:	2003e1ec 	.word	0x2003e1ec
   d594c:	000dc8b1 	.word	0x000dc8b1

000d5950 <_Z18displayGatewayPingPKc>:
}

void displayGatewayPing(const char *data)
{
   d5950:	b570      	push	{r4, r5, r6, lr}
   d5952:	4606      	mov	r6, r0
  int textWidth = 8 + strlen(data) * 9;
   d5954:	f006 fad1 	bl	dbefa <strlen>
  int x = 64 - (textWidth / 2);
  int y = 32;

  clearScreen();
  display.setTextSize(1);
   d5958:	4d13      	ldr	r5, [pc, #76]	; (d59a8 <_Z18displayGatewayPingPKc+0x58>)
  display.display();
}

void displayGatewayPing(const char *data)
{
  int textWidth = 8 + strlen(data) * 9;
   d595a:	4604      	mov	r4, r0
  int x = 64 - (textWidth / 2);
  int y = 32;

  clearScreen();
  display.setTextSize(1);
  display.setCursor(x + 10, y + 5 - 12 / 2);
   d595c:	eb04 04c4 	add.w	r4, r4, r4, lsl #3
{
  int textWidth = 8 + strlen(data) * 9;
  int x = 64 - (textWidth / 2);
  int y = 32;

  clearScreen();
   d5960:	f7ff fd5a 	bl	d5418 <_Z11clearScreenv>
  display.setTextSize(1);
   d5964:	4628      	mov	r0, r5
   d5966:	2101      	movs	r1, #1
   d5968:	f002 fa1a 	bl	d7da0 <_ZN12Adafruit_GFX11setTextSizeEh>
  display.setCursor(x + 10, y + 5 - 12 / 2);
   d596c:	3408      	adds	r4, #8
   d596e:	2102      	movs	r1, #2
   d5970:	fb94 f1f1 	sdiv	r1, r4, r1
   d5974:	f1c1 014a 	rsb	r1, r1, #74	; 0x4a
   d5978:	221f      	movs	r2, #31
   d597a:	4628      	mov	r0, r5
   d597c:	b209      	sxth	r1, r1
   d597e:	f002 fa0c 	bl	d7d9a <_ZN12Adafruit_GFX9setCursorEss>
  display.setTextWrap(true);
   d5982:	4628      	mov	r0, r5
   d5984:	2101      	movs	r1, #1
   d5986:	f002 fa13 	bl	d7db0 <_ZN12Adafruit_GFX11setTextWrapEb>
    }

    template <typename... Args>
    inline size_t printlnf(const char* format, Args... args)
    {
        return this->printf_impl(true, format, args...);
   d598a:	4633      	mov	r3, r6
   d598c:	2101      	movs	r1, #1
   d598e:	4a07      	ldr	r2, [pc, #28]	; (d59ac <_Z18displayGatewayPingPKc+0x5c>)
   d5990:	4628      	mov	r0, r5
   d5992:	f004 faed 	bl	d9f70 <_ZN5Print11printf_implEbPKcz>
  display.printlnf("Hello, %s!", data);
  display.display();
   d5996:	4628      	mov	r0, r5
   d5998:	f002 fdbc 	bl	d8514 <_ZN16Adafruit_SSD13067displayEv>
  display.setTextWrap(false);
   d599c:	4628      	mov	r0, r5
   d599e:	2100      	movs	r1, #0
}
   d59a0:	e8bd 4070 	ldmia.w	sp!, {r4, r5, r6, lr}
  display.setTextSize(1);
  display.setCursor(x + 10, y + 5 - 12 / 2);
  display.setTextWrap(true);
  display.printlnf("Hello, %s!", data);
  display.display();
  display.setTextWrap(false);
   d59a4:	f002 ba04 	b.w	d7db0 <_ZN12Adafruit_GFX11setTextWrapEb>
   d59a8:	2003e1ec 	.word	0x2003e1ec
   d59ac:	000dc8c6 	.word	0x000dc8c6

000d59b0 <_Z14displayHiFromZv>:
}

void displayHiFromZ()
{
   d59b0:	b51f      	push	{r0, r1, r2, r3, r4, lr}
  const char *text = "Welcome to Spectra!";
  clearScreen();
  display.setTextSize(1);
   d59b2:	4c13      	ldr	r4, [pc, #76]	; (d5a00 <_Z14displayHiFromZv+0x50>)
}

void displayHiFromZ()
{
  const char *text = "Welcome to Spectra!";
  clearScreen();
   d59b4:	f7ff fd30 	bl	d5418 <_Z11clearScreenv>
  display.setTextSize(1);
   d59b8:	4620      	mov	r0, r4
   d59ba:	2101      	movs	r1, #1
   d59bc:	f002 f9f0 	bl	d7da0 <_ZN12Adafruit_GFX11setTextSizeEh>
  display.setCursor(5, 2);
   d59c0:	2202      	movs	r2, #2
   d59c2:	4620      	mov	r0, r4
   d59c4:	2105      	movs	r1, #5
   d59c6:	f002 f9e8 	bl	d7d9a <_ZN12Adafruit_GFX9setCursorEss>
  display.println(text);
   d59ca:	490e      	ldr	r1, [pc, #56]	; (d5a04 <_Z14displayHiFromZv+0x54>)
   d59cc:	4620      	mov	r0, r4
   d59ce:	f004 fa72 	bl	d9eb6 <_ZN5Print7printlnEPKc>
  display.drawBitmap(0, 0, spectraLogo, 128, 64, 1);
   d59d2:	2180      	movs	r1, #128	; 0x80
   d59d4:	2240      	movs	r2, #64	; 0x40
   d59d6:	2301      	movs	r3, #1
   d59d8:	e88d 000e 	stmia.w	sp, {r1, r2, r3}
   d59dc:	2200      	movs	r2, #0
   d59de:	4611      	mov	r1, r2
   d59e0:	4b09      	ldr	r3, [pc, #36]	; (d5a08 <_Z14displayHiFromZv+0x58>)
   d59e2:	4620      	mov	r0, r4
   d59e4:	f002 f8cc 	bl	d7b80 <_ZN12Adafruit_GFX10drawBitmapEssPKhsst>
  display.display();
   d59e8:	4620      	mov	r0, r4
   d59ea:	f002 fd93 	bl	d8514 <_ZN16Adafruit_SSD13067displayEv>
  display.startscrollleft(0x00, 0x0F);
   d59ee:	220f      	movs	r2, #15
   d59f0:	2100      	movs	r1, #0
   d59f2:	4620      	mov	r0, r4
   d59f4:	b004      	add	sp, #16
   d59f6:	e8bd 4010 	ldmia.w	sp!, {r4, lr}
  display.setTextSize(1);
  display.setCursor(5, 2);
  display.println(text);
  display.drawBitmap(0, 0, spectraLogo, 128, 64, 1);
  display.display();
  display.startscrollleft(0x00, 0x0F);
   d59fa:	f002 bd08 	b.w	d840e <_ZN16Adafruit_SSD130615startscrollleftEhh>
   d59fe:	bf00      	nop
   d5a00:	2003e1ec 	.word	0x2003e1ec
   d5a04:	000dc8d1 	.word	0x000dc8d1
   d5a08:	000dc483 	.word	0x000dc483

000d5a0c <_Z18fireTowerSendEventv>:
{
  Particle.publish("battery-charge", String(battery), PRIVATE);
}

void fireTowerSendEvent()
{
   d5a0c:	b538      	push	{r3, r4, r5, lr}
  // Make sure that events are at least five seconds apart
  if (lastSentTowerEvent == 0 || millis() - lastSentTowerEvent > eventDelay)
   d5a0e:	4c0b      	ldr	r4, [pc, #44]	; (d5a3c <_Z18fireTowerSendEventv+0x30>)
   d5a10:	6823      	ldr	r3, [r4, #0]
   d5a12:	4625      	mov	r5, r4
   d5a14:	b13b      	cbz	r3, d5a26 <_Z18fireTowerSendEventv+0x1a>
   d5a16:	f003 f95b 	bl	d8cd0 <HAL_Timer_Get_Milli_Seconds>
   d5a1a:	6823      	ldr	r3, [r4, #0]
   d5a1c:	1ac0      	subs	r0, r0, r3
   d5a1e:	4b08      	ldr	r3, [pc, #32]	; (d5a40 <_Z18fireTowerSendEventv+0x34>)
   d5a20:	681b      	ldr	r3, [r3, #0]
   d5a22:	4298      	cmp	r0, r3
   d5a24:	d909      	bls.n	d5a3a <_Z18fireTowerSendEventv+0x2e>
   d5a26:	f003 f953 	bl	d8cd0 <HAL_Timer_Get_Milli_Seconds>
  {
    lastSentTowerEvent = millis();
   d5a2a:	6028      	str	r0, [r5, #0]
    Mesh.publish("tower-send", NULL);
   d5a2c:	2200      	movs	r2, #0
   d5a2e:	4905      	ldr	r1, [pc, #20]	; (d5a44 <_Z18fireTowerSendEventv+0x38>)
   d5a30:	4805      	ldr	r0, [pc, #20]	; (d5a48 <_Z18fireTowerSendEventv+0x3c>)
  }
}
   d5a32:	e8bd 4038 	ldmia.w	sp!, {r3, r4, r5, lr}
{
  // Make sure that events are at least five seconds apart
  if (lastSentTowerEvent == 0 || millis() - lastSentTowerEvent > eventDelay)
  {
    lastSentTowerEvent = millis();
    Mesh.publish("tower-send", NULL);
   d5a36:	f004 b96b 	b.w	d9d10 <_ZN5spark11MeshPublish7publishEPKcS2_>
   d5a3a:	bd38      	pop	{r3, r4, r5, pc}
   d5a3c:	2003e278 	.word	0x2003e278
   d5a40:	2003d844 	.word	0x2003d844
   d5a44:	000dd563 	.word	0x000dd563
   d5a48:	2003e408 	.word	0x2003e408

000d5a4c <_Z18fireHelloPingEventv>:
    Mesh.publish("zach-button", NULL);
  }
}

void fireHelloPingEvent()
{
   d5a4c:	b538      	push	{r3, r4, r5, lr}
  // Make sure that events are at least five seconds apart
  if (lastHelloEvent == 0 || millis() - lastHelloEvent > eventDelay)
   d5a4e:	4c0d      	ldr	r4, [pc, #52]	; (d5a84 <_Z18fireHelloPingEventv+0x38>)
   d5a50:	6823      	ldr	r3, [r4, #0]
   d5a52:	4625      	mov	r5, r4
   d5a54:	b13b      	cbz	r3, d5a66 <_Z18fireHelloPingEventv+0x1a>
   d5a56:	f003 f93b 	bl	d8cd0 <HAL_Timer_Get_Milli_Seconds>
   d5a5a:	6823      	ldr	r3, [r4, #0]
   d5a5c:	1ac0      	subs	r0, r0, r3
   d5a5e:	4b0a      	ldr	r3, [pc, #40]	; (d5a88 <_Z18fireHelloPingEventv+0x3c>)
   d5a60:	681b      	ldr	r3, [r3, #0]
   d5a62:	4298      	cmp	r0, r3
   d5a64:	d90d      	bls.n	d5a82 <_Z18fireHelloPingEventv+0x36>
   d5a66:	f003 f933 	bl	d8cd0 <HAL_Timer_Get_Milli_Seconds>
  {
    lastHelloEvent = millis();
    Mesh.publish("mesh-ping", "hello!");
   d5a6a:	4908      	ldr	r1, [pc, #32]	; (d5a8c <_Z18fireHelloPingEventv+0x40>)
void fireHelloPingEvent()
{
  // Make sure that events are at least five seconds apart
  if (lastHelloEvent == 0 || millis() - lastHelloEvent > eventDelay)
  {
    lastHelloEvent = millis();
   d5a6c:	6028      	str	r0, [r5, #0]
    Mesh.publish("mesh-ping", "hello!");
   d5a6e:	4a08      	ldr	r2, [pc, #32]	; (d5a90 <_Z18fireHelloPingEventv+0x44>)
   d5a70:	4808      	ldr	r0, [pc, #32]	; (d5a94 <_Z18fireHelloPingEventv+0x48>)
   d5a72:	f004 f94d 	bl	d9d10 <_ZN5spark11MeshPublish7publishEPKcS2_>
public:
  qMenuSystem(Adafruit_SSD1306 *disp);
  void InitMenu(const char **page, int itemCount, int selectedIndex);
  int ProcessMenu(int action);
  void ShowMenu();
  void MessageBox(const char text[]) { qmd.MessageBox(text); };
   d5a76:	4908      	ldr	r1, [pc, #32]	; (d5a98 <_Z18fireHelloPingEventv+0x4c>)
   d5a78:	4808      	ldr	r0, [pc, #32]	; (d5a9c <_Z18fireHelloPingEventv+0x50>)

    menu.MessageBox("Hello ping!");
  }
}
   d5a7a:	e8bd 4038 	ldmia.w	sp!, {r3, r4, r5, lr}
   d5a7e:	f003 b859 	b.w	d8b34 <_ZN12qMenuDisplay10MessageBoxEPKc>
   d5a82:	bd38      	pop	{r3, r4, r5, pc}
   d5a84:	2003e280 	.word	0x2003e280
   d5a88:	2003d844 	.word	0x2003d844
   d5a8c:	000dd581 	.word	0x000dd581
   d5a90:	000dd57a 	.word	0x000dd57a
   d5a94:	2003e408 	.word	0x2003e408
   d5a98:	000dd58b 	.word	0x000dd58b
   d5a9c:	2003e260 	.word	0x2003e260

000d5aa0 <_Z20fireGatewayPingEventv>:

void fireGatewayPingEvent()
{
   d5aa0:	b538      	push	{r3, r4, r5, lr}
  // Make sure that events are at least five seconds apart
  if (lastGatewayEvent == 0 || millis() - lastGatewayEvent > eventDelay)
   d5aa2:	4c0d      	ldr	r4, [pc, #52]	; (d5ad8 <_Z20fireGatewayPingEventv+0x38>)
   d5aa4:	6823      	ldr	r3, [r4, #0]
   d5aa6:	4625      	mov	r5, r4
   d5aa8:	b13b      	cbz	r3, d5aba <_Z20fireGatewayPingEventv+0x1a>
   d5aaa:	f003 f911 	bl	d8cd0 <HAL_Timer_Get_Milli_Seconds>
   d5aae:	6823      	ldr	r3, [r4, #0]
   d5ab0:	1ac0      	subs	r0, r0, r3
   d5ab2:	4b0a      	ldr	r3, [pc, #40]	; (d5adc <_Z20fireGatewayPingEventv+0x3c>)
   d5ab4:	681b      	ldr	r3, [r3, #0]
   d5ab6:	4298      	cmp	r0, r3
   d5ab8:	d90d      	bls.n	d5ad6 <_Z20fireGatewayPingEventv+0x36>
   d5aba:	f003 f909 	bl	d8cd0 <HAL_Timer_Get_Milli_Seconds>
  {
    lastGatewayEvent = millis();
    Mesh.publish("gateway-ping", NULL);
   d5abe:	4908      	ldr	r1, [pc, #32]	; (d5ae0 <_Z20fireGatewayPingEventv+0x40>)
void fireGatewayPingEvent()
{
  // Make sure that events are at least five seconds apart
  if (lastGatewayEvent == 0 || millis() - lastGatewayEvent > eventDelay)
  {
    lastGatewayEvent = millis();
   d5ac0:	6028      	str	r0, [r5, #0]
    Mesh.publish("gateway-ping", NULL);
   d5ac2:	2200      	movs	r2, #0
   d5ac4:	4807      	ldr	r0, [pc, #28]	; (d5ae4 <_Z20fireGatewayPingEventv+0x44>)
   d5ac6:	f004 f923 	bl	d9d10 <_ZN5spark11MeshPublish7publishEPKcS2_>
   d5aca:	4907      	ldr	r1, [pc, #28]	; (d5ae8 <_Z20fireGatewayPingEventv+0x48>)
   d5acc:	4807      	ldr	r0, [pc, #28]	; (d5aec <_Z20fireGatewayPingEventv+0x4c>)

    menu.MessageBox("Gateway ping!");
  }
}
   d5ace:	e8bd 4038 	ldmia.w	sp!, {r3, r4, r5, lr}
   d5ad2:	f003 b82f 	b.w	d8b34 <_ZN12qMenuDisplay10MessageBoxEPKc>
   d5ad6:	bd38      	pop	{r3, r4, r5, pc}
   d5ad8:	2003e284 	.word	0x2003e284
   d5adc:	2003d844 	.word	0x2003d844
   d5ae0:	000dd597 	.word	0x000dd597
   d5ae4:	2003e408 	.word	0x2003e408
   d5ae8:	000dd5a4 	.word	0x000dd5a4
   d5aec:	2003e260 	.word	0x2003e260

000d5af0 <_ZNSt14__shared_countILN9__gnu_cxx12_Lock_policyE0EED1Ev>:
      explicit __shared_count(const __weak_count<_Lp>& __r);

      // Does not throw if __r._M_get_use_count() == 0, caller must check.
      explicit __shared_count(const __weak_count<_Lp>& __r, std::nothrow_t);

      ~__shared_count() noexcept
   d5af0:	b538      	push	{r3, r4, r5, lr}
      {
	if (_M_pi != nullptr)
   d5af2:	6804      	ldr	r4, [r0, #0]
      explicit __shared_count(const __weak_count<_Lp>& __r);

      // Does not throw if __r._M_get_use_count() == 0, caller must check.
      explicit __shared_count(const __weak_count<_Lp>& __r, std::nothrow_t);

      ~__shared_count() noexcept
   d5af4:	4605      	mov	r5, r0
      {
	if (_M_pi != nullptr)
   d5af6:	b17c      	cbz	r4, d5b18 <_ZNSt14__shared_countILN9__gnu_cxx12_Lock_policyE0EED1Ev+0x28>

  template<>
    inline void
    _Sp_counted_base<_S_single>::_M_release() noexcept
    {
      if (--_M_use_count == 0)
   d5af8:	6863      	ldr	r3, [r4, #4]
   d5afa:	3b01      	subs	r3, #1
   d5afc:	6063      	str	r3, [r4, #4]
   d5afe:	b95b      	cbnz	r3, d5b18 <_ZNSt14__shared_countILN9__gnu_cxx12_Lock_policyE0EED1Ev+0x28>
        {
          _M_dispose();
   d5b00:	6823      	ldr	r3, [r4, #0]
   d5b02:	4620      	mov	r0, r4
   d5b04:	689b      	ldr	r3, [r3, #8]
   d5b06:	4798      	blx	r3
          if (--_M_weak_count == 0)
   d5b08:	68a3      	ldr	r3, [r4, #8]
   d5b0a:	3b01      	subs	r3, #1
   d5b0c:	60a3      	str	r3, [r4, #8]
   d5b0e:	b91b      	cbnz	r3, d5b18 <_ZNSt14__shared_countILN9__gnu_cxx12_Lock_policyE0EED1Ev+0x28>
            _M_destroy();
   d5b10:	6823      	ldr	r3, [r4, #0]
   d5b12:	4620      	mov	r0, r4
   d5b14:	68db      	ldr	r3, [r3, #12]
   d5b16:	4798      	blx	r3

      ~__shared_count() noexcept
      {
	if (_M_pi != nullptr)
	  _M_pi->_M_release();
      }
   d5b18:	4628      	mov	r0, r5
   d5b1a:	bd38      	pop	{r3, r4, r5, pc}

000d5b1c <_Z19fireEnvSensorsEventii>:
unsigned long lastSentZEvent = 0;
unsigned long lastGatewayEvent = 0;
unsigned long eventDelay = 5000;

void fireEnvSensorsEvent(int temp, int humidity)
{
   d5b1c:	b530      	push	{r4, r5, lr}
   d5b1e:	b091      	sub	sp, #68	; 0x44
   d5b20:	4604      	mov	r4, r0
   d5b22:	460d      	mov	r5, r1

class StringSumHelper : public String
{
public:
	StringSumHelper(const String &s) : String(s) {}
	StringSumHelper(const char *p) : String(p) {}
   d5b24:	a808      	add	r0, sp, #32
   d5b26:	491a      	ldr	r1, [pc, #104]	; (d5b90 <_Z19fireEnvSensorsEventii+0x74>)
   d5b28:	f004 fb5f 	bl	da1ea <_ZN6StringC1EPK19__FlashStringHelper>
  Particle.publish("env-sensors", "{\"temp\":" + String(temp) + ",\"humidity\":" + String(humidity) + "}", PRIVATE);
   d5b2c:	220a      	movs	r2, #10
   d5b2e:	4621      	mov	r1, r4
   d5b30:	a804      	add	r0, sp, #16
   d5b32:	f004 fbbd 	bl	da2b0 <_ZN6StringC1Eih>
   d5b36:	a904      	add	r1, sp, #16
   d5b38:	a808      	add	r0, sp, #32
   d5b3a:	f004 fc12 	bl	da362 <_ZplRK15StringSumHelperRK6String>
   d5b3e:	4915      	ldr	r1, [pc, #84]	; (d5b94 <_Z19fireEnvSensorsEventii+0x78>)
   d5b40:	f004 fc1b 	bl	da37a <_ZplRK15StringSumHelperPKc>
   d5b44:	220a      	movs	r2, #10
   d5b46:	4604      	mov	r4, r0
   d5b48:	4629      	mov	r1, r5
   d5b4a:	a80c      	add	r0, sp, #48	; 0x30
   d5b4c:	f004 fbb0 	bl	da2b0 <_ZN6StringC1Eih>
   d5b50:	a90c      	add	r1, sp, #48	; 0x30
   d5b52:	4620      	mov	r0, r4
   d5b54:	f004 fc05 	bl	da362 <_ZplRK15StringSumHelperRK6String>
   d5b58:	490f      	ldr	r1, [pc, #60]	; (d5b98 <_Z19fireEnvSensorsEventii+0x7c>)
   d5b5a:	f004 fc0e 	bl	da37a <_ZplRK15StringSumHelperPKc>
   d5b5e:	4b0f      	ldr	r3, [pc, #60]	; (d5b9c <_Z19fireEnvSensorsEventii+0x80>)
   d5b60:	6802      	ldr	r2, [r0, #0]
   d5b62:	781b      	ldrb	r3, [r3, #0]
        return publish(eventName, eventData, 60, flags1, flags2);
    }

    inline particle::Future<bool> publish(const char *eventName, const char *eventData, int ttl, PublishFlags flags1, PublishFlags flags2 = PublishFlags())
    {
        return publish_event(eventName, eventData, ttl, flags1 | flags2);
   d5b64:	490e      	ldr	r1, [pc, #56]	; (d5ba0 <_Z19fireEnvSensorsEventii+0x84>)
   d5b66:	f88d 3000 	strb.w	r3, [sp]
   d5b6a:	a802      	add	r0, sp, #8
   d5b6c:	233c      	movs	r3, #60	; 0x3c
   d5b6e:	f003 fd31 	bl	d95d4 <_ZN10CloudClass13publish_eventEPKcS1_iN8particle5FlagsI15PublishFlagTypehEE>
	: _M_ptr(__p), _M_refcount(__r._M_refcount) // never throws
	{ }

      __shared_ptr(const __shared_ptr&) noexcept = default;
      __shared_ptr& operator=(const __shared_ptr&) noexcept = default;
      ~__shared_ptr() = default;
   d5b72:	a803      	add	r0, sp, #12
   d5b74:	f7ff ffbc 	bl	d5af0 <_ZNSt14__shared_countILN9__gnu_cxx12_Lock_policyE0EED1Ev>
   d5b78:	a80c      	add	r0, sp, #48	; 0x30
   d5b7a:	f004 faef 	bl	da15c <_ZN6StringD1Ev>
   d5b7e:	a804      	add	r0, sp, #16
   d5b80:	f004 faec 	bl	da15c <_ZN6StringD1Ev>

        friend class StringPrintableHelper;

};

class StringSumHelper : public String
   d5b84:	a808      	add	r0, sp, #32
   d5b86:	f004 fae9 	bl	da15c <_ZN6StringD1Ev>
}
   d5b8a:	b011      	add	sp, #68	; 0x44
   d5b8c:	bd30      	pop	{r4, r5, pc}
   d5b8e:	bf00      	nop
   d5b90:	000dd5b2 	.word	0x000dd5b2
   d5b94:	000dd5bb 	.word	0x000dd5bb
   d5b98:	000dd5c8 	.word	0x000dd5c8
   d5b9c:	2003e27c 	.word	0x2003e27c
   d5ba0:	000dd5ca 	.word	0x000dd5ca

000d5ba4 <_Z16fireBatteryEventi>:

void fireBatteryEvent(int battery)
{
   d5ba4:	b500      	push	{lr}
   d5ba6:	b089      	sub	sp, #36	; 0x24
  Particle.publish("battery-charge", String(battery), PRIVATE);
   d5ba8:	4601      	mov	r1, r0
   d5baa:	220a      	movs	r2, #10
   d5bac:	a804      	add	r0, sp, #16
   d5bae:	f004 fb7f 	bl	da2b0 <_ZN6StringC1Eih>
   d5bb2:	4b09      	ldr	r3, [pc, #36]	; (d5bd8 <_Z16fireBatteryEventi+0x34>)
   d5bb4:	9a04      	ldr	r2, [sp, #16]
   d5bb6:	781b      	ldrb	r3, [r3, #0]
   d5bb8:	4908      	ldr	r1, [pc, #32]	; (d5bdc <_Z16fireBatteryEventi+0x38>)
   d5bba:	f88d 3000 	strb.w	r3, [sp]
   d5bbe:	a802      	add	r0, sp, #8
   d5bc0:	233c      	movs	r3, #60	; 0x3c
   d5bc2:	f003 fd07 	bl	d95d4 <_ZN10CloudClass13publish_eventEPKcS1_iN8particle5FlagsI15PublishFlagTypehEE>
   d5bc6:	a803      	add	r0, sp, #12
   d5bc8:	f7ff ff92 	bl	d5af0 <_ZNSt14__shared_countILN9__gnu_cxx12_Lock_policyE0EED1Ev>
   d5bcc:	a804      	add	r0, sp, #16
   d5bce:	f004 fac5 	bl	da15c <_ZN6StringD1Ev>
}
   d5bd2:	b009      	add	sp, #36	; 0x24
   d5bd4:	f85d fb04 	ldr.w	pc, [sp], #4
   d5bd8:	2003e27c 	.word	0x2003e27c
   d5bdc:	000dd5d6 	.word	0x000dd5d6

000d5be0 <_GLOBAL__sub_I_lastSentTowerEvent>:
} // namespace particle

// particle::Flag<TagT, ValueT>
template<typename TagT, typename ValueT>
inline particle::Flag<TagT, ValueT>::Flag(ValueT val) :
        val_(val) {
   d5be0:	4b01      	ldr	r3, [pc, #4]	; (d5be8 <_GLOBAL__sub_I_lastSentTowerEvent+0x8>)
   d5be2:	2201      	movs	r2, #1
   d5be4:	701a      	strb	r2, [r3, #0]
   d5be6:	4770      	bx	lr
   d5be8:	2003e27c 	.word	0x2003e27c

000d5bec <_Z16drawFilledCircleii>:
extern byte appmode;
extern byte btncounter;
extern byte btnid;

void drawFilledCircle(int displayX, int displayY)
{
   d5bec:	b5f7      	push	{r0, r1, r2, r4, r5, r6, r7, lr}
  display.drawCircle(displayX, displayY, 1, WHITE);
   d5bee:	4c16      	ldr	r4, [pc, #88]	; (d5c48 <_Z16drawFilledCircleii+0x5c>)
   d5bf0:	b206      	sxth	r6, r0
   d5bf2:	b20f      	sxth	r7, r1
   d5bf4:	2501      	movs	r5, #1
   d5bf6:	462b      	mov	r3, r5
   d5bf8:	463a      	mov	r2, r7
   d5bfa:	4631      	mov	r1, r6
   d5bfc:	4620      	mov	r0, r4
   d5bfe:	9500      	str	r5, [sp, #0]
   d5c00:	f001 fbaa 	bl	d7358 <_ZN12Adafruit_GFX10drawCircleEssst>
  display.drawCircle(displayX, displayY, 2, WHITE);
   d5c04:	463a      	mov	r2, r7
   d5c06:	4631      	mov	r1, r6
   d5c08:	4620      	mov	r0, r4
   d5c0a:	9500      	str	r5, [sp, #0]
   d5c0c:	2302      	movs	r3, #2
   d5c0e:	f001 fba3 	bl	d7358 <_ZN12Adafruit_GFX10drawCircleEssst>
  display.drawCircle(displayX, displayY, 3, WHITE);
   d5c12:	463a      	mov	r2, r7
   d5c14:	4631      	mov	r1, r6
   d5c16:	4620      	mov	r0, r4
   d5c18:	9500      	str	r5, [sp, #0]
   d5c1a:	2303      	movs	r3, #3
   d5c1c:	f001 fb9c 	bl	d7358 <_ZN12Adafruit_GFX10drawCircleEssst>
  display.drawCircle(displayX, displayY, 4, WHITE);
   d5c20:	463a      	mov	r2, r7
   d5c22:	4631      	mov	r1, r6
   d5c24:	4620      	mov	r0, r4
   d5c26:	9500      	str	r5, [sp, #0]
   d5c28:	2304      	movs	r3, #4
   d5c2a:	f001 fb95 	bl	d7358 <_ZN12Adafruit_GFX10drawCircleEssst>
  display.drawCircle(displayX, displayY, 5, WHITE);
   d5c2e:	4620      	mov	r0, r4
   d5c30:	9500      	str	r5, [sp, #0]
   d5c32:	2305      	movs	r3, #5
   d5c34:	463a      	mov	r2, r7
   d5c36:	4631      	mov	r1, r6
   d5c38:	f001 fb8e 	bl	d7358 <_ZN12Adafruit_GFX10drawCircleEssst>
  display.display();
   d5c3c:	4620      	mov	r0, r4
}
   d5c3e:	b003      	add	sp, #12
   d5c40:	e8bd 40f0 	ldmia.w	sp!, {r4, r5, r6, r7, lr}
  display.drawCircle(displayX, displayY, 1, WHITE);
  display.drawCircle(displayX, displayY, 2, WHITE);
  display.drawCircle(displayX, displayY, 3, WHITE);
  display.drawCircle(displayX, displayY, 4, WHITE);
  display.drawCircle(displayX, displayY, 5, WHITE);
  display.display();
   d5c44:	f002 bc66 	b.w	d8514 <_ZN16Adafruit_SSD13067displayEv>
   d5c48:	2003e1ec 	.word	0x2003e1ec

000d5c4c <_Z15initEtchASketchv>:
}

// Init Etch A Sketch mode on the OLED
void initEtchASketch()
{
   d5c4c:	b510      	push	{r4, lr}
  clearScreen();
  display.setTextSize(2);
   d5c4e:	4c13      	ldr	r4, [pc, #76]	; (d5c9c <_Z15initEtchASketchv+0x50>)
}

// Init Etch A Sketch mode on the OLED
void initEtchASketch()
{
  clearScreen();
   d5c50:	f7ff fbe2 	bl	d5418 <_Z11clearScreenv>
  display.setTextSize(2);
   d5c54:	4620      	mov	r0, r4
   d5c56:	2102      	movs	r1, #2
   d5c58:	f002 f8a2 	bl	d7da0 <_ZN12Adafruit_GFX11setTextSizeEh>
  display.setCursor(1, 18);
   d5c5c:	2212      	movs	r2, #18
   d5c5e:	4620      	mov	r0, r4
   d5c60:	2101      	movs	r1, #1
   d5c62:	f002 f89a 	bl	d7d9a <_ZN12Adafruit_GFX9setCursorEss>
  display.println("  Etch A");
   d5c66:	490e      	ldr	r1, [pc, #56]	; (d5ca0 <_Z15initEtchASketchv+0x54>)
   d5c68:	4620      	mov	r0, r4
   d5c6a:	f004 f924 	bl	d9eb6 <_ZN5Print7printlnEPKc>
  display.println("  Sketch");
   d5c6e:	490d      	ldr	r1, [pc, #52]	; (d5ca4 <_Z15initEtchASketchv+0x58>)
   d5c70:	4620      	mov	r0, r4
   d5c72:	f004 f920 	bl	d9eb6 <_ZN5Print7printlnEPKc>
  display.setTextSize(1);
   d5c76:	4620      	mov	r0, r4
   d5c78:	2101      	movs	r1, #1
   d5c7a:	f002 f891 	bl	d7da0 <_ZN12Adafruit_GFX11setTextSizeEh>
  display.println("Use the joystick...");
   d5c7e:	490a      	ldr	r1, [pc, #40]	; (d5ca8 <_Z15initEtchASketchv+0x5c>)
   d5c80:	4620      	mov	r0, r4
   d5c82:	f004 f918 	bl	d9eb6 <_ZN5Print7printlnEPKc>
  display.display();
   d5c86:	4620      	mov	r0, r4
   d5c88:	f002 fc44 	bl	d8514 <_ZN16Adafruit_SSD13067displayEv>
  delay(2000);
   d5c8c:	f44f 60fa 	mov.w	r0, #2000	; 0x7d0
   d5c90:	f003 fb1e 	bl	d92d0 <delay>
  clearScreen();
}
   d5c94:	e8bd 4010 	ldmia.w	sp!, {r4, lr}
  display.println("  Sketch");
  display.setTextSize(1);
  display.println("Use the joystick...");
  display.display();
  delay(2000);
  clearScreen();
   d5c98:	f7ff bbbe 	b.w	d5418 <_Z11clearScreenv>
   d5c9c:	2003e1ec 	.word	0x2003e1ec
   d5ca0:	000dd5e5 	.word	0x000dd5e5
   d5ca4:	000dd5ee 	.word	0x000dd5ee
   d5ca8:	000dd5f7 	.word	0x000dd5f7

000d5cac <_Z11etchASketchv>:
}

// Update the display during Etch A Sketch Mode. Draw a new filled circle
// based on the which joystick direction was used.
void etchASketch()
{
   d5cac:	e92d 41f0 	stmdb	sp!, {r4, r5, r6, r7, r8, lr}
  appmode = 1;
   d5cb0:	4e33      	ldr	r6, [pc, #204]	; (d5d80 <_Z11etchASketchv+0xd4>)
  btnid = 0;
  int displayX = display.width() / 2;
   d5cb2:	4834      	ldr	r0, [pc, #208]	; (d5d84 <_Z11etchASketchv+0xd8>)

// Update the display during Etch A Sketch Mode. Draw a new filled circle
// based on the which joystick direction was used.
void etchASketch()
{
  appmode = 1;
   d5cb4:	2301      	movs	r3, #1
   d5cb6:	7033      	strb	r3, [r6, #0]
  btnid = 0;
   d5cb8:	4b33      	ldr	r3, [pc, #204]	; (d5d88 <_Z11etchASketchv+0xdc>)
   d5cba:	2200      	movs	r2, #0
   d5cbc:	701a      	strb	r2, [r3, #0]
  int displayX = display.width() / 2;
   d5cbe:	f002 f87b 	bl	d7db8 <_ZN12Adafruit_GFX5widthEv>
   d5cc2:	2402      	movs	r4, #2
   d5cc4:	fb90 f0f4 	sdiv	r0, r0, r4
   d5cc8:	b205      	sxth	r5, r0
  int displayY = display.height() / 2;
   d5cca:	482e      	ldr	r0, [pc, #184]	; (d5d84 <_Z11etchASketchv+0xd8>)
   d5ccc:	f002 f877 	bl	d7dbe <_ZN12Adafruit_GFX6heightEv>
   d5cd0:	fb90 f0f4 	sdiv	r0, r0, r4
   d5cd4:	b204      	sxth	r4, r0

  initEtchASketch();
   d5cd6:	f7ff ffb9 	bl	d5c4c <_Z15initEtchASketchv>
  drawFilledCircle(displayX, displayY);
   d5cda:	4621      	mov	r1, r4
   d5cdc:	4628      	mov	r0, r5
   d5cde:	f7ff ff85 	bl	d5bec <_Z16drawFilledCircleii>

  setupLEDButtonInterrupt();
   d5ce2:	f000 fcbf 	bl	d6664 <_Z23setupLEDButtonInterruptv>
   d5ce6:	46b0      	mov	r8, r6

  while (appmode)
   d5ce8:	f898 3000 	ldrb.w	r3, [r8]
   d5cec:	2b00      	cmp	r3, #0
   d5cee:	d045      	beq.n	d5d7c <_Z11etchASketchv+0xd0>
  {
    int lastY = displayY;
    int lastX = displayX;

    joystickUpDebouncer.update();
   d5cf0:	4826      	ldr	r0, [pc, #152]	; (d5d8c <_Z11etchASketchv+0xe0>)
   d5cf2:	f002 fe5f 	bl	d89b4 <_ZN8Debounce6updateEv>
    if (joystickUpDebouncer.read() == LOW)
   d5cf6:	4825      	ldr	r0, [pc, #148]	; (d5d8c <_Z11etchASketchv+0xe0>)
   d5cf8:	f002 fe8c 	bl	d8a14 <_ZN8Debounce4readEv>
   d5cfc:	b908      	cbnz	r0, d5d02 <_Z11etchASketchv+0x56>
    {
      displayY--;
   d5cfe:	1e67      	subs	r7, r4, #1
   d5d00:	e000      	b.n	d5d04 <_Z11etchASketchv+0x58>
   d5d02:	4627      	mov	r7, r4
    }

    joystickDownDebouncer.update();
   d5d04:	4822      	ldr	r0, [pc, #136]	; (d5d90 <_Z11etchASketchv+0xe4>)
   d5d06:	f002 fe55 	bl	d89b4 <_ZN8Debounce6updateEv>
    if (joystickDownDebouncer.read() == LOW)
   d5d0a:	4821      	ldr	r0, [pc, #132]	; (d5d90 <_Z11etchASketchv+0xe4>)
   d5d0c:	f002 fe82 	bl	d8a14 <_ZN8Debounce4readEv>
   d5d10:	b900      	cbnz	r0, d5d14 <_Z11etchASketchv+0x68>
    {
      displayY++;
   d5d12:	3701      	adds	r7, #1
    }

    joystickLeftDebouncer.update();
   d5d14:	481f      	ldr	r0, [pc, #124]	; (d5d94 <_Z11etchASketchv+0xe8>)
   d5d16:	f002 fe4d 	bl	d89b4 <_ZN8Debounce6updateEv>
    if (joystickLeftDebouncer.read() == LOW)
   d5d1a:	481e      	ldr	r0, [pc, #120]	; (d5d94 <_Z11etchASketchv+0xe8>)
   d5d1c:	f002 fe7a 	bl	d8a14 <_ZN8Debounce4readEv>
   d5d20:	b908      	cbnz	r0, d5d26 <_Z11etchASketchv+0x7a>
    {
      displayX--;
   d5d22:	1e6e      	subs	r6, r5, #1
   d5d24:	e000      	b.n	d5d28 <_Z11etchASketchv+0x7c>
   d5d26:	462e      	mov	r6, r5
    }

    joystickRightDebouncer.update();
   d5d28:	481b      	ldr	r0, [pc, #108]	; (d5d98 <_Z11etchASketchv+0xec>)
   d5d2a:	f002 fe43 	bl	d89b4 <_ZN8Debounce6updateEv>
    if (joystickRightDebouncer.read() == LOW)
   d5d2e:	481a      	ldr	r0, [pc, #104]	; (d5d98 <_Z11etchASketchv+0xec>)
   d5d30:	f002 fe70 	bl	d8a14 <_ZN8Debounce4readEv>
   d5d34:	b900      	cbnz	r0, d5d38 <_Z11etchASketchv+0x8c>
    {
      displayX++;
   d5d36:	3601      	adds	r6, #1
    }

    if ((lastX != displayX) || (lastY != displayY))
   d5d38:	42b5      	cmp	r5, r6
   d5d3a:	d101      	bne.n	d5d40 <_Z11etchASketchv+0x94>
   d5d3c:	42bc      	cmp	r4, r7
   d5d3e:	d003      	beq.n	d5d48 <_Z11etchASketchv+0x9c>
    {
      drawFilledCircle(displayX, displayY);
   d5d40:	4639      	mov	r1, r7
   d5d42:	4630      	mov	r0, r6
   d5d44:	f7ff ff52 	bl	d5bec <_Z16drawFilledCircleii>
    }

    // Reset the screen
    joystickCenterDebouncer.update();
   d5d48:	4814      	ldr	r0, [pc, #80]	; (d5d9c <_Z11etchASketchv+0xf0>)
   d5d4a:	f002 fe33 	bl	d89b4 <_ZN8Debounce6updateEv>
    if (joystickCenterDebouncer.read() == LOW)
   d5d4e:	4813      	ldr	r0, [pc, #76]	; (d5d9c <_Z11etchASketchv+0xf0>)
   d5d50:	f002 fe60 	bl	d8a14 <_ZN8Debounce4readEv>
   d5d54:	b110      	cbz	r0, d5d5c <_Z11etchASketchv+0xb0>
   d5d56:	463c      	mov	r4, r7
   d5d58:	4635      	mov	r5, r6
   d5d5a:	e7c5      	b.n	d5ce8 <_Z11etchASketchv+0x3c>
    {
      clearScreen();
   d5d5c:	f7ff fb5c 	bl	d5418 <_Z11clearScreenv>
      displayX = display.width() / 2;
   d5d60:	4808      	ldr	r0, [pc, #32]	; (d5d84 <_Z11etchASketchv+0xd8>)
   d5d62:	f002 f829 	bl	d7db8 <_ZN12Adafruit_GFX5widthEv>
   d5d66:	2402      	movs	r4, #2
   d5d68:	fb90 f0f4 	sdiv	r0, r0, r4
   d5d6c:	b205      	sxth	r5, r0
      displayY = display.height() / 2;
   d5d6e:	4805      	ldr	r0, [pc, #20]	; (d5d84 <_Z11etchASketchv+0xd8>)
   d5d70:	f002 f825 	bl	d7dbe <_ZN12Adafruit_GFX6heightEv>
   d5d74:	fb90 f0f4 	sdiv	r0, r0, r4
   d5d78:	b204      	sxth	r4, r0
   d5d7a:	e7b5      	b.n	d5ce8 <_Z11etchASketchv+0x3c>
   d5d7c:	e8bd 81f0 	ldmia.w	sp!, {r4, r5, r6, r7, r8, pc}
   d5d80:	2003e21a 	.word	0x2003e21a
   d5d84:	2003e1ec 	.word	0x2003e1ec
   d5d88:	2003e22c 	.word	0x2003e22c
   d5d8c:	2003e2e8 	.word	0x2003e2e8
   d5d90:	2003e2f0 	.word	0x2003e2f0
   d5d94:	2003e300 	.word	0x2003e300
   d5d98:	2003e2c0 	.word	0x2003e2c0
   d5d9c:	2003e2c8 	.word	0x2003e2c8

000d5da0 <_Z11outOfBoundsv>:
int foodX = 0;
int foodY = 0;

bool outOfBounds()
{
  return snakeX <= minX || snakeY <= minY || snakeX >= maxX || snakeY >= maxY;
   d5da0:	4b0c      	ldr	r3, [pc, #48]	; (d5dd4 <_Z11outOfBoundsv+0x34>)
   d5da2:	681a      	ldr	r2, [r3, #0]
   d5da4:	4b0c      	ldr	r3, [pc, #48]	; (d5dd8 <_Z11outOfBoundsv+0x38>)
   d5da6:	681b      	ldr	r3, [r3, #0]
   d5da8:	429a      	cmp	r2, r3
   d5daa:	dd10      	ble.n	d5dce <_Z11outOfBoundsv+0x2e>
   d5dac:	4b0b      	ldr	r3, [pc, #44]	; (d5ddc <_Z11outOfBoundsv+0x3c>)
   d5dae:	490c      	ldr	r1, [pc, #48]	; (d5de0 <_Z11outOfBoundsv+0x40>)
   d5db0:	681b      	ldr	r3, [r3, #0]
   d5db2:	6809      	ldr	r1, [r1, #0]
   d5db4:	428b      	cmp	r3, r1
   d5db6:	dd0a      	ble.n	d5dce <_Z11outOfBoundsv+0x2e>
   d5db8:	490a      	ldr	r1, [pc, #40]	; (d5de4 <_Z11outOfBoundsv+0x44>)
   d5dba:	6809      	ldr	r1, [r1, #0]
   d5dbc:	428a      	cmp	r2, r1
   d5dbe:	da06      	bge.n	d5dce <_Z11outOfBoundsv+0x2e>
   d5dc0:	4a09      	ldr	r2, [pc, #36]	; (d5de8 <_Z11outOfBoundsv+0x48>)
   d5dc2:	6810      	ldr	r0, [r2, #0]
   d5dc4:	4283      	cmp	r3, r0
   d5dc6:	bfb4      	ite	lt
   d5dc8:	2000      	movlt	r0, #0
   d5dca:	2001      	movge	r0, #1
   d5dcc:	4770      	bx	lr
   d5dce:	2001      	movs	r0, #1
}
   d5dd0:	4770      	bx	lr
   d5dd2:	bf00      	nop
   d5dd4:	2003d858 	.word	0x2003d858
   d5dd8:	2003e2b4 	.word	0x2003e2b4
   d5ddc:	2003d85c 	.word	0x2003d85c
   d5de0:	2003d848 	.word	0x2003d848
   d5de4:	2003d850 	.word	0x2003d850
   d5de8:	2003d854 	.word	0x2003d854

000d5dec <_Z8dropFoodv>:
  renderScore();
}

// Drop food on random location
void dropFood()
{
   d5dec:	b508      	push	{r3, lr}
  foodX = random(minX + 1, maxX - 1);
   d5dee:	4b0a      	ldr	r3, [pc, #40]	; (d5e18 <_Z8dropFoodv+0x2c>)
   d5df0:	6819      	ldr	r1, [r3, #0]
   d5df2:	4b0a      	ldr	r3, [pc, #40]	; (d5e1c <_Z8dropFoodv+0x30>)
   d5df4:	6818      	ldr	r0, [r3, #0]
   d5df6:	3901      	subs	r1, #1
   d5df8:	3001      	adds	r0, #1
   d5dfa:	f004 f8fe 	bl	d9ffa <_Z6randomii>
   d5dfe:	4b08      	ldr	r3, [pc, #32]	; (d5e20 <_Z8dropFoodv+0x34>)
   d5e00:	6018      	str	r0, [r3, #0]
  foodY = random(minY + 1, maxY - 1);
   d5e02:	4b08      	ldr	r3, [pc, #32]	; (d5e24 <_Z8dropFoodv+0x38>)
   d5e04:	6819      	ldr	r1, [r3, #0]
   d5e06:	4b08      	ldr	r3, [pc, #32]	; (d5e28 <_Z8dropFoodv+0x3c>)
   d5e08:	6818      	ldr	r0, [r3, #0]
   d5e0a:	3901      	subs	r1, #1
   d5e0c:	3001      	adds	r0, #1
   d5e0e:	f004 f8f4 	bl	d9ffa <_Z6randomii>
   d5e12:	4b06      	ldr	r3, [pc, #24]	; (d5e2c <_Z8dropFoodv+0x40>)
   d5e14:	6018      	str	r0, [r3, #0]
   d5e16:	bd08      	pop	{r3, pc}
   d5e18:	2003d850 	.word	0x2003d850
   d5e1c:	2003e2b4 	.word	0x2003e2b4
   d5e20:	2003e2b8 	.word	0x2003e2b8
   d5e24:	2003d854 	.word	0x2003d854
   d5e28:	2003d848 	.word	0x2003d848
   d5e2c:	2003e2bc 	.word	0x2003e2bc

000d5e30 <_Z15crashedIntoSelfv>:
    return false;
  }
}

bool crashedIntoSelf()
{
   d5e30:	b570      	push	{r4, r5, r6, lr}
  for (byte i = 4; i < snakeLength; i++)
   d5e32:	4b0c      	ldr	r3, [pc, #48]	; (d5e64 <_Z15crashedIntoSelfv+0x34>)
  {
    if (snakeX == snakePixelX[i] && snakeY == snakePixelY[i])
   d5e34:	4c0c      	ldr	r4, [pc, #48]	; (d5e68 <_Z15crashedIntoSelfv+0x38>)
  }
}

bool crashedIntoSelf()
{
  for (byte i = 4; i < snakeLength; i++)
   d5e36:	681a      	ldr	r2, [r3, #0]
  {
    if (snakeX == snakePixelX[i] && snakeY == snakePixelY[i])
   d5e38:	4b0c      	ldr	r3, [pc, #48]	; (d5e6c <_Z15crashedIntoSelfv+0x3c>)
   d5e3a:	4d0d      	ldr	r5, [pc, #52]	; (d5e70 <_Z15crashedIntoSelfv+0x40>)
   d5e3c:	6819      	ldr	r1, [r3, #0]
   d5e3e:	4b0d      	ldr	r3, [pc, #52]	; (d5e74 <_Z15crashedIntoSelfv+0x44>)
   d5e40:	6818      	ldr	r0, [r3, #0]
  }
}

bool crashedIntoSelf()
{
  for (byte i = 4; i < snakeLength; i++)
   d5e42:	2304      	movs	r3, #4
   d5e44:	4293      	cmp	r3, r2
   d5e46:	da08      	bge.n	d5e5a <_Z15crashedIntoSelfv+0x2a>
  {
    if (snakeX == snakePixelX[i] && snakeY == snakePixelY[i])
   d5e48:	5ce6      	ldrb	r6, [r4, r3]
   d5e4a:	428e      	cmp	r6, r1
   d5e4c:	d102      	bne.n	d5e54 <_Z15crashedIntoSelfv+0x24>
   d5e4e:	5cee      	ldrb	r6, [r5, r3]
   d5e50:	4286      	cmp	r6, r0
   d5e52:	d004      	beq.n	d5e5e <_Z15crashedIntoSelfv+0x2e>
  }
}

bool crashedIntoSelf()
{
  for (byte i = 4; i < snakeLength; i++)
   d5e54:	3301      	adds	r3, #1
   d5e56:	b2db      	uxtb	r3, r3
   d5e58:	e7f4      	b.n	d5e44 <_Z15crashedIntoSelfv+0x14>
    {
      return true;
    }
  }

  return false;
   d5e5a:	2000      	movs	r0, #0
   d5e5c:	bd70      	pop	{r4, r5, r6, pc}
{
  for (byte i = 4; i < snakeLength; i++)
  {
    if (snakeX == snakePixelX[i] && snakeY == snakePixelY[i])
    {
      return true;
   d5e5e:	2001      	movs	r0, #1
    }
  }

  return false;
}
   d5e60:	bd70      	pop	{r4, r5, r6, pc}
   d5e62:	bf00      	nop
   d5e64:	2003d860 	.word	0x2003d860
   d5e68:	2003e2a0 	.word	0x2003e2a0
   d5e6c:	2003d858 	.word	0x2003d858
   d5e70:	2003e288 	.word	0x2003e288
   d5e74:	2003d85c 	.word	0x2003d85c

000d5e78 <_Z11renderScorev>:
{
  return snakeX <= minX || snakeY <= minY || snakeX >= maxX || snakeY >= maxY;
}

void renderScore()
{
   d5e78:	e92d 43f0 	stmdb	sp!, {r4, r5, r6, r7, r8, r9, lr}
  display.fillRect(0, 0, display.width() - 1, 8, BLACK);
   d5e7c:	4c3e      	ldr	r4, [pc, #248]	; (d5f78 <_Z11renderScorev+0x100>)
{
  return snakeX <= minX || snakeY <= minY || snakeX >= maxX || snakeY >= maxY;
}

void renderScore()
{
   d5e7e:	b087      	sub	sp, #28
  display.fillRect(0, 0, display.width() - 1, 8, BLACK);
   d5e80:	4620      	mov	r0, r4
   d5e82:	f001 ff99 	bl	d7db8 <_ZN12Adafruit_GFX5widthEv>
   d5e86:	2500      	movs	r5, #0
   d5e88:	2608      	movs	r6, #8
   d5e8a:	1e43      	subs	r3, r0, #1
   d5e8c:	b21b      	sxth	r3, r3
   d5e8e:	462a      	mov	r2, r5
   d5e90:	9600      	str	r6, [sp, #0]
   d5e92:	4629      	mov	r1, r5
   d5e94:	4620      	mov	r0, r4
   d5e96:	9501      	str	r5, [sp, #4]
   d5e98:	f001 fa1d 	bl	d72d6 <_ZN12Adafruit_GFX8fillRectEsssst>

  display.setTextSize(1);
   d5e9c:	4620      	mov	r0, r4
   d5e9e:	2101      	movs	r1, #1
   d5ea0:	f001 ff7e 	bl	d7da0 <_ZN12Adafruit_GFX11setTextSizeEh>
  display.setTextColor(WHITE);
   d5ea4:	4620      	mov	r0, r4
   d5ea6:	2101      	movs	r1, #1
   d5ea8:	f001 ff7f 	bl	d7daa <_ZN12Adafruit_GFX12setTextColorEt>
  display.setCursor(0, 0);
   d5eac:	462a      	mov	r2, r5
   d5eae:	4629      	mov	r1, r5
   d5eb0:	4620      	mov	r0, r4
   d5eb2:	f001 ff72 	bl	d7d9a <_ZN12Adafruit_GFX9setCursorEss>

  display.print("Score: ");
   d5eb6:	4931      	ldr	r1, [pc, #196]	; (d5f7c <_Z11renderScorev+0x104>)
   d5eb8:	4620      	mov	r0, r4
   d5eba:	f003 ffe9 	bl	d9e90 <_ZN5Print5printEPKc>
  display.print(String(score, DEC));
   d5ebe:	4b30      	ldr	r3, [pc, #192]	; (d5f80 <_Z11renderScorev+0x108>)
   d5ec0:	220a      	movs	r2, #10
   d5ec2:	6819      	ldr	r1, [r3, #0]
   d5ec4:	eb0d 0006 	add.w	r0, sp, r6
   d5ec8:	f004 fa05 	bl	da2d6 <_ZN6StringC1Elh>
   d5ecc:	9902      	ldr	r1, [sp, #8]
   d5ece:	4620      	mov	r0, r4
   d5ed0:	f003 ffde 	bl	d9e90 <_ZN5Print5printEPKc>
   d5ed4:	eb0d 0006 	add.w	r0, sp, r6
   d5ed8:	f004 f940 	bl	da15c <_ZN6StringD1Ev>

  // TOP
  display.drawLine(0, 8, display.width() - 1, 8, WHITE);
   d5edc:	4620      	mov	r0, r4
   d5ede:	f001 ff6b 	bl	d7db8 <_ZN12Adafruit_GFX5widthEv>
   d5ee2:	2701      	movs	r7, #1
   d5ee4:	1e43      	subs	r3, r0, #1
   d5ee6:	4632      	mov	r2, r6
   d5ee8:	4629      	mov	r1, r5
   d5eea:	e88d 00c0 	stmia.w	sp, {r6, r7}
   d5eee:	b21b      	sxth	r3, r3
   d5ef0:	4620      	mov	r0, r4
   d5ef2:	f001 f945 	bl	d7180 <_ZN12Adafruit_GFX8drawLineEsssst>
  // LEFT
  display.drawLine(0, 8, 0, display.height() - 1, WHITE);
   d5ef6:	4620      	mov	r0, r4
   d5ef8:	f001 ff61 	bl	d7dbe <_ZN12Adafruit_GFX6heightEv>
   d5efc:	3801      	subs	r0, #1
   d5efe:	b200      	sxth	r0, r0
   d5f00:	462b      	mov	r3, r5
   d5f02:	4632      	mov	r2, r6
   d5f04:	4629      	mov	r1, r5
   d5f06:	9000      	str	r0, [sp, #0]
   d5f08:	9701      	str	r7, [sp, #4]
   d5f0a:	4620      	mov	r0, r4
   d5f0c:	f001 f938 	bl	d7180 <_ZN12Adafruit_GFX8drawLineEsssst>
  // RIGHT
  display.drawLine(display.width() - 1, 8, display.width() - 1, display.height() - 1, WHITE);
   d5f10:	4620      	mov	r0, r4
   d5f12:	f001 ff51 	bl	d7db8 <_ZN12Adafruit_GFX5widthEv>
   d5f16:	4680      	mov	r8, r0
   d5f18:	4620      	mov	r0, r4
   d5f1a:	f001 ff4d 	bl	d7db8 <_ZN12Adafruit_GFX5widthEv>
   d5f1e:	4681      	mov	r9, r0
   d5f20:	4620      	mov	r0, r4
   d5f22:	f001 ff4c 	bl	d7dbe <_ZN12Adafruit_GFX6heightEv>
   d5f26:	3801      	subs	r0, #1
   d5f28:	f109 33ff 	add.w	r3, r9, #4294967295	; 0xffffffff
   d5f2c:	f108 31ff 	add.w	r1, r8, #4294967295	; 0xffffffff
   d5f30:	b200      	sxth	r0, r0
   d5f32:	4632      	mov	r2, r6
   d5f34:	b21b      	sxth	r3, r3
   d5f36:	b209      	sxth	r1, r1
   d5f38:	9000      	str	r0, [sp, #0]
   d5f3a:	9701      	str	r7, [sp, #4]
   d5f3c:	4620      	mov	r0, r4
   d5f3e:	f001 f91f 	bl	d7180 <_ZN12Adafruit_GFX8drawLineEsssst>
  // BOTTOM
  display.drawLine(0, display.height() - 1, display.width() - 1, display.height() - 1, WHITE);
   d5f42:	4620      	mov	r0, r4
   d5f44:	f001 ff3b 	bl	d7dbe <_ZN12Adafruit_GFX6heightEv>
   d5f48:	4606      	mov	r6, r0
   d5f4a:	4620      	mov	r0, r4
   d5f4c:	f001 ff34 	bl	d7db8 <_ZN12Adafruit_GFX5widthEv>
   d5f50:	4680      	mov	r8, r0
   d5f52:	4620      	mov	r0, r4
   d5f54:	f001 ff33 	bl	d7dbe <_ZN12Adafruit_GFX6heightEv>
   d5f58:	3801      	subs	r0, #1
   d5f5a:	f108 33ff 	add.w	r3, r8, #4294967295	; 0xffffffff
   d5f5e:	1e72      	subs	r2, r6, #1
   d5f60:	b200      	sxth	r0, r0
   d5f62:	9000      	str	r0, [sp, #0]
   d5f64:	9701      	str	r7, [sp, #4]
   d5f66:	b21b      	sxth	r3, r3
   d5f68:	b212      	sxth	r2, r2
   d5f6a:	4629      	mov	r1, r5
   d5f6c:	4620      	mov	r0, r4
   d5f6e:	f001 f907 	bl	d7180 <_ZN12Adafruit_GFX8drawLineEsssst>
}
   d5f72:	b007      	add	sp, #28
   d5f74:	e8bd 83f0 	ldmia.w	sp!, {r4, r5, r6, r7, r8, r9, pc}
   d5f78:	2003e1ec 	.word	0x2003e1ec
   d5f7c:	000dd60b 	.word	0x000dd60b
   d5f80:	2003e29c 	.word	0x2003e29c

000d5f84 <_Z8gameOverv>:

void gameOver()
{
   d5f84:	b5f8      	push	{r3, r4, r5, r6, r7, lr}
  display.clearDisplay();
   d5f86:	4c1e      	ldr	r4, [pc, #120]	; (d6000 <_Z8gameOverv+0x7c>)
  display.setCursor(5, 5);
  display.print("GAME OVER :(");
  display.display();

  score = 0;
  snakeLength = 1;
   d5f88:	4f1e      	ldr	r7, [pc, #120]	; (d6004 <_Z8gameOverv+0x80>)
  snakeX = display.width() / 2;
   d5f8a:	4e1f      	ldr	r6, [pc, #124]	; (d6008 <_Z8gameOverv+0x84>)
  display.drawLine(0, display.height() - 1, display.width() - 1, display.height() - 1, WHITE);
}

void gameOver()
{
  display.clearDisplay();
   d5f8c:	4620      	mov	r0, r4
   d5f8e:	f002 fb37 	bl	d8600 <_ZN16Adafruit_SSD130612clearDisplayEv>
  display.setCursor(5, 5);
   d5f92:	2205      	movs	r2, #5
   d5f94:	4611      	mov	r1, r2
   d5f96:	4620      	mov	r0, r4
   d5f98:	f001 feff 	bl	d7d9a <_ZN12Adafruit_GFX9setCursorEss>
  display.print("GAME OVER :(");
   d5f9c:	491b      	ldr	r1, [pc, #108]	; (d600c <_Z8gameOverv+0x88>)
   d5f9e:	4620      	mov	r0, r4
   d5fa0:	f003 ff76 	bl	d9e90 <_ZN5Print5printEPKc>
  display.display();
   d5fa4:	4620      	mov	r0, r4
   d5fa6:	f002 fab5 	bl	d8514 <_ZN16Adafruit_SSD13067displayEv>

  score = 0;
   d5faa:	4b19      	ldr	r3, [pc, #100]	; (d6010 <_Z8gameOverv+0x8c>)
   d5fac:	2200      	movs	r2, #0
   d5fae:	601a      	str	r2, [r3, #0]
  snakeLength = 1;
  snakeX = display.width() / 2;
   d5fb0:	4620      	mov	r0, r4
  display.setCursor(5, 5);
  display.print("GAME OVER :(");
  display.display();

  score = 0;
  snakeLength = 1;
   d5fb2:	2301      	movs	r3, #1
   d5fb4:	603b      	str	r3, [r7, #0]
  snakeX = display.width() / 2;
   d5fb6:	f001 feff 	bl	d7db8 <_ZN12Adafruit_GFX5widthEv>
   d5fba:	2502      	movs	r5, #2
   d5fbc:	fb90 f0f5 	sdiv	r0, r0, r5
   d5fc0:	b200      	sxth	r0, r0
   d5fc2:	6030      	str	r0, [r6, #0]
  snakeY = display.height() / 2;
   d5fc4:	4620      	mov	r0, r4
   d5fc6:	f001 fefa 	bl	d7dbe <_ZN12Adafruit_GFX6heightEv>
   d5fca:	4b12      	ldr	r3, [pc, #72]	; (d6014 <_Z8gameOverv+0x90>)
   d5fcc:	fb90 f0f5 	sdiv	r0, r0, r5
   d5fd0:	b200      	sxth	r0, r0
   d5fd2:	6018      	str	r0, [r3, #0]

  snakePixelX[snakeLength - 1] = snakeX;
   d5fd4:	683b      	ldr	r3, [r7, #0]
   d5fd6:	4a10      	ldr	r2, [pc, #64]	; (d6018 <_Z8gameOverv+0x94>)
   d5fd8:	6831      	ldr	r1, [r6, #0]
   d5fda:	3b01      	subs	r3, #1
   d5fdc:	54d1      	strb	r1, [r2, r3]
  snakePixelY[snakeLength - 1] = snakeY;
   d5fde:	4a0f      	ldr	r2, [pc, #60]	; (d601c <_Z8gameOverv+0x98>)
   d5fe0:	54d0      	strb	r0, [r2, r3]

  snakeDir = D_SOUTH;
   d5fe2:	4b0f      	ldr	r3, [pc, #60]	; (d6020 <_Z8gameOverv+0x9c>)
   d5fe4:	2203      	movs	r2, #3

  delay(2000);
   d5fe6:	f44f 60fa 	mov.w	r0, #2000	; 0x7d0
  snakeY = display.height() / 2;

  snakePixelX[snakeLength - 1] = snakeX;
  snakePixelY[snakeLength - 1] = snakeY;

  snakeDir = D_SOUTH;
   d5fea:	601a      	str	r2, [r3, #0]

  delay(2000);
   d5fec:	f003 f970 	bl	d92d0 <delay>

  display.clearDisplay();
   d5ff0:	4620      	mov	r0, r4
   d5ff2:	f002 fb05 	bl	d8600 <_ZN16Adafruit_SSD130612clearDisplayEv>
  renderScore();
}
   d5ff6:	e8bd 40f8 	ldmia.w	sp!, {r3, r4, r5, r6, r7, lr}
  snakeDir = D_SOUTH;

  delay(2000);

  display.clearDisplay();
  renderScore();
   d5ffa:	f7ff bf3d 	b.w	d5e78 <_Z11renderScorev>
   d5ffe:	bf00      	nop
   d6000:	2003e1ec 	.word	0x2003e1ec
   d6004:	2003d860 	.word	0x2003d860
   d6008:	2003d858 	.word	0x2003d858
   d600c:	000dd613 	.word	0x000dd613
   d6010:	2003e29c 	.word	0x2003e29c
   d6014:	2003d85c 	.word	0x2003d85c
   d6018:	2003e2a0 	.word	0x2003e2a0
   d601c:	2003e288 	.word	0x2003e288
   d6020:	2003d84c 	.word	0x2003d84c

000d6024 <_Z11collectFoodv>:
  foodX = random(minX + 1, maxX - 1);
  foodY = random(minY + 1, maxY - 1);
}

bool collectFood()
{
   d6024:	b508      	push	{r3, lr}
  if (snakeX == foodX && snakeY == foodY)
   d6026:	4b0c      	ldr	r3, [pc, #48]	; (d6058 <_Z11collectFoodv+0x34>)
   d6028:	681a      	ldr	r2, [r3, #0]
   d602a:	4b0c      	ldr	r3, [pc, #48]	; (d605c <_Z11collectFoodv+0x38>)
   d602c:	681b      	ldr	r3, [r3, #0]
   d602e:	429a      	cmp	r2, r3
   d6030:	d10f      	bne.n	d6052 <_Z11collectFoodv+0x2e>
   d6032:	4b0b      	ldr	r3, [pc, #44]	; (d6060 <_Z11collectFoodv+0x3c>)
   d6034:	681a      	ldr	r2, [r3, #0]
   d6036:	4b0b      	ldr	r3, [pc, #44]	; (d6064 <_Z11collectFoodv+0x40>)
   d6038:	681b      	ldr	r3, [r3, #0]
   d603a:	429a      	cmp	r2, r3
   d603c:	d109      	bne.n	d6052 <_Z11collectFoodv+0x2e>
  {
    score += 10;
   d603e:	4a0a      	ldr	r2, [pc, #40]	; (d6068 <_Z11collectFoodv+0x44>)
   d6040:	6813      	ldr	r3, [r2, #0]
   d6042:	330a      	adds	r3, #10
   d6044:	6013      	str	r3, [r2, #0]

    renderScore();
   d6046:	f7ff ff17 	bl	d5e78 <_Z11renderScorev>
    dropFood();
   d604a:	f7ff fecf 	bl	d5dec <_Z8dropFoodv>
   d604e:	2001      	movs	r0, #1
   d6050:	bd08      	pop	{r3, pc}

    return true;
  }
  else
  {
    return false;
   d6052:	2000      	movs	r0, #0
  }
}
   d6054:	bd08      	pop	{r3, pc}
   d6056:	bf00      	nop
   d6058:	2003d858 	.word	0x2003d858
   d605c:	2003e2b8 	.word	0x2003e2b8
   d6060:	2003d85c 	.word	0x2003d85c
   d6064:	2003e2bc 	.word	0x2003e2bc
   d6068:	2003e29c 	.word	0x2003e29c

000d606c <_Z10drawScreenv>:

  return false;
}

void drawScreen()
{
   d606c:	e92d 41f0 	stmdb	sp!, {r4, r5, r6, r7, r8, lr}
  bool foodCollected = false;

  display.clearDisplay();
   d6070:	4831      	ldr	r0, [pc, #196]	; (d6138 <_Z10drawScreenv+0xcc>)
   d6072:	f002 fac5 	bl	d8600 <_ZN16Adafruit_SSD130612clearDisplayEv>

  display.drawPixel(foodX, foodY, WHITE);
   d6076:	4a31      	ldr	r2, [pc, #196]	; (d613c <_Z10drawScreenv+0xd0>)
   d6078:	4931      	ldr	r1, [pc, #196]	; (d6140 <_Z10drawScreenv+0xd4>)
   d607a:	f9b2 2000 	ldrsh.w	r2, [r2]
   d607e:	f9b1 1000 	ldrsh.w	r1, [r1]
   d6082:	482d      	ldr	r0, [pc, #180]	; (d6138 <_Z10drawScreenv+0xcc>)
   d6084:	2301      	movs	r3, #1
   d6086:	f002 f825 	bl	d80d4 <_ZN16Adafruit_SSD13069drawPixelEsst>
  foodCollected = collectFood();
   d608a:	f7ff ffcb 	bl	d6024 <_Z11collectFoodv>
   d608e:	4606      	mov	r6, r0

  // Check snake position
  if (outOfBounds() || crashedIntoSelf())
   d6090:	f7ff fe86 	bl	d5da0 <_Z11outOfBoundsv>
   d6094:	2800      	cmp	r0, #0
   d6096:	d14c      	bne.n	d6132 <_Z10drawScreenv+0xc6>
   d6098:	f7ff feca 	bl	d5e30 <_Z15crashedIntoSelfv>
   d609c:	2800      	cmp	r0, #0
   d609e:	d148      	bne.n	d6132 <_Z10drawScreenv+0xc6>
  {
    gameOver();
  }

  // Render the snake
  for (int i = 0; i < snakeLength; i++)
   d60a0:	f8df 80b0 	ldr.w	r8, [pc, #176]	; d6154 <_Z10drawScreenv+0xe8>
   d60a4:	4f27      	ldr	r7, [pc, #156]	; (d6144 <_Z10drawScreenv+0xd8>)

  return false;
}

void drawScreen()
{
   d60a6:	2400      	movs	r4, #0
  {
    gameOver();
  }

  // Render the snake
  for (int i = 0; i < snakeLength; i++)
   d60a8:	f8d8 0000 	ldr.w	r0, [r8]
   d60ac:	4d25      	ldr	r5, [pc, #148]	; (d6144 <_Z10drawScreenv+0xd8>)
   d60ae:	4926      	ldr	r1, [pc, #152]	; (d6148 <_Z10drawScreenv+0xdc>)
   d60b0:	4284      	cmp	r4, r0
   d60b2:	db01      	blt.n	d60b8 <_Z10drawScreenv+0x4c>
   d60b4:	4603      	mov	r3, r0
   d60b6:	e007      	b.n	d60c8 <_Z10drawScreenv+0x5c>
  {
    display.drawPixel(snakePixelX[i], snakePixelY[i], WHITE);
   d60b8:	5d3a      	ldrb	r2, [r7, r4]
   d60ba:	5d09      	ldrb	r1, [r1, r4]
   d60bc:	481e      	ldr	r0, [pc, #120]	; (d6138 <_Z10drawScreenv+0xcc>)
   d60be:	2301      	movs	r3, #1
   d60c0:	f002 f808 	bl	d80d4 <_ZN16Adafruit_SSD13069drawPixelEsst>
  {
    gameOver();
  }

  // Render the snake
  for (int i = 0; i < snakeLength; i++)
   d60c4:	3401      	adds	r4, #1
   d60c6:	e7ef      	b.n	d60a8 <_Z10drawScreenv+0x3c>
  {
    display.drawPixel(snakePixelX[i], snakePixelY[i], WHITE);
  }

  // Move pixel values
  for (int i = snakeLength; i > 0; i--)
   d60c8:	2b00      	cmp	r3, #0
   d60ca:	dd07      	ble.n	d60dc <_Z10drawScreenv+0x70>
  {
    snakePixelX[i] = snakePixelX[i - 1];
   d60cc:	3b01      	subs	r3, #1
   d60ce:	18ca      	adds	r2, r1, r3
   d60d0:	5ccc      	ldrb	r4, [r1, r3]
   d60d2:	7054      	strb	r4, [r2, #1]
    snakePixelY[i] = snakePixelY[i - 1];
   d60d4:	18ea      	adds	r2, r5, r3
   d60d6:	5cec      	ldrb	r4, [r5, r3]
   d60d8:	7054      	strb	r4, [r2, #1]
  {
    display.drawPixel(snakePixelX[i], snakePixelY[i], WHITE);
  }

  // Move pixel values
  for (int i = snakeLength; i > 0; i--)
   d60da:	e7f5      	b.n	d60c8 <_Z10drawScreenv+0x5c>
   d60dc:	4a1b      	ldr	r2, [pc, #108]	; (d614c <_Z10drawScreenv+0xe0>)
   d60de:	4b1c      	ldr	r3, [pc, #112]	; (d6150 <_Z10drawScreenv+0xe4>)
  {
    snakePixelX[i] = snakePixelX[i - 1];
    snakePixelY[i] = snakePixelY[i - 1];
  }

  if (foodCollected)
   d60e0:	b136      	cbz	r6, d60f0 <_Z10drawScreenv+0x84>
  {
    snakeLength += 1;
   d60e2:	4c1c      	ldr	r4, [pc, #112]	; (d6154 <_Z10drawScreenv+0xe8>)
   d60e4:	1c46      	adds	r6, r0, #1
   d60e6:	6026      	str	r6, [r4, #0]
    snakePixelX[snakeLength - 1] = snakeX;
   d60e8:	6814      	ldr	r4, [r2, #0]
   d60ea:	540c      	strb	r4, [r1, r0]
    snakePixelY[snakeLength - 1] = snakeY;
   d60ec:	681c      	ldr	r4, [r3, #0]
   d60ee:	542c      	strb	r4, [r5, r0]
  }

  switch (snakeDir)
   d60f0:	4819      	ldr	r0, [pc, #100]	; (d6158 <_Z10drawScreenv+0xec>)
   d60f2:	6800      	ldr	r0, [r0, #0]
   d60f4:	3801      	subs	r0, #1
   d60f6:	2803      	cmp	r0, #3
   d60f8:	d810      	bhi.n	d611c <_Z10drawScreenv+0xb0>
   d60fa:	e8df f000 	tbb	[pc, r0]
   d60fe:	0502      	.short	0x0502
   d6100:	0c08      	.short	0x0c08
  {
  case D_NORTH:
    snakeY -= 1;
   d6102:	6818      	ldr	r0, [r3, #0]
   d6104:	3801      	subs	r0, #1
   d6106:	e004      	b.n	d6112 <_Z10drawScreenv+0xa6>
    break;
  case D_EAST:
    snakeX += 1;
   d6108:	6810      	ldr	r0, [r2, #0]
   d610a:	3001      	adds	r0, #1
   d610c:	e005      	b.n	d611a <_Z10drawScreenv+0xae>
    break;
  case D_SOUTH:
    snakeY += 1;
   d610e:	6818      	ldr	r0, [r3, #0]
   d6110:	3001      	adds	r0, #1
   d6112:	6018      	str	r0, [r3, #0]
    break;
   d6114:	e002      	b.n	d611c <_Z10drawScreenv+0xb0>
  case D_WEST:
    snakeX -= 1;
   d6116:	6810      	ldr	r0, [r2, #0]
   d6118:	3801      	subs	r0, #1
   d611a:	6010      	str	r0, [r2, #0]
    break;
  }

  snakePixelX[0] = snakeX;
   d611c:	6812      	ldr	r2, [r2, #0]
  snakePixelY[0] = snakeY;
   d611e:	681b      	ldr	r3, [r3, #0]
   d6120:	702b      	strb	r3, [r5, #0]
  case D_WEST:
    snakeX -= 1;
    break;
  }

  snakePixelX[0] = snakeX;
   d6122:	700a      	strb	r2, [r1, #0]
  snakePixelY[0] = snakeY;

  renderScore();
   d6124:	f7ff fea8 	bl	d5e78 <_Z11renderScorev>
  display.display();
   d6128:	4803      	ldr	r0, [pc, #12]	; (d6138 <_Z10drawScreenv+0xcc>)
}
   d612a:	e8bd 41f0 	ldmia.w	sp!, {r4, r5, r6, r7, r8, lr}

  snakePixelX[0] = snakeX;
  snakePixelY[0] = snakeY;

  renderScore();
  display.display();
   d612e:	f002 b9f1 	b.w	d8514 <_ZN16Adafruit_SSD13067displayEv>
  foodCollected = collectFood();

  // Check snake position
  if (outOfBounds() || crashedIntoSelf())
  {
    gameOver();
   d6132:	f7ff ff27 	bl	d5f84 <_Z8gameOverv>
   d6136:	e7b3      	b.n	d60a0 <_Z10drawScreenv+0x34>
   d6138:	2003e1ec 	.word	0x2003e1ec
   d613c:	2003e2bc 	.word	0x2003e2bc
   d6140:	2003e2b8 	.word	0x2003e2b8
   d6144:	2003e288 	.word	0x2003e288
   d6148:	2003e2a0 	.word	0x2003e2a0
   d614c:	2003d858 	.word	0x2003d858
   d6150:	2003d85c 	.word	0x2003d85c
   d6154:	2003d860 	.word	0x2003d860
   d6158:	2003d84c 	.word	0x2003d84c

000d615c <_Z9snakeGamev>:
  renderScore();
  display.display();
}

void snakeGame()
{
   d615c:	b5f8      	push	{r3, r4, r5, r6, r7, lr}
  appmode = 1;
   d615e:	4c1e      	ldr	r4, [pc, #120]	; (d61d8 <_Z9snakeGamev+0x7c>)
  btnid = 0;
   d6160:	4d1e      	ldr	r5, [pc, #120]	; (d61dc <_Z9snakeGamev+0x80>)
   d6162:	2600      	movs	r6, #0
  display.display();
}

void snakeGame()
{
  appmode = 1;
   d6164:	2701      	movs	r7, #1
  btnid = 0;
   d6166:	702e      	strb	r6, [r5, #0]
  display.display();
}

void snakeGame()
{
  appmode = 1;
   d6168:	7027      	strb	r7, [r4, #0]
  btnid = 0;
  clearScreen();
   d616a:	f7ff f955 	bl	d5418 <_Z11clearScreenv>

  setupLEDButtonInterrupt();
   d616e:	f000 fa79 	bl	d6664 <_Z23setupLEDButtonInterruptv>

  minX = 0;
   d6172:	4b1b      	ldr	r3, [pc, #108]	; (d61e0 <_Z9snakeGamev+0x84>)
  minY = 8;
  maxX = display.width() - 1;
   d6174:	481b      	ldr	r0, [pc, #108]	; (d61e4 <_Z9snakeGamev+0x88>)
  btnid = 0;
  clearScreen();

  setupLEDButtonInterrupt();

  minX = 0;
   d6176:	601e      	str	r6, [r3, #0]
  minY = 8;
   d6178:	4b1b      	ldr	r3, [pc, #108]	; (d61e8 <_Z9snakeGamev+0x8c>)
    {
      snakeDir = D_NORTH;
    }
    else if (btnid == 4)
    {
      snakeDir = D_WEST;
   d617a:	4e1c      	ldr	r6, [pc, #112]	; (d61ec <_Z9snakeGamev+0x90>)
  clearScreen();

  setupLEDButtonInterrupt();

  minX = 0;
  minY = 8;
   d617c:	2208      	movs	r2, #8
   d617e:	601a      	str	r2, [r3, #0]
  maxX = display.width() - 1;
   d6180:	f001 fe1a 	bl	d7db8 <_ZN12Adafruit_GFX5widthEv>
   d6184:	4b1a      	ldr	r3, [pc, #104]	; (d61f0 <_Z9snakeGamev+0x94>)
   d6186:	3801      	subs	r0, #1
   d6188:	6018      	str	r0, [r3, #0]
  maxY = display.height() - 1;
   d618a:	4816      	ldr	r0, [pc, #88]	; (d61e4 <_Z9snakeGamev+0x88>)
   d618c:	f001 fe17 	bl	d7dbe <_ZN12Adafruit_GFX6heightEv>
   d6190:	4b18      	ldr	r3, [pc, #96]	; (d61f4 <_Z9snakeGamev+0x98>)
   d6192:	3801      	subs	r0, #1
   d6194:	6018      	str	r0, [r3, #0]

  dropFood();
   d6196:	f7ff fe29 	bl	d5dec <_Z8dropFoodv>

  while (appmode)
   d619a:	7823      	ldrb	r3, [r4, #0]
   d619c:	b1ab      	cbz	r3, d61ca <_Z9snakeGamev+0x6e>
  {
    if (btnid == 5)
   d619e:	782b      	ldrb	r3, [r5, #0]
   d61a0:	2b05      	cmp	r3, #5
   d61a2:	d101      	bne.n	d61a8 <_Z9snakeGamev+0x4c>
    {
      snakeDir = D_EAST;
   d61a4:	2302      	movs	r3, #2
   d61a6:	e009      	b.n	d61bc <_Z9snakeGamev+0x60>
    }
    else if (btnid == 2)
   d61a8:	2b02      	cmp	r3, #2
   d61aa:	d101      	bne.n	d61b0 <_Z9snakeGamev+0x54>
    {
      snakeDir = D_SOUTH;
   d61ac:	2303      	movs	r3, #3
   d61ae:	e005      	b.n	d61bc <_Z9snakeGamev+0x60>
    }
    else if (btnid == 3)
   d61b0:	2b03      	cmp	r3, #3
   d61b2:	d101      	bne.n	d61b8 <_Z9snakeGamev+0x5c>
    {
      snakeDir = D_NORTH;
   d61b4:	6037      	str	r7, [r6, #0]
   d61b6:	e002      	b.n	d61be <_Z9snakeGamev+0x62>
    }
    else if (btnid == 4)
   d61b8:	2b04      	cmp	r3, #4
   d61ba:	d100      	bne.n	d61be <_Z9snakeGamev+0x62>
    {
      snakeDir = D_WEST;
   d61bc:	6033      	str	r3, [r6, #0]
    }

    drawScreen();
   d61be:	f7ff ff55 	bl	d606c <_Z10drawScreenv>

    delay(60); //10 is too fast for snake. 300 is dirt slow. 100 is still slowish but decent
   d61c2:	203c      	movs	r0, #60	; 0x3c
   d61c4:	f003 f884 	bl	d92d0 <delay>
  maxX = display.width() - 1;
  maxY = display.height() - 1;

  dropFood();

  while (appmode)
   d61c8:	e7e7      	b.n	d619a <_Z9snakeGamev+0x3e>

    drawScreen();

    delay(60); //10 is too fast for snake. 300 is dirt slow. 100 is still slowish but decent
  }
  appmode = 0;
   d61ca:	4a03      	ldr	r2, [pc, #12]	; (d61d8 <_Z9snakeGamev+0x7c>)
   d61cc:	7013      	strb	r3, [r2, #0]
  btncounter++;
   d61ce:	4a0a      	ldr	r2, [pc, #40]	; (d61f8 <_Z9snakeGamev+0x9c>)
   d61d0:	7813      	ldrb	r3, [r2, #0]
   d61d2:	3301      	adds	r3, #1
   d61d4:	7013      	strb	r3, [r2, #0]
   d61d6:	bdf8      	pop	{r3, r4, r5, r6, r7, pc}
   d61d8:	2003e21a 	.word	0x2003e21a
   d61dc:	2003e22c 	.word	0x2003e22c
   d61e0:	2003e2b4 	.word	0x2003e2b4
   d61e4:	2003e1ec 	.word	0x2003e1ec
   d61e8:	2003d848 	.word	0x2003d848
   d61ec:	2003d84c 	.word	0x2003d84c
   d61f0:	2003d850 	.word	0x2003d850
   d61f4:	2003d854 	.word	0x2003d854
   d61f8:	2003e1e4 	.word	0x2003e1e4

000d61fc <_Z19initInputDebouncersv>:
Debounce joystickRightDebouncer = Debounce();
Debounce joystickCenterDebouncer = Debounce();

// Init debouncers for all of our inputs
void initInputDebouncers()
{
   d61fc:	b510      	push	{r4, lr}
  pinMode(MOSI, INPUT);
   d61fe:	2100      	movs	r1, #0
  pinMode(SCK, INPUT);

  // Init Buttons as Inputs
  redButtonADebouncer.attach(RED_BUTTON_A, INPUT_PULLUP);
   d6200:	4c31      	ldr	r4, [pc, #196]	; (d62c8 <_Z19initInputDebouncersv+0xcc>)
Debounce joystickCenterDebouncer = Debounce();

// Init debouncers for all of our inputs
void initInputDebouncers()
{
  pinMode(MOSI, INPUT);
   d6202:	200c      	movs	r0, #12
   d6204:	f004 feaa 	bl	daf5c <pinMode>
  pinMode(SCK, INPUT);
   d6208:	2100      	movs	r1, #0
   d620a:	200d      	movs	r0, #13
   d620c:	f004 fea6 	bl	daf5c <pinMode>

  // Init Buttons as Inputs
  redButtonADebouncer.attach(RED_BUTTON_A, INPUT_PULLUP);
   d6210:	2202      	movs	r2, #2
   d6212:	4620      	mov	r0, r4
   d6214:	210c      	movs	r1, #12
   d6216:	f002 fbbe 	bl	d8996 <_ZN8Debounce6attachEi7PinMode>
  redButtonADebouncer.interval(DEBOUNCE_INTERVAL);
   d621a:	4620      	mov	r0, r4
  blueButtonBDebouncer.attach(BLUE_BUTTON_B, INPUT_PULLUP);
   d621c:	4c2b      	ldr	r4, [pc, #172]	; (d62cc <_Z19initInputDebouncersv+0xd0>)
  pinMode(MOSI, INPUT);
  pinMode(SCK, INPUT);

  // Init Buttons as Inputs
  redButtonADebouncer.attach(RED_BUTTON_A, INPUT_PULLUP);
  redButtonADebouncer.interval(DEBOUNCE_INTERVAL);
   d621e:	2132      	movs	r1, #50	; 0x32
   d6220:	f002 fbc6 	bl	d89b0 <_ZN8Debounce8intervalEt>
  blueButtonBDebouncer.attach(BLUE_BUTTON_B, INPUT_PULLUP);
   d6224:	2202      	movs	r2, #2
   d6226:	4620      	mov	r0, r4
   d6228:	210e      	movs	r1, #14
   d622a:	f002 fbb4 	bl	d8996 <_ZN8Debounce6attachEi7PinMode>
  blueButtonBDebouncer.interval(DEBOUNCE_INTERVAL);
   d622e:	4620      	mov	r0, r4
  greenButtonCDebouncer.attach(GREEN_BUTTON_C, INPUT_PULLUP);
   d6230:	4c27      	ldr	r4, [pc, #156]	; (d62d0 <_Z19initInputDebouncersv+0xd4>)

  // Init Buttons as Inputs
  redButtonADebouncer.attach(RED_BUTTON_A, INPUT_PULLUP);
  redButtonADebouncer.interval(DEBOUNCE_INTERVAL);
  blueButtonBDebouncer.attach(BLUE_BUTTON_B, INPUT_PULLUP);
  blueButtonBDebouncer.interval(DEBOUNCE_INTERVAL);
   d6232:	2132      	movs	r1, #50	; 0x32
   d6234:	f002 fbbc 	bl	d89b0 <_ZN8Debounce8intervalEt>
  greenButtonCDebouncer.attach(GREEN_BUTTON_C, INPUT_PULLUP);
   d6238:	2202      	movs	r2, #2
   d623a:	4620      	mov	r0, r4
   d623c:	210d      	movs	r1, #13
   d623e:	f002 fbaa 	bl	d8996 <_ZN8Debounce6attachEi7PinMode>
  greenButtonCDebouncer.interval(DEBOUNCE_INTERVAL);
   d6242:	4620      	mov	r0, r4
  yellowButtonDDebouncer.attach(YELLOW_BUTTON_D, INPUT_PULLUP);
   d6244:	4c23      	ldr	r4, [pc, #140]	; (d62d4 <_Z19initInputDebouncersv+0xd8>)
  redButtonADebouncer.attach(RED_BUTTON_A, INPUT_PULLUP);
  redButtonADebouncer.interval(DEBOUNCE_INTERVAL);
  blueButtonBDebouncer.attach(BLUE_BUTTON_B, INPUT_PULLUP);
  blueButtonBDebouncer.interval(DEBOUNCE_INTERVAL);
  greenButtonCDebouncer.attach(GREEN_BUTTON_C, INPUT_PULLUP);
  greenButtonCDebouncer.interval(DEBOUNCE_INTERVAL);
   d6246:	2132      	movs	r1, #50	; 0x32
   d6248:	f002 fbb2 	bl	d89b0 <_ZN8Debounce8intervalEt>
  yellowButtonDDebouncer.attach(YELLOW_BUTTON_D, INPUT_PULLUP);
   d624c:	2202      	movs	r2, #2
   d624e:	4620      	mov	r0, r4
   d6250:	210f      	movs	r1, #15
   d6252:	f002 fba0 	bl	d8996 <_ZN8Debounce6attachEi7PinMode>
  yellowButtonDDebouncer.interval(DEBOUNCE_INTERVAL);
   d6256:	4620      	mov	r0, r4

  // Joystick buttons as Inputs
  joystickUpDebouncer.attach(JOYSTICK_UP, INPUT_PULLUP);
   d6258:	4c1f      	ldr	r4, [pc, #124]	; (d62d8 <_Z19initInputDebouncersv+0xdc>)
  blueButtonBDebouncer.attach(BLUE_BUTTON_B, INPUT_PULLUP);
  blueButtonBDebouncer.interval(DEBOUNCE_INTERVAL);
  greenButtonCDebouncer.attach(GREEN_BUTTON_C, INPUT_PULLUP);
  greenButtonCDebouncer.interval(DEBOUNCE_INTERVAL);
  yellowButtonDDebouncer.attach(YELLOW_BUTTON_D, INPUT_PULLUP);
  yellowButtonDDebouncer.interval(DEBOUNCE_INTERVAL);
   d625a:	2132      	movs	r1, #50	; 0x32
   d625c:	f002 fba8 	bl	d89b0 <_ZN8Debounce8intervalEt>

  // Joystick buttons as Inputs
  joystickUpDebouncer.attach(JOYSTICK_UP, INPUT_PULLUP);
   d6260:	2202      	movs	r2, #2
   d6262:	4620      	mov	r0, r4
   d6264:	2106      	movs	r1, #6
   d6266:	f002 fb96 	bl	d8996 <_ZN8Debounce6attachEi7PinMode>
  joystickUpDebouncer.interval(DEBOUNCE_INTERVAL);
   d626a:	4620      	mov	r0, r4
  joystickDownDebouncer.attach(JOYSTICK_DOWN, INPUT_PULLUP);
   d626c:	4c1b      	ldr	r4, [pc, #108]	; (d62dc <_Z19initInputDebouncersv+0xe0>)
  yellowButtonDDebouncer.attach(YELLOW_BUTTON_D, INPUT_PULLUP);
  yellowButtonDDebouncer.interval(DEBOUNCE_INTERVAL);

  // Joystick buttons as Inputs
  joystickUpDebouncer.attach(JOYSTICK_UP, INPUT_PULLUP);
  joystickUpDebouncer.interval(DEBOUNCE_INTERVAL);
   d626e:	2132      	movs	r1, #50	; 0x32
   d6270:	f002 fb9e 	bl	d89b0 <_ZN8Debounce8intervalEt>
  joystickDownDebouncer.attach(JOYSTICK_DOWN, INPUT_PULLUP);
   d6274:	2202      	movs	r2, #2
   d6276:	4620      	mov	r0, r4
   d6278:	2105      	movs	r1, #5
   d627a:	f002 fb8c 	bl	d8996 <_ZN8Debounce6attachEi7PinMode>
  joystickDownDebouncer.interval(DEBOUNCE_INTERVAL);
   d627e:	4620      	mov	r0, r4
  joystickLeftDebouncer.attach(JOYSTICK_LEFT, INPUT_PULLUP);
   d6280:	4c17      	ldr	r4, [pc, #92]	; (d62e0 <_Z19initInputDebouncersv+0xe4>)

  // Joystick buttons as Inputs
  joystickUpDebouncer.attach(JOYSTICK_UP, INPUT_PULLUP);
  joystickUpDebouncer.interval(DEBOUNCE_INTERVAL);
  joystickDownDebouncer.attach(JOYSTICK_DOWN, INPUT_PULLUP);
  joystickDownDebouncer.interval(DEBOUNCE_INTERVAL);
   d6282:	2132      	movs	r1, #50	; 0x32
   d6284:	f002 fb94 	bl	d89b0 <_ZN8Debounce8intervalEt>
  joystickLeftDebouncer.attach(JOYSTICK_LEFT, INPUT_PULLUP);
   d6288:	2202      	movs	r2, #2
   d628a:	4620      	mov	r0, r4
   d628c:	2104      	movs	r1, #4
   d628e:	f002 fb82 	bl	d8996 <_ZN8Debounce6attachEi7PinMode>
  joystickLeftDebouncer.interval(DEBOUNCE_INTERVAL);
   d6292:	4620      	mov	r0, r4
  joystickRightDebouncer.attach(JOYSTICK_RIGHT, INPUT_PULLUP);
   d6294:	4c13      	ldr	r4, [pc, #76]	; (d62e4 <_Z19initInputDebouncersv+0xe8>)
  joystickUpDebouncer.attach(JOYSTICK_UP, INPUT_PULLUP);
  joystickUpDebouncer.interval(DEBOUNCE_INTERVAL);
  joystickDownDebouncer.attach(JOYSTICK_DOWN, INPUT_PULLUP);
  joystickDownDebouncer.interval(DEBOUNCE_INTERVAL);
  joystickLeftDebouncer.attach(JOYSTICK_LEFT, INPUT_PULLUP);
  joystickLeftDebouncer.interval(DEBOUNCE_INTERVAL);
   d6296:	2132      	movs	r1, #50	; 0x32
   d6298:	f002 fb8a 	bl	d89b0 <_ZN8Debounce8intervalEt>
  joystickRightDebouncer.attach(JOYSTICK_RIGHT, INPUT_PULLUP);
   d629c:	2202      	movs	r2, #2
   d629e:	4620      	mov	r0, r4
   d62a0:	2103      	movs	r1, #3
   d62a2:	f002 fb78 	bl	d8996 <_ZN8Debounce6attachEi7PinMode>
  joystickRightDebouncer.interval(DEBOUNCE_INTERVAL);
   d62a6:	4620      	mov	r0, r4
   d62a8:	2132      	movs	r1, #50	; 0x32
  joystickCenterDebouncer.attach(JOYSTICK_CENTER, INPUT_PULLUP);
   d62aa:	4c0f      	ldr	r4, [pc, #60]	; (d62e8 <_Z19initInputDebouncersv+0xec>)
  joystickDownDebouncer.attach(JOYSTICK_DOWN, INPUT_PULLUP);
  joystickDownDebouncer.interval(DEBOUNCE_INTERVAL);
  joystickLeftDebouncer.attach(JOYSTICK_LEFT, INPUT_PULLUP);
  joystickLeftDebouncer.interval(DEBOUNCE_INTERVAL);
  joystickRightDebouncer.attach(JOYSTICK_RIGHT, INPUT_PULLUP);
  joystickRightDebouncer.interval(DEBOUNCE_INTERVAL);
   d62ac:	f002 fb80 	bl	d89b0 <_ZN8Debounce8intervalEt>
  joystickCenterDebouncer.attach(JOYSTICK_CENTER, INPUT_PULLUP);
   d62b0:	2202      	movs	r2, #2
   d62b2:	4620      	mov	r0, r4
   d62b4:	4611      	mov	r1, r2
   d62b6:	f002 fb6e 	bl	d8996 <_ZN8Debounce6attachEi7PinMode>
  joystickCenterDebouncer.interval(DEBOUNCE_INTERVAL);
   d62ba:	4620      	mov	r0, r4
   d62bc:	2132      	movs	r1, #50	; 0x32
}
   d62be:	e8bd 4010 	ldmia.w	sp!, {r4, lr}
  joystickLeftDebouncer.attach(JOYSTICK_LEFT, INPUT_PULLUP);
  joystickLeftDebouncer.interval(DEBOUNCE_INTERVAL);
  joystickRightDebouncer.attach(JOYSTICK_RIGHT, INPUT_PULLUP);
  joystickRightDebouncer.interval(DEBOUNCE_INTERVAL);
  joystickCenterDebouncer.attach(JOYSTICK_CENTER, INPUT_PULLUP);
  joystickCenterDebouncer.interval(DEBOUNCE_INTERVAL);
   d62c2:	f002 bb75 	b.w	d89b0 <_ZN8Debounce8intervalEt>
   d62c6:	bf00      	nop
   d62c8:	2003e2e0 	.word	0x2003e2e0
   d62cc:	2003e2f8 	.word	0x2003e2f8
   d62d0:	2003e2d0 	.word	0x2003e2d0
   d62d4:	2003e2d8 	.word	0x2003e2d8
   d62d8:	2003e2e8 	.word	0x2003e2e8
   d62dc:	2003e2f0 	.word	0x2003e2f0
   d62e0:	2003e300 	.word	0x2003e300
   d62e4:	2003e2c0 	.word	0x2003e2c0
   d62e8:	2003e2c8 	.word	0x2003e2c8

000d62ec <_GLOBAL__sub_I_redButtonADebouncer>:
    return (CHOICE_BLUE);
  else if (yellowButtonDDebouncer.read() == LOW)
    return (CHOICE_YELLOW);

  return (CHOICE_NONE); // If no button is pressed, return none
}
   d62ec:	b508      	push	{r3, lr}
#include "macros.h"
#include "leds/leds.h"
#include "inputs.h"

// Button Debounce Support
Debounce redButtonADebouncer = Debounce();
   d62ee:	480e      	ldr	r0, [pc, #56]	; (d6328 <_GLOBAL__sub_I_redButtonADebouncer+0x3c>)
   d62f0:	f002 fb3b 	bl	d896a <_ZN8DebounceC1Ev>
Debounce blueButtonBDebouncer = Debounce();
   d62f4:	480d      	ldr	r0, [pc, #52]	; (d632c <_GLOBAL__sub_I_redButtonADebouncer+0x40>)
   d62f6:	f002 fb38 	bl	d896a <_ZN8DebounceC1Ev>
Debounce greenButtonCDebouncer = Debounce();
   d62fa:	480d      	ldr	r0, [pc, #52]	; (d6330 <_GLOBAL__sub_I_redButtonADebouncer+0x44>)
   d62fc:	f002 fb35 	bl	d896a <_ZN8DebounceC1Ev>
Debounce yellowButtonDDebouncer = Debounce();
   d6300:	480c      	ldr	r0, [pc, #48]	; (d6334 <_GLOBAL__sub_I_redButtonADebouncer+0x48>)
   d6302:	f002 fb32 	bl	d896a <_ZN8DebounceC1Ev>

// Debouncers for 5-way tactile switch
Debounce joystickUpDebouncer = Debounce();
   d6306:	480c      	ldr	r0, [pc, #48]	; (d6338 <_GLOBAL__sub_I_redButtonADebouncer+0x4c>)
   d6308:	f002 fb2f 	bl	d896a <_ZN8DebounceC1Ev>
Debounce joystickDownDebouncer = Debounce();
   d630c:	480b      	ldr	r0, [pc, #44]	; (d633c <_GLOBAL__sub_I_redButtonADebouncer+0x50>)
   d630e:	f002 fb2c 	bl	d896a <_ZN8DebounceC1Ev>
Debounce joystickLeftDebouncer = Debounce();
   d6312:	480b      	ldr	r0, [pc, #44]	; (d6340 <_GLOBAL__sub_I_redButtonADebouncer+0x54>)
   d6314:	f002 fb29 	bl	d896a <_ZN8DebounceC1Ev>
Debounce joystickRightDebouncer = Debounce();
   d6318:	480a      	ldr	r0, [pc, #40]	; (d6344 <_GLOBAL__sub_I_redButtonADebouncer+0x58>)
   d631a:	f002 fb26 	bl	d896a <_ZN8DebounceC1Ev>
Debounce joystickCenterDebouncer = Debounce();
   d631e:	480a      	ldr	r0, [pc, #40]	; (d6348 <_GLOBAL__sub_I_redButtonADebouncer+0x5c>)
    return (CHOICE_BLUE);
  else if (yellowButtonDDebouncer.read() == LOW)
    return (CHOICE_YELLOW);

  return (CHOICE_NONE); // If no button is pressed, return none
}
   d6320:	e8bd 4008 	ldmia.w	sp!, {r3, lr}
// Debouncers for 5-way tactile switch
Debounce joystickUpDebouncer = Debounce();
Debounce joystickDownDebouncer = Debounce();
Debounce joystickLeftDebouncer = Debounce();
Debounce joystickRightDebouncer = Debounce();
Debounce joystickCenterDebouncer = Debounce();
   d6324:	f002 bb21 	b.w	d896a <_ZN8DebounceC1Ev>
   d6328:	2003e2e0 	.word	0x2003e2e0
   d632c:	2003e2f8 	.word	0x2003e2f8
   d6330:	2003e2d0 	.word	0x2003e2d0
   d6334:	2003e2d8 	.word	0x2003e2d8
   d6338:	2003e2e8 	.word	0x2003e2e8
   d633c:	2003e2f0 	.word	0x2003e2f0
   d6340:	2003e300 	.word	0x2003e300
   d6344:	2003e2c0 	.word	0x2003e2c0
   d6348:	2003e2c8 	.word	0x2003e2c8

000d634c <_Z2UPv>:
extern byte appmode;
extern byte btncounter;
extern byte btnid;

void UP()
{
   d634c:	b510      	push	{r4, lr}
  if (menuShowing && (long)(micros() - last_micros) >= debouncing_time * 1000)
   d634e:	4b10      	ldr	r3, [pc, #64]	; (d6390 <_Z2UPv+0x44>)
   d6350:	781b      	ldrb	r3, [r3, #0]
   d6352:	b1db      	cbz	r3, d638c <_Z2UPv+0x40>
inline unsigned long micros(void) { return HAL_Timer_Get_Micro_Seconds(); }
   d6354:	f002 fcb4 	bl	d8cc0 <HAL_Timer_Get_Micro_Seconds>
   d6358:	4b0e      	ldr	r3, [pc, #56]	; (d6394 <_Z2UPv+0x48>)
   d635a:	681a      	ldr	r2, [r3, #0]
   d635c:	1a80      	subs	r0, r0, r2
   d635e:	4a0e      	ldr	r2, [pc, #56]	; (d6398 <_Z2UPv+0x4c>)
   d6360:	6811      	ldr	r1, [r2, #0]
   d6362:	f44f 727a 	mov.w	r2, #1000	; 0x3e8
   d6366:	434a      	muls	r2, r1
   d6368:	4290      	cmp	r0, r2
   d636a:	461c      	mov	r4, r3
   d636c:	da00      	bge.n	d6370 <_Z2UPv+0x24>
   d636e:	bd10      	pop	{r4, pc}
  {
    if (appmode)
   d6370:	4b0a      	ldr	r3, [pc, #40]	; (d639c <_Z2UPv+0x50>)
   d6372:	781b      	ldrb	r3, [r3, #0]
   d6374:	b91b      	cbnz	r3, d637e <_Z2UPv+0x32>
    {
    }
    else
    {
      btncounter++;
   d6376:	4a0a      	ldr	r2, [pc, #40]	; (d63a0 <_Z2UPv+0x54>)
   d6378:	7813      	ldrb	r3, [r2, #0]
   d637a:	3301      	adds	r3, #1
   d637c:	7013      	strb	r3, [r2, #0]
    }
    btnid = 3;
   d637e:	4b09      	ldr	r3, [pc, #36]	; (d63a4 <_Z2UPv+0x58>)
   d6380:	2203      	movs	r2, #3
   d6382:	701a      	strb	r2, [r3, #0]
   d6384:	f002 fc9c 	bl	d8cc0 <HAL_Timer_Get_Micro_Seconds>
    last_micros = micros();
   d6388:	6020      	str	r0, [r4, #0]
  }
}
   d638a:	bd10      	pop	{r4, pc}
   d638c:	bd10      	pop	{r4, pc}
   d638e:	bf00      	nop
   d6390:	2003e130 	.word	0x2003e130
   d6394:	2003e308 	.word	0x2003e308
   d6398:	2003d864 	.word	0x2003d864
   d639c:	2003e21a 	.word	0x2003e21a
   d63a0:	2003e1e4 	.word	0x2003e1e4
   d63a4:	2003e22c 	.word	0x2003e22c

000d63a8 <_Z4DOWNv>:

void DOWN()
{
   d63a8:	b510      	push	{r4, lr}
  if (menuShowing && (long)(micros() - last_micros) >= debouncing_time * 1000)
   d63aa:	4b10      	ldr	r3, [pc, #64]	; (d63ec <_Z4DOWNv+0x44>)
   d63ac:	781b      	ldrb	r3, [r3, #0]
   d63ae:	b1db      	cbz	r3, d63e8 <_Z4DOWNv+0x40>
   d63b0:	f002 fc86 	bl	d8cc0 <HAL_Timer_Get_Micro_Seconds>
   d63b4:	4b0e      	ldr	r3, [pc, #56]	; (d63f0 <_Z4DOWNv+0x48>)
   d63b6:	681a      	ldr	r2, [r3, #0]
   d63b8:	1a80      	subs	r0, r0, r2
   d63ba:	4a0e      	ldr	r2, [pc, #56]	; (d63f4 <_Z4DOWNv+0x4c>)
   d63bc:	6811      	ldr	r1, [r2, #0]
   d63be:	f44f 727a 	mov.w	r2, #1000	; 0x3e8
   d63c2:	434a      	muls	r2, r1
   d63c4:	4290      	cmp	r0, r2
   d63c6:	461c      	mov	r4, r3
   d63c8:	da00      	bge.n	d63cc <_Z4DOWNv+0x24>
   d63ca:	bd10      	pop	{r4, pc}
  {
    if (appmode)
   d63cc:	4b0a      	ldr	r3, [pc, #40]	; (d63f8 <_Z4DOWNv+0x50>)
   d63ce:	781b      	ldrb	r3, [r3, #0]
   d63d0:	b91b      	cbnz	r3, d63da <_Z4DOWNv+0x32>
    {
    }
    else
    {
      btncounter++;
   d63d2:	4a0a      	ldr	r2, [pc, #40]	; (d63fc <_Z4DOWNv+0x54>)
   d63d4:	7813      	ldrb	r3, [r2, #0]
   d63d6:	3301      	adds	r3, #1
   d63d8:	7013      	strb	r3, [r2, #0]
    }
    btnid = 2;
   d63da:	4b09      	ldr	r3, [pc, #36]	; (d6400 <_Z4DOWNv+0x58>)
   d63dc:	2202      	movs	r2, #2
   d63de:	701a      	strb	r2, [r3, #0]
   d63e0:	f002 fc6e 	bl	d8cc0 <HAL_Timer_Get_Micro_Seconds>
    last_micros = micros();
   d63e4:	6020      	str	r0, [r4, #0]
  }
}
   d63e6:	bd10      	pop	{r4, pc}
   d63e8:	bd10      	pop	{r4, pc}
   d63ea:	bf00      	nop
   d63ec:	2003e130 	.word	0x2003e130
   d63f0:	2003e308 	.word	0x2003e308
   d63f4:	2003d864 	.word	0x2003d864
   d63f8:	2003e21a 	.word	0x2003e21a
   d63fc:	2003e1e4 	.word	0x2003e1e4
   d6400:	2003e22c 	.word	0x2003e22c

000d6404 <_Z5ENTERv>:

void ENTER()
{
   d6404:	b510      	push	{r4, lr}
  if (menuShowing && (long)(micros() - last_micros) >= debouncing_time * 1000)
   d6406:	4b10      	ldr	r3, [pc, #64]	; (d6448 <_Z5ENTERv+0x44>)
   d6408:	781b      	ldrb	r3, [r3, #0]
   d640a:	b1db      	cbz	r3, d6444 <_Z5ENTERv+0x40>
   d640c:	f002 fc58 	bl	d8cc0 <HAL_Timer_Get_Micro_Seconds>
   d6410:	4b0e      	ldr	r3, [pc, #56]	; (d644c <_Z5ENTERv+0x48>)
   d6412:	681a      	ldr	r2, [r3, #0]
   d6414:	1a80      	subs	r0, r0, r2
   d6416:	4a0e      	ldr	r2, [pc, #56]	; (d6450 <_Z5ENTERv+0x4c>)
   d6418:	6811      	ldr	r1, [r2, #0]
   d641a:	f44f 727a 	mov.w	r2, #1000	; 0x3e8
   d641e:	434a      	muls	r2, r1
   d6420:	4290      	cmp	r0, r2
   d6422:	461c      	mov	r4, r3
   d6424:	da00      	bge.n	d6428 <_Z5ENTERv+0x24>
   d6426:	bd10      	pop	{r4, pc}
  {
    if (appmode)
   d6428:	4b0a      	ldr	r3, [pc, #40]	; (d6454 <_Z5ENTERv+0x50>)
   d642a:	781b      	ldrb	r3, [r3, #0]
   d642c:	b91b      	cbnz	r3, d6436 <_Z5ENTERv+0x32>
    {
    }
    else
    {
      btncounter++;
   d642e:	4a0a      	ldr	r2, [pc, #40]	; (d6458 <_Z5ENTERv+0x54>)
   d6430:	7813      	ldrb	r3, [r2, #0]
   d6432:	3301      	adds	r3, #1
   d6434:	7013      	strb	r3, [r2, #0]
    }
    btnid = 1;
   d6436:	4b09      	ldr	r3, [pc, #36]	; (d645c <_Z5ENTERv+0x58>)
   d6438:	2201      	movs	r2, #1
   d643a:	701a      	strb	r2, [r3, #0]
   d643c:	f002 fc40 	bl	d8cc0 <HAL_Timer_Get_Micro_Seconds>
    last_micros = micros();
   d6440:	6020      	str	r0, [r4, #0]
  }
}
   d6442:	bd10      	pop	{r4, pc}
   d6444:	bd10      	pop	{r4, pc}
   d6446:	bf00      	nop
   d6448:	2003e130 	.word	0x2003e130
   d644c:	2003e308 	.word	0x2003e308
   d6450:	2003d864 	.word	0x2003d864
   d6454:	2003e21a 	.word	0x2003e21a
   d6458:	2003e1e4 	.word	0x2003e1e4
   d645c:	2003e22c 	.word	0x2003e22c

000d6460 <_Z4LEFTv>:

void LEFT()
{
   d6460:	b510      	push	{r4, lr}
  if (menuShowing && (long)(micros() - last_micros) >= debouncing_time * 1000)
   d6462:	4b11      	ldr	r3, [pc, #68]	; (d64a8 <_Z4LEFTv+0x48>)
   d6464:	781b      	ldrb	r3, [r3, #0]
   d6466:	b1eb      	cbz	r3, d64a4 <_Z4LEFTv+0x44>
   d6468:	f002 fc2a 	bl	d8cc0 <HAL_Timer_Get_Micro_Seconds>
   d646c:	4b0f      	ldr	r3, [pc, #60]	; (d64ac <_Z4LEFTv+0x4c>)
   d646e:	681a      	ldr	r2, [r3, #0]
   d6470:	1a80      	subs	r0, r0, r2
   d6472:	4a0f      	ldr	r2, [pc, #60]	; (d64b0 <_Z4LEFTv+0x50>)
   d6474:	6811      	ldr	r1, [r2, #0]
   d6476:	f44f 727a 	mov.w	r2, #1000	; 0x3e8
   d647a:	434a      	muls	r2, r1
   d647c:	4290      	cmp	r0, r2
   d647e:	461c      	mov	r4, r3
   d6480:	da00      	bge.n	d6484 <_Z4LEFTv+0x24>
   d6482:	bd10      	pop	{r4, pc}
  {
    if (appmode)
   d6484:	4b0b      	ldr	r3, [pc, #44]	; (d64b4 <_Z4LEFTv+0x54>)
   d6486:	781b      	ldrb	r3, [r3, #0]
   d6488:	b91b      	cbnz	r3, d6492 <_Z4LEFTv+0x32>
    {
    }
    else
    {
      btncounter++;
   d648a:	4a0b      	ldr	r2, [pc, #44]	; (d64b8 <_Z4LEFTv+0x58>)
   d648c:	7813      	ldrb	r3, [r2, #0]
   d648e:	3301      	adds	r3, #1
   d6490:	7013      	strb	r3, [r2, #0]
    }
    resetDisplayBools();
   d6492:	f7fe ffab 	bl	d53ec <_Z17resetDisplayBoolsv>
    btnid = 4;
   d6496:	4b09      	ldr	r3, [pc, #36]	; (d64bc <_Z4LEFTv+0x5c>)
   d6498:	2204      	movs	r2, #4
   d649a:	701a      	strb	r2, [r3, #0]
   d649c:	f002 fc10 	bl	d8cc0 <HAL_Timer_Get_Micro_Seconds>
    last_micros = micros();
   d64a0:	6020      	str	r0, [r4, #0]
  }
}
   d64a2:	bd10      	pop	{r4, pc}
   d64a4:	bd10      	pop	{r4, pc}
   d64a6:	bf00      	nop
   d64a8:	2003e130 	.word	0x2003e130
   d64ac:	2003e308 	.word	0x2003e308
   d64b0:	2003d864 	.word	0x2003d864
   d64b4:	2003e21a 	.word	0x2003e21a
   d64b8:	2003e1e4 	.word	0x2003e1e4
   d64bc:	2003e22c 	.word	0x2003e22c

000d64c0 <_Z5RIGHTv>:

void RIGHT()
{
   d64c0:	b510      	push	{r4, lr}
  if (menuShowing && (long)(micros() - last_micros) >= debouncing_time * 1000)
   d64c2:	4b11      	ldr	r3, [pc, #68]	; (d6508 <_Z5RIGHTv+0x48>)
   d64c4:	781b      	ldrb	r3, [r3, #0]
   d64c6:	b1eb      	cbz	r3, d6504 <_Z5RIGHTv+0x44>
   d64c8:	f002 fbfa 	bl	d8cc0 <HAL_Timer_Get_Micro_Seconds>
   d64cc:	4b0f      	ldr	r3, [pc, #60]	; (d650c <_Z5RIGHTv+0x4c>)
   d64ce:	681a      	ldr	r2, [r3, #0]
   d64d0:	1a80      	subs	r0, r0, r2
   d64d2:	4a0f      	ldr	r2, [pc, #60]	; (d6510 <_Z5RIGHTv+0x50>)
   d64d4:	6811      	ldr	r1, [r2, #0]
   d64d6:	f44f 727a 	mov.w	r2, #1000	; 0x3e8
   d64da:	434a      	muls	r2, r1
   d64dc:	4290      	cmp	r0, r2
   d64de:	461c      	mov	r4, r3
   d64e0:	da00      	bge.n	d64e4 <_Z5RIGHTv+0x24>
   d64e2:	bd10      	pop	{r4, pc}
  {
    if (appmode)
   d64e4:	4b0b      	ldr	r3, [pc, #44]	; (d6514 <_Z5RIGHTv+0x54>)
   d64e6:	781b      	ldrb	r3, [r3, #0]
   d64e8:	b91b      	cbnz	r3, d64f2 <_Z5RIGHTv+0x32>
    {
    }
    else
    {
      btncounter++;
   d64ea:	4a0b      	ldr	r2, [pc, #44]	; (d6518 <_Z5RIGHTv+0x58>)
   d64ec:	7813      	ldrb	r3, [r2, #0]
   d64ee:	3301      	adds	r3, #1
   d64f0:	7013      	strb	r3, [r2, #0]
    }
    resetDisplayBools();
   d64f2:	f7fe ff7b 	bl	d53ec <_Z17resetDisplayBoolsv>
    btnid = 5;
   d64f6:	4b09      	ldr	r3, [pc, #36]	; (d651c <_Z5RIGHTv+0x5c>)
   d64f8:	2205      	movs	r2, #5
   d64fa:	701a      	strb	r2, [r3, #0]
   d64fc:	f002 fbe0 	bl	d8cc0 <HAL_Timer_Get_Micro_Seconds>
    last_micros = micros();
   d6500:	6020      	str	r0, [r4, #0]
  }
}
   d6502:	bd10      	pop	{r4, pc}
   d6504:	bd10      	pop	{r4, pc}
   d6506:	bf00      	nop
   d6508:	2003e130 	.word	0x2003e130
   d650c:	2003e308 	.word	0x2003e308
   d6510:	2003d864 	.word	0x2003d864
   d6514:	2003e21a 	.word	0x2003e21a
   d6518:	2003e1e4 	.word	0x2003e1e4
   d651c:	2003e22c 	.word	0x2003e22c

000d6520 <_Z3ESCv>:
  attachInterrupt(JOYSTICK_LEFT, LEFT, FALLING);
  attachInterrupt(JOYSTICK_RIGHT, RIGHT, FALLING);
}

void ESC()
{
   d6520:	b510      	push	{r4, lr}
   d6522:	f002 fbcd 	bl	d8cc0 <HAL_Timer_Get_Micro_Seconds>
  if ((long)(micros() - last_micros) >= debouncing_time * 1000)
   d6526:	4b14      	ldr	r3, [pc, #80]	; (d6578 <_Z3ESCv+0x58>)
   d6528:	681b      	ldr	r3, [r3, #0]
   d652a:	1ac0      	subs	r0, r0, r3
   d652c:	4b13      	ldr	r3, [pc, #76]	; (d657c <_Z3ESCv+0x5c>)
   d652e:	681a      	ldr	r2, [r3, #0]
   d6530:	f44f 737a 	mov.w	r3, #1000	; 0x3e8
   d6534:	4353      	muls	r3, r2
   d6536:	4298      	cmp	r0, r3
   d6538:	db1c      	blt.n	d6574 <_Z3ESCv+0x54>
  {
    detachInterrupt(RED_BUTTON_A);
   d653a:	200c      	movs	r0, #12
   d653c:	f003 fa3a 	bl	d99b4 <_Z15detachInterruptt>
    detachInterrupt(BLUE_BUTTON_B);
   d6540:	200e      	movs	r0, #14
   d6542:	f003 fa37 	bl	d99b4 <_Z15detachInterruptt>
    detachInterrupt(GREEN_BUTTON_C);
   d6546:	200d      	movs	r0, #13
   d6548:	f003 fa34 	bl	d99b4 <_Z15detachInterruptt>
    detachInterrupt(YELLOW_BUTTON_D);
   d654c:	200f      	movs	r0, #15
   d654e:	f003 fa31 	bl	d99b4 <_Z15detachInterruptt>

    appmode = 0;
   d6552:	4b0b      	ldr	r3, [pc, #44]	; (d6580 <_Z3ESCv+0x60>)
   d6554:	2400      	movs	r4, #0
   d6556:	701c      	strb	r4, [r3, #0]
    btnid = 4;
   d6558:	4b0a      	ldr	r3, [pc, #40]	; (d6584 <_Z3ESCv+0x64>)
   d655a:	2204      	movs	r2, #4
   d655c:	701a      	strb	r2, [r3, #0]
    btncounter++;
   d655e:	4a0a      	ldr	r2, [pc, #40]	; (d6588 <_Z3ESCv+0x68>)
   d6560:	7813      	ldrb	r3, [r2, #0]
   d6562:	3301      	adds	r3, #1
   d6564:	7013      	strb	r3, [r2, #0]

    resetDisplayBools();
   d6566:	f7fe ff41 	bl	d53ec <_Z17resetDisplayBoolsv>
    toggleAllButtons(LOW);
   d656a:	4620      	mov	r0, r4
  }
}
   d656c:	e8bd 4010 	ldmia.w	sp!, {r4, lr}
    appmode = 0;
    btnid = 4;
    btncounter++;

    resetDisplayBools();
    toggleAllButtons(LOW);
   d6570:	f000 b91c 	b.w	d67ac <_Z16toggleAllButtonsi>
   d6574:	bd10      	pop	{r4, pc}
   d6576:	bf00      	nop
   d6578:	2003e308 	.word	0x2003e308
   d657c:	2003d864 	.word	0x2003d864
   d6580:	2003e21a 	.word	0x2003e21a
   d6584:	2003e22c 	.word	0x2003e22c
   d6588:	2003e1e4 	.word	0x2003e1e4

000d658c <_Z4BACKv>:
  }
}

void BACK()
{
   d658c:	b537      	push	{r0, r1, r2, r4, r5, lr}
   d658e:	f002 fb97 	bl	d8cc0 <HAL_Timer_Get_Micro_Seconds>
  if ((long)(micros() - last_micros) >= debouncing_time * 1000)
   d6592:	4b13      	ldr	r3, [pc, #76]	; (d65e0 <_Z4BACKv+0x54>)
   d6594:	681b      	ldr	r3, [r3, #0]
   d6596:	1ac0      	subs	r0, r0, r3
   d6598:	4b12      	ldr	r3, [pc, #72]	; (d65e4 <_Z4BACKv+0x58>)
   d659a:	681a      	ldr	r2, [r3, #0]
   d659c:	f44f 737a 	mov.w	r3, #1000	; 0x3e8
   d65a0:	4353      	muls	r3, r2
   d65a2:	4298      	cmp	r0, r3
   d65a4:	db19      	blt.n	d65da <_Z4BACKv+0x4e>
  {
    appmode = 0;
   d65a6:	4b10      	ldr	r3, [pc, #64]	; (d65e8 <_Z4BACKv+0x5c>)
    btnid = 4;
    btncounter++;
   d65a8:	4a10      	ldr	r2, [pc, #64]	; (d65ec <_Z4BACKv+0x60>)

void BACK()
{
  if ((long)(micros() - last_micros) >= debouncing_time * 1000)
  {
    appmode = 0;
   d65aa:	2500      	movs	r5, #0
   d65ac:	701d      	strb	r5, [r3, #0]
    btnid = 4;
   d65ae:	4b10      	ldr	r3, [pc, #64]	; (d65f0 <_Z4BACKv+0x64>)
   d65b0:	2404      	movs	r4, #4
   d65b2:	701c      	strb	r4, [r3, #0]
    btncounter++;
   d65b4:	7813      	ldrb	r3, [r2, #0]
   d65b6:	3301      	adds	r3, #1
   d65b8:	7013      	strb	r3, [r2, #0]
    resetDisplayBools();
   d65ba:	f7fe ff17 	bl	d53ec <_Z17resetDisplayBoolsv>
    toggleAllButtons(LOW);
   d65be:	4628      	mov	r0, r5
   d65c0:	f000 f8f4 	bl	d67ac <_Z16toggleAllButtonsi>

    detachInterrupt(JOYSTICK_LEFT);
   d65c4:	4620      	mov	r0, r4
   d65c6:	f003 f9f5 	bl	d99b4 <_Z15detachInterruptt>
    attachInterrupt(JOYSTICK_LEFT, LEFT, FALLING); // Set the default interrupt back up
   d65ca:	9500      	str	r5, [sp, #0]
   d65cc:	f04f 33ff 	mov.w	r3, #4294967295	; 0xffffffff
   d65d0:	2202      	movs	r2, #2
   d65d2:	4908      	ldr	r1, [pc, #32]	; (d65f4 <_Z4BACKv+0x68>)
   d65d4:	4620      	mov	r0, r4
   d65d6:	f003 f9c7 	bl	d9968 <_Z15attachInterrupttPFvvE13InterruptModeah>
  }
}
   d65da:	b003      	add	sp, #12
   d65dc:	bd30      	pop	{r4, r5, pc}
   d65de:	bf00      	nop
   d65e0:	2003e308 	.word	0x2003e308
   d65e4:	2003d864 	.word	0x2003d864
   d65e8:	2003e21a 	.word	0x2003e21a
   d65ec:	2003e1e4 	.word	0x2003e1e4
   d65f0:	2003e22c 	.word	0x2003e22c
   d65f4:	000d6461 	.word	0x000d6461

000d65f8 <_Z23setupJoystickInterruptsv>:
    last_micros = micros();
  }
}

void setupJoystickInterrupts()
{
   d65f8:	b513      	push	{r0, r1, r4, lr}
  // Set up Interrupts
  attachInterrupt(JOYSTICK_UP, UP, FALLING);
   d65fa:	2400      	movs	r4, #0
   d65fc:	9400      	str	r4, [sp, #0]
   d65fe:	f04f 33ff 	mov.w	r3, #4294967295	; 0xffffffff
   d6602:	2202      	movs	r2, #2
   d6604:	4912      	ldr	r1, [pc, #72]	; (d6650 <_Z23setupJoystickInterruptsv+0x58>)
   d6606:	2006      	movs	r0, #6
   d6608:	f003 f9ae 	bl	d9968 <_Z15attachInterrupttPFvvE13InterruptModeah>
  attachInterrupt(JOYSTICK_DOWN, DOWN, FALLING);
   d660c:	9400      	str	r4, [sp, #0]
   d660e:	f04f 33ff 	mov.w	r3, #4294967295	; 0xffffffff
   d6612:	2202      	movs	r2, #2
   d6614:	490f      	ldr	r1, [pc, #60]	; (d6654 <_Z23setupJoystickInterruptsv+0x5c>)
   d6616:	2005      	movs	r0, #5
   d6618:	f003 f9a6 	bl	d9968 <_Z15attachInterrupttPFvvE13InterruptModeah>
  attachInterrupt(JOYSTICK_CENTER, ENTER, FALLING);
   d661c:	2202      	movs	r2, #2
   d661e:	9400      	str	r4, [sp, #0]
   d6620:	f04f 33ff 	mov.w	r3, #4294967295	; 0xffffffff
   d6624:	490c      	ldr	r1, [pc, #48]	; (d6658 <_Z23setupJoystickInterruptsv+0x60>)
   d6626:	4610      	mov	r0, r2
   d6628:	f003 f99e 	bl	d9968 <_Z15attachInterrupttPFvvE13InterruptModeah>
  attachInterrupt(JOYSTICK_LEFT, LEFT, FALLING);
   d662c:	9400      	str	r4, [sp, #0]
   d662e:	f04f 33ff 	mov.w	r3, #4294967295	; 0xffffffff
   d6632:	2202      	movs	r2, #2
   d6634:	4909      	ldr	r1, [pc, #36]	; (d665c <_Z23setupJoystickInterruptsv+0x64>)
   d6636:	2004      	movs	r0, #4
   d6638:	f003 f996 	bl	d9968 <_Z15attachInterrupttPFvvE13InterruptModeah>
  attachInterrupt(JOYSTICK_RIGHT, RIGHT, FALLING);
   d663c:	9400      	str	r4, [sp, #0]
   d663e:	f04f 33ff 	mov.w	r3, #4294967295	; 0xffffffff
   d6642:	2202      	movs	r2, #2
   d6644:	4906      	ldr	r1, [pc, #24]	; (d6660 <_Z23setupJoystickInterruptsv+0x68>)
   d6646:	2003      	movs	r0, #3
   d6648:	f003 f98e 	bl	d9968 <_Z15attachInterrupttPFvvE13InterruptModeah>
}
   d664c:	b002      	add	sp, #8
   d664e:	bd10      	pop	{r4, pc}
   d6650:	000d634d 	.word	0x000d634d
   d6654:	000d63a9 	.word	0x000d63a9
   d6658:	000d6405 	.word	0x000d6405
   d665c:	000d6461 	.word	0x000d6461
   d6660:	000d64c1 	.word	0x000d64c1

000d6664 <_Z23setupLEDButtonInterruptv>:
    attachInterrupt(JOYSTICK_LEFT, LEFT, FALLING); // Set the default interrupt back up
  }
}

void setupLEDButtonInterrupt()
{
   d6664:	b537      	push	{r0, r1, r2, r4, r5, lr}
  attachInterrupt(RED_BUTTON_A, ESC, FALLING);
   d6666:	4c12      	ldr	r4, [pc, #72]	; (d66b0 <_Z23setupLEDButtonInterruptv+0x4c>)
   d6668:	2500      	movs	r5, #0
   d666a:	4621      	mov	r1, r4
   d666c:	9500      	str	r5, [sp, #0]
   d666e:	f04f 33ff 	mov.w	r3, #4294967295	; 0xffffffff
   d6672:	2202      	movs	r2, #2
   d6674:	200c      	movs	r0, #12
   d6676:	f003 f977 	bl	d9968 <_Z15attachInterrupttPFvvE13InterruptModeah>
  attachInterrupt(BLUE_BUTTON_B, ESC, FALLING);
   d667a:	4621      	mov	r1, r4
   d667c:	9500      	str	r5, [sp, #0]
   d667e:	f04f 33ff 	mov.w	r3, #4294967295	; 0xffffffff
   d6682:	2202      	movs	r2, #2
   d6684:	200e      	movs	r0, #14
   d6686:	f003 f96f 	bl	d9968 <_Z15attachInterrupttPFvvE13InterruptModeah>
  attachInterrupt(GREEN_BUTTON_C, ESC, FALLING);
   d668a:	4621      	mov	r1, r4
   d668c:	9500      	str	r5, [sp, #0]
   d668e:	f04f 33ff 	mov.w	r3, #4294967295	; 0xffffffff
   d6692:	2202      	movs	r2, #2
   d6694:	200d      	movs	r0, #13
   d6696:	f003 f967 	bl	d9968 <_Z15attachInterrupttPFvvE13InterruptModeah>
  attachInterrupt(YELLOW_BUTTON_D, ESC, FALLING);
   d669a:	9500      	str	r5, [sp, #0]
   d669c:	f04f 33ff 	mov.w	r3, #4294967295	; 0xffffffff
   d66a0:	2202      	movs	r2, #2
   d66a2:	4621      	mov	r1, r4
   d66a4:	200f      	movs	r0, #15
   d66a6:	f003 f95f 	bl	d9968 <_Z15attachInterrupttPFvvE13InterruptModeah>
}
   d66aa:	b003      	add	sp, #12
   d66ac:	bd30      	pop	{r4, r5, pc}
   d66ae:	bf00      	nop
   d66b0:	000d6521 	.word	0x000d6521

000d66b4 <_Z24setupBackButtonInterruptv>:

void setupBackButtonInterrupt()
{
   d66b4:	b507      	push	{r0, r1, r2, lr}
  detachInterrupt(JOYSTICK_LEFT);
   d66b6:	2004      	movs	r0, #4
   d66b8:	f003 f97c 	bl	d99b4 <_Z15detachInterruptt>
  attachInterrupt(JOYSTICK_LEFT, BACK, FALLING);
   d66bc:	2300      	movs	r3, #0
   d66be:	9300      	str	r3, [sp, #0]
   d66c0:	2202      	movs	r2, #2
   d66c2:	f04f 33ff 	mov.w	r3, #4294967295	; 0xffffffff
   d66c6:	4903      	ldr	r1, [pc, #12]	; (d66d4 <_Z24setupBackButtonInterruptv+0x20>)
   d66c8:	2004      	movs	r0, #4
   d66ca:	f003 f94d 	bl	d9968 <_Z15attachInterrupttPFvvE13InterruptModeah>
}
   d66ce:	b003      	add	sp, #12
   d66d0:	f85d fb04 	ldr.w	pc, [sp], #4
   d66d4:	000d658d 	.word	0x000d658d

000d66d8 <_GLOBAL__sub_I_codeEntered>:
      codeEntered = false;
      currentProgress = 0;
      inCodeMode = false;
    }
  }
}
   d66d8:	b508      	push	{r3, lr}
#endif

#include "timer_hal.h"
#include "delay_hal.h"

inline system_tick_t millis(void) { return HAL_Timer_Get_Milli_Seconds(); }
   d66da:	f002 faf9 	bl	d8cd0 <HAL_Timer_Get_Milli_Seconds>
  JOYSTICK_CENTER
};

bool codeEntered = false;
int currentProgress = 0;
unsigned long lastCheck = millis();
   d66de:	4b01      	ldr	r3, [pc, #4]	; (d66e4 <_GLOBAL__sub_I_codeEntered+0xc>)
   d66e0:	6018      	str	r0, [r3, #0]
   d66e2:	bd08      	pop	{r3, pc}
   d66e4:	2003e30c 	.word	0x2003e30c

000d66e8 <_Z6fadeInii>:

int LEDnumber = 0;
int fadeIncrement = 5;

void fadeIn(int ledPin, int delayInt)
{
   d66e8:	b5f8      	push	{r3, r4, r5, r6, r7, lr}
  for (int fadeValue = 0; fadeValue <= 255; fadeValue += fadeIncrement)
   d66ea:	4d08      	ldr	r5, [pc, #32]	; (d670c <_Z6fadeInii+0x24>)

int LEDnumber = 0;
int fadeIncrement = 5;

void fadeIn(int ledPin, int delayInt)
{
   d66ec:	460e      	mov	r6, r1
  for (int fadeValue = 0; fadeValue <= 255; fadeValue += fadeIncrement)
   d66ee:	2400      	movs	r4, #0
  {
    analogWrite(ledPin, fadeValue);
   d66f0:	b287      	uxth	r7, r0
   d66f2:	4621      	mov	r1, r4
   d66f4:	4638      	mov	r0, r7
   d66f6:	f004 fc85 	bl	db004 <_Z11analogWritetm>
    delay(delayInt);
   d66fa:	4630      	mov	r0, r6
   d66fc:	f002 fde8 	bl	d92d0 <delay>
int LEDnumber = 0;
int fadeIncrement = 5;

void fadeIn(int ledPin, int delayInt)
{
  for (int fadeValue = 0; fadeValue <= 255; fadeValue += fadeIncrement)
   d6700:	682b      	ldr	r3, [r5, #0]
   d6702:	441c      	add	r4, r3
   d6704:	2cff      	cmp	r4, #255	; 0xff
   d6706:	ddf4      	ble.n	d66f2 <_Z6fadeInii+0xa>
  {
    analogWrite(ledPin, fadeValue);
    delay(delayInt);
  }
}
   d6708:	bdf8      	pop	{r3, r4, r5, r6, r7, pc}
   d670a:	bf00      	nop
   d670c:	2003d868 	.word	0x2003d868

000d6710 <_Z7fadeOutii>:

void fadeOut(int ledPin, int delayInt)
{
   d6710:	b5f8      	push	{r3, r4, r5, r6, r7, lr}
  for (int fadeValue = 255; fadeValue >= 0; fadeValue -= fadeIncrement)
   d6712:	4d07      	ldr	r5, [pc, #28]	; (d6730 <_Z7fadeOutii+0x20>)
    delay(delayInt);
  }
}

void fadeOut(int ledPin, int delayInt)
{
   d6714:	460e      	mov	r6, r1
  for (int fadeValue = 255; fadeValue >= 0; fadeValue -= fadeIncrement)
   d6716:	24ff      	movs	r4, #255	; 0xff
  {
    analogWrite(ledPin, fadeValue);
   d6718:	b287      	uxth	r7, r0
   d671a:	4621      	mov	r1, r4
   d671c:	4638      	mov	r0, r7
   d671e:	f004 fc71 	bl	db004 <_Z11analogWritetm>
    delay(delayInt);
   d6722:	4630      	mov	r0, r6
   d6724:	f002 fdd4 	bl	d92d0 <delay>
  }
}

void fadeOut(int ledPin, int delayInt)
{
  for (int fadeValue = 255; fadeValue >= 0; fadeValue -= fadeIncrement)
   d6728:	682b      	ldr	r3, [r5, #0]
   d672a:	1ae4      	subs	r4, r4, r3
   d672c:	d5f5      	bpl.n	d671a <_Z7fadeOutii+0xa>
  {
    analogWrite(ledPin, fadeValue);
    delay(delayInt);
  }
}
   d672e:	bdf8      	pop	{r3, r4, r5, r6, r7, pc}
   d6730:	2003d868 	.word	0x2003d868

000d6734 <_Z9fadeAllInv>:

void fadeAllIn()
{
   d6734:	b538      	push	{r3, r4, r5, lr}
  for (int fadeValue = 5; fadeValue <= 255; fadeValue += fadeIncrement)
   d6736:	4d0d      	ldr	r5, [pc, #52]	; (d676c <_Z9fadeAllInv+0x38>)
   d6738:	2405      	movs	r4, #5
  {
    analogWrite(RED_LED, fadeValue);
   d673a:	4621      	mov	r1, r4
   d673c:	2010      	movs	r0, #16
   d673e:	f004 fc61 	bl	db004 <_Z11analogWritetm>
    analogWrite(BLUE_LED, fadeValue);
   d6742:	4621      	mov	r1, r4
   d6744:	2012      	movs	r0, #18
   d6746:	f004 fc5d 	bl	db004 <_Z11analogWritetm>
    analogWrite(GREEN_LED, fadeValue);
   d674a:	4621      	mov	r1, r4
   d674c:	2011      	movs	r0, #17
   d674e:	f004 fc59 	bl	db004 <_Z11analogWritetm>
    analogWrite(YELLOW_LED, fadeValue);
   d6752:	4621      	mov	r1, r4
   d6754:	2013      	movs	r0, #19
   d6756:	f004 fc55 	bl	db004 <_Z11analogWritetm>
    delay(15);
   d675a:	200f      	movs	r0, #15
   d675c:	f002 fdb8 	bl	d92d0 <delay>
  }
}

void fadeAllIn()
{
  for (int fadeValue = 5; fadeValue <= 255; fadeValue += fadeIncrement)
   d6760:	682b      	ldr	r3, [r5, #0]
   d6762:	441c      	add	r4, r3
   d6764:	2cff      	cmp	r4, #255	; 0xff
   d6766:	dde8      	ble.n	d673a <_Z9fadeAllInv+0x6>
    analogWrite(BLUE_LED, fadeValue);
    analogWrite(GREEN_LED, fadeValue);
    analogWrite(YELLOW_LED, fadeValue);
    delay(15);
  }
}
   d6768:	bd38      	pop	{r3, r4, r5, pc}
   d676a:	bf00      	nop
   d676c:	2003d868 	.word	0x2003d868

000d6770 <_Z10fadeAllOutv>:

void fadeAllOut()
{
   d6770:	b538      	push	{r3, r4, r5, lr}
  for (int fadeValue = 255; fadeValue > 0; fadeValue -= fadeIncrement)
   d6772:	4d0d      	ldr	r5, [pc, #52]	; (d67a8 <_Z10fadeAllOutv+0x38>)
   d6774:	24ff      	movs	r4, #255	; 0xff
  {
    analogWrite(RED_LED, fadeValue);
   d6776:	4621      	mov	r1, r4
   d6778:	2010      	movs	r0, #16
   d677a:	f004 fc43 	bl	db004 <_Z11analogWritetm>
    analogWrite(BLUE_LED, fadeValue);
   d677e:	4621      	mov	r1, r4
   d6780:	2012      	movs	r0, #18
   d6782:	f004 fc3f 	bl	db004 <_Z11analogWritetm>
    analogWrite(GREEN_LED, fadeValue);
   d6786:	4621      	mov	r1, r4
   d6788:	2011      	movs	r0, #17
   d678a:	f004 fc3b 	bl	db004 <_Z11analogWritetm>
    analogWrite(YELLOW_LED, fadeValue);
   d678e:	4621      	mov	r1, r4
   d6790:	2013      	movs	r0, #19
   d6792:	f004 fc37 	bl	db004 <_Z11analogWritetm>
    delay(15);
   d6796:	200f      	movs	r0, #15
   d6798:	f002 fd9a 	bl	d92d0 <delay>
  }
}

void fadeAllOut()
{
  for (int fadeValue = 255; fadeValue > 0; fadeValue -= fadeIncrement)
   d679c:	682b      	ldr	r3, [r5, #0]
   d679e:	1ae4      	subs	r4, r4, r3
   d67a0:	2c00      	cmp	r4, #0
   d67a2:	dce8      	bgt.n	d6776 <_Z10fadeAllOutv+0x6>
    analogWrite(BLUE_LED, fadeValue);
    analogWrite(GREEN_LED, fadeValue);
    analogWrite(YELLOW_LED, fadeValue);
    delay(15);
  }
}
   d67a4:	bd38      	pop	{r3, r4, r5, pc}
   d67a6:	bf00      	nop
   d67a8:	2003d868 	.word	0x2003d868

000d67ac <_Z16toggleAllButtonsi>:
  analogWrite(YELLOW_LED, 255);
}

// Toggle all the buttons on or off
void toggleAllButtons(int state)
{
   d67ac:	b510      	push	{r4, lr}
  int analogState = state == HIGH ? 255 : 0;
   d67ae:	2801      	cmp	r0, #1
   d67b0:	bf0c      	ite	eq
   d67b2:	24ff      	moveq	r4, #255	; 0xff
   d67b4:	2400      	movne	r4, #0

  analogWrite(RED_LED, analogState);
   d67b6:	4621      	mov	r1, r4
   d67b8:	2010      	movs	r0, #16
   d67ba:	f004 fc23 	bl	db004 <_Z11analogWritetm>
  analogWrite(BLUE_LED, analogState);
   d67be:	4621      	mov	r1, r4
   d67c0:	2012      	movs	r0, #18
   d67c2:	f004 fc1f 	bl	db004 <_Z11analogWritetm>
  analogWrite(GREEN_LED, analogState);
   d67c6:	4621      	mov	r1, r4
   d67c8:	2011      	movs	r0, #17
   d67ca:	f004 fc1b 	bl	db004 <_Z11analogWritetm>
  analogWrite(YELLOW_LED, analogState);
   d67ce:	4621      	mov	r1, r4
   d67d0:	2013      	movs	r0, #19
}
   d67d2:	e8bd 4010 	ldmia.w	sp!, {r4, lr}
  int analogState = state == HIGH ? 255 : 0;

  analogWrite(RED_LED, analogState);
  analogWrite(BLUE_LED, analogState);
  analogWrite(GREEN_LED, analogState);
  analogWrite(YELLOW_LED, analogState);
   d67d6:	f004 bc15 	b.w	db004 <_Z11analogWritetm>

000d67da <_Z14initLEDButtonsv>:
  }
}

// Set up the tactile LED buttons
void initLEDButtons()
{
   d67da:	b508      	push	{r3, lr}
  int del = 300;
  int medDel = 500;

  // Init D7
  pinMode(D7, INPUT_PULLDOWN);
   d67dc:	2103      	movs	r1, #3
   d67de:	2007      	movs	r0, #7
   d67e0:	f004 fbbc 	bl	daf5c <pinMode>

  // Init LEDs as Outputs
  pinMode(RED_LED, OUTPUT);
   d67e4:	2101      	movs	r1, #1
   d67e6:	2010      	movs	r0, #16
   d67e8:	f004 fbb8 	bl	daf5c <pinMode>
  pinMode(BLUE_LED, OUTPUT);
   d67ec:	2101      	movs	r1, #1
   d67ee:	2012      	movs	r0, #18
   d67f0:	f004 fbb4 	bl	daf5c <pinMode>
  pinMode(GREEN_LED, OUTPUT);
   d67f4:	2101      	movs	r1, #1
   d67f6:	2011      	movs	r0, #17
   d67f8:	f004 fbb0 	bl	daf5c <pinMode>
  pinMode(YELLOW_LED, OUTPUT);
   d67fc:	2101      	movs	r1, #1
   d67fe:	2013      	movs	r0, #19
   d6800:	f004 fbac 	bl	daf5c <pinMode>

  fadeAllIn();
   d6804:	f7ff ff96 	bl	d6734 <_Z9fadeAllInv>
  fadeAllOut();
   d6808:	f7ff ffb2 	bl	d6770 <_Z10fadeAllOutv>
  fadeAllIn();
   d680c:	f7ff ff92 	bl	d6734 <_Z9fadeAllInv>
  fadeAllOut();
   d6810:	f7ff ffae 	bl	d6770 <_Z10fadeAllOutv>
  fadeAllIn();
   d6814:	f7ff ff8e 	bl	d6734 <_Z9fadeAllInv>

  toggleAllButtons(LOW);
   d6818:	2000      	movs	r0, #0
   d681a:	f7ff ffc7 	bl	d67ac <_Z16toggleAllButtonsi>
  delay(medDel);
   d681e:	f44f 70fa 	mov.w	r0, #500	; 0x1f4
   d6822:	f002 fd55 	bl	d92d0 <delay>

  analogWrite(RED_LED, 255);
   d6826:	21ff      	movs	r1, #255	; 0xff
   d6828:	2010      	movs	r0, #16
   d682a:	f004 fbeb 	bl	db004 <_Z11analogWritetm>
  delay(del);
   d682e:	f44f 7096 	mov.w	r0, #300	; 0x12c
   d6832:	f002 fd4d 	bl	d92d0 <delay>
  analogWrite(BLUE_LED, 255);
   d6836:	21ff      	movs	r1, #255	; 0xff
   d6838:	2012      	movs	r0, #18
   d683a:	f004 fbe3 	bl	db004 <_Z11analogWritetm>
  delay(del);
   d683e:	f44f 7096 	mov.w	r0, #300	; 0x12c
   d6842:	f002 fd45 	bl	d92d0 <delay>
  analogWrite(GREEN_LED, 255);
   d6846:	21ff      	movs	r1, #255	; 0xff
   d6848:	2011      	movs	r0, #17
   d684a:	f004 fbdb 	bl	db004 <_Z11analogWritetm>
  delay(del);
   d684e:	f44f 7096 	mov.w	r0, #300	; 0x12c
   d6852:	f002 fd3d 	bl	d92d0 <delay>
  analogWrite(YELLOW_LED, 255);
   d6856:	21ff      	movs	r1, #255	; 0xff
   d6858:	2013      	movs	r0, #19
}
   d685a:	e8bd 4008 	ldmia.w	sp!, {r3, lr}
  delay(del);
  analogWrite(BLUE_LED, 255);
  delay(del);
  analogWrite(GREEN_LED, 255);
  delay(del);
  analogWrite(YELLOW_LED, 255);
   d685e:	f004 bbd1 	b.w	db004 <_Z11analogWritetm>

000d6862 <_Z7setLEDsh>:

// Lights a given LEDs
// Pass in a byte that is made up from CHOICE_RED, CHOICE_YELLOW, etc
void setLEDs(byte leds)
{
  if ((leds & CHOICE_RED) != 0)
   d6862:	f010 0101 	ands.w	r1, r0, #1
}

// Lights a given LEDs
// Pass in a byte that is made up from CHOICE_RED, CHOICE_YELLOW, etc
void setLEDs(byte leds)
{
   d6866:	b510      	push	{r4, lr}
  if ((leds & CHOICE_RED) != 0)
    analogWrite(RED_LED, 255);
   d6868:	bf18      	it	ne
   d686a:	21ff      	movne	r1, #255	; 0xff
}

// Lights a given LEDs
// Pass in a byte that is made up from CHOICE_RED, CHOICE_YELLOW, etc
void setLEDs(byte leds)
{
   d686c:	4604      	mov	r4, r0
  if ((leds & CHOICE_RED) != 0)
    analogWrite(RED_LED, 255);
  else
    analogWrite(RED_LED, 0);
   d686e:	2010      	movs	r0, #16
   d6870:	f004 fbc8 	bl	db004 <_Z11analogWritetm>

  if ((leds & CHOICE_GREEN) != 0)
   d6874:	f004 0302 	and.w	r3, r4, #2
   d6878:	f003 01ff 	and.w	r1, r3, #255	; 0xff
   d687c:	b103      	cbz	r3, d6880 <_Z7setLEDsh+0x1e>
    analogWrite(GREEN_LED, 255);
   d687e:	21ff      	movs	r1, #255	; 0xff
  else
    analogWrite(GREEN_LED, 0);
   d6880:	2011      	movs	r0, #17
   d6882:	f004 fbbf 	bl	db004 <_Z11analogWritetm>

  if ((leds & CHOICE_BLUE) != 0)
   d6886:	f004 0304 	and.w	r3, r4, #4
   d688a:	f003 01ff 	and.w	r1, r3, #255	; 0xff
   d688e:	b103      	cbz	r3, d6892 <_Z7setLEDsh+0x30>
    analogWrite(BLUE_LED, 255);
   d6890:	21ff      	movs	r1, #255	; 0xff
  else
    analogWrite(BLUE_LED, 0);
   d6892:	2012      	movs	r0, #18

  if ((leds & CHOICE_YELLOW) != 0)
   d6894:	f004 0408 	and.w	r4, r4, #8
    analogWrite(GREEN_LED, 0);

  if ((leds & CHOICE_BLUE) != 0)
    analogWrite(BLUE_LED, 255);
  else
    analogWrite(BLUE_LED, 0);
   d6898:	f004 fbb4 	bl	db004 <_Z11analogWritetm>

  if ((leds & CHOICE_YELLOW) != 0)
   d689c:	f004 01ff 	and.w	r1, r4, #255	; 0xff
   d68a0:	b104      	cbz	r4, d68a4 <_Z7setLEDsh+0x42>
    analogWrite(YELLOW_LED, 255);
   d68a2:	21ff      	movs	r1, #255	; 0xff
  else
    analogWrite(YELLOW_LED, 0);
   d68a4:	2013      	movs	r0, #19
}
   d68a6:	e8bd 4010 	ldmia.w	sp!, {r4, lr}
    analogWrite(BLUE_LED, 0);

  if ((leds & CHOICE_YELLOW) != 0)
    analogWrite(YELLOW_LED, 255);
  else
    analogWrite(YELLOW_LED, 0);
   d68aa:	f004 bbab 	b.w	db004 <_Z11analogWritetm>
	...

000d68b0 <_Z9changeLEDv>:
  setLEDs(CHOICE_OFF); // Turn off all LEDs
}

// Each time this function is called the board moves to the next LED
void changeLED()
{
   d68b0:	b510      	push	{r4, lr}
  setLEDs(1 << LEDnumber); // Change the LED
   d68b2:	4c07      	ldr	r4, [pc, #28]	; (d68d0 <_Z9changeLEDv+0x20>)
   d68b4:	6820      	ldr	r0, [r4, #0]
   d68b6:	2301      	movs	r3, #1
   d68b8:	fa03 f000 	lsl.w	r0, r3, r0
   d68bc:	b2c0      	uxtb	r0, r0
   d68be:	f7ff ffd0 	bl	d6862 <_Z7setLEDsh>

  LEDnumber++; // Goto the next LED
   d68c2:	6823      	ldr	r3, [r4, #0]
   d68c4:	3301      	adds	r3, #1
  if (LEDnumber > 3)
   d68c6:	2b03      	cmp	r3, #3
    LEDnumber = 0; // Wrap the counter if needed
   d68c8:	bfc8      	it	gt
   d68ca:	2300      	movgt	r3, #0
   d68cc:	6023      	str	r3, [r4, #0]
   d68ce:	bd10      	pop	{r4, pc}
   d68d0:	2003e310 	.word	0x2003e310

000d68d4 <_Z8ledChasev>:
}

void ledChase()
{
  appmode = 1;
  btnid = 0;
   d68d4:	4a25      	ldr	r2, [pc, #148]	; (d696c <_Z8ledChasev+0x98>)
  if (LEDnumber > 3)
    LEDnumber = 0; // Wrap the counter if needed
}

void ledChase()
{
   d68d6:	b538      	push	{r3, r4, r5, lr}
  appmode = 1;
  btnid = 0;
   d68d8:	2500      	movs	r5, #0
   d68da:	7015      	strb	r5, [r2, #0]
    LEDnumber = 0; // Wrap the counter if needed
}

void ledChase()
{
  appmode = 1;
   d68dc:	4c24      	ldr	r4, [pc, #144]	; (d6970 <_Z8ledChasev+0x9c>)
  btnid = 0;
  int del = 100;
  showingLightAnimation = true;
   d68de:	4a25      	ldr	r2, [pc, #148]	; (d6974 <_Z8ledChasev+0xa0>)
    LEDnumber = 0; // Wrap the counter if needed
}

void ledChase()
{
  appmode = 1;
   d68e0:	2301      	movs	r3, #1
   d68e2:	7023      	strb	r3, [r4, #0]
  btnid = 0;
  int del = 100;
  showingLightAnimation = true;
   d68e4:	7013      	strb	r3, [r2, #0]

  setupBackButtonInterrupt();
   d68e6:	f7ff fee5 	bl	d66b4 <_Z24setupBackButtonInterruptv>
  toggleAllButtons(LOW);
   d68ea:	4628      	mov	r0, r5
   d68ec:	f7ff ff5e 	bl	d67ac <_Z16toggleAllButtonsi>

  while (appmode)
   d68f0:	7823      	ldrb	r3, [r4, #0]
   d68f2:	b3d3      	cbz	r3, d696a <_Z8ledChasev+0x96>
  {
    displayCarousel();
   d68f4:	f7fe fd44 	bl	d5380 <_Z15displayCarouselv>

    analogWrite(BLUE_LED, 255);
   d68f8:	21ff      	movs	r1, #255	; 0xff
   d68fa:	2012      	movs	r0, #18
   d68fc:	f004 fb82 	bl	db004 <_Z11analogWritetm>
    delay(del);
   d6900:	2064      	movs	r0, #100	; 0x64
   d6902:	f002 fce5 	bl	d92d0 <delay>
    analogWrite(GREEN_LED, 255);
   d6906:	21ff      	movs	r1, #255	; 0xff
   d6908:	2011      	movs	r0, #17
   d690a:	f004 fb7b 	bl	db004 <_Z11analogWritetm>
    delay(del);
   d690e:	2064      	movs	r0, #100	; 0x64
   d6910:	f002 fcde 	bl	d92d0 <delay>
    analogWrite(YELLOW_LED, 255);
   d6914:	21ff      	movs	r1, #255	; 0xff
   d6916:	2013      	movs	r0, #19
   d6918:	f004 fb74 	bl	db004 <_Z11analogWritetm>
    delay(del);
   d691c:	2064      	movs	r0, #100	; 0x64
   d691e:	f002 fcd7 	bl	d92d0 <delay>
    analogWrite(RED_LED, 255);
   d6922:	21ff      	movs	r1, #255	; 0xff
   d6924:	2010      	movs	r0, #16
   d6926:	f004 fb6d 	bl	db004 <_Z11analogWritetm>
    delay(del);
   d692a:	2064      	movs	r0, #100	; 0x64
   d692c:	f002 fcd0 	bl	d92d0 <delay>

    analogWrite(BLUE_LED, 0);
   d6930:	2100      	movs	r1, #0
   d6932:	2012      	movs	r0, #18
   d6934:	f004 fb66 	bl	db004 <_Z11analogWritetm>
    delay(del);
   d6938:	2064      	movs	r0, #100	; 0x64
   d693a:	f002 fcc9 	bl	d92d0 <delay>
    analogWrite(GREEN_LED, 0);
   d693e:	2100      	movs	r1, #0
   d6940:	2011      	movs	r0, #17
   d6942:	f004 fb5f 	bl	db004 <_Z11analogWritetm>
    delay(del);
   d6946:	2064      	movs	r0, #100	; 0x64
   d6948:	f002 fcc2 	bl	d92d0 <delay>
    analogWrite(YELLOW_LED, 0);
   d694c:	2100      	movs	r1, #0
   d694e:	2013      	movs	r0, #19
   d6950:	f004 fb58 	bl	db004 <_Z11analogWritetm>
    delay(del);
   d6954:	2064      	movs	r0, #100	; 0x64
   d6956:	f002 fcbb 	bl	d92d0 <delay>
    analogWrite(RED_LED, 0);
   d695a:	2100      	movs	r1, #0
   d695c:	2010      	movs	r0, #16
   d695e:	f004 fb51 	bl	db004 <_Z11analogWritetm>
    delay(del);
   d6962:	2064      	movs	r0, #100	; 0x64
   d6964:	f002 fcb4 	bl	d92d0 <delay>
  showingLightAnimation = true;

  setupBackButtonInterrupt();
  toggleAllButtons(LOW);

  while (appmode)
   d6968:	e7c2      	b.n	d68f0 <_Z8ledChasev+0x1c>
   d696a:	bd38      	pop	{r3, r4, r5, pc}
   d696c:	2003e22c 	.word	0x2003e22c
   d6970:	2003e21a 	.word	0x2003e21a
   d6974:	2003e271 	.word	0x2003e271

000d6978 <_Z13ledPulseChasev>:
}

void ledPulseChase()
{
  appmode = 1;
  btnid = 0;
   d6978:	4a25      	ldr	r2, [pc, #148]	; (d6a10 <_Z13ledPulseChasev+0x98>)
    delay(del);
  }
}

void ledPulseChase()
{
   d697a:	b538      	push	{r3, r4, r5, lr}
  appmode = 1;
  btnid = 0;
   d697c:	2500      	movs	r5, #0
   d697e:	7015      	strb	r5, [r2, #0]
  }
}

void ledPulseChase()
{
  appmode = 1;
   d6980:	4c24      	ldr	r4, [pc, #144]	; (d6a14 <_Z13ledPulseChasev+0x9c>)
  btnid = 0;
  int del = 5;
  int fadeDel = 10;
  showingLightAnimation = true;
   d6982:	4a25      	ldr	r2, [pc, #148]	; (d6a18 <_Z13ledPulseChasev+0xa0>)
  }
}

void ledPulseChase()
{
  appmode = 1;
   d6984:	2301      	movs	r3, #1
   d6986:	7023      	strb	r3, [r4, #0]
  btnid = 0;
  int del = 5;
  int fadeDel = 10;
  showingLightAnimation = true;
   d6988:	7013      	strb	r3, [r2, #0]

  setupBackButtonInterrupt();
   d698a:	f7ff fe93 	bl	d66b4 <_Z24setupBackButtonInterruptv>
  toggleAllButtons(LOW);
   d698e:	4628      	mov	r0, r5
   d6990:	f7ff ff0c 	bl	d67ac <_Z16toggleAllButtonsi>

  while (appmode)
   d6994:	7823      	ldrb	r3, [r4, #0]
   d6996:	b3d3      	cbz	r3, d6a0e <_Z13ledPulseChasev+0x96>
  {
    displayCarousel();
   d6998:	f7fe fcf2 	bl	d5380 <_Z15displayCarouselv>

    fadeIn(BLUE_LED, fadeDel);
   d699c:	210a      	movs	r1, #10
   d699e:	2012      	movs	r0, #18
   d69a0:	f7ff fea2 	bl	d66e8 <_Z6fadeInii>
    delay(del);
   d69a4:	2005      	movs	r0, #5
   d69a6:	f002 fc93 	bl	d92d0 <delay>
    fadeIn(GREEN_LED, fadeDel);
   d69aa:	210a      	movs	r1, #10
   d69ac:	2011      	movs	r0, #17
   d69ae:	f7ff fe9b 	bl	d66e8 <_Z6fadeInii>
    delay(del);
   d69b2:	2005      	movs	r0, #5
   d69b4:	f002 fc8c 	bl	d92d0 <delay>
    fadeIn(YELLOW_LED, fadeDel);
   d69b8:	210a      	movs	r1, #10
   d69ba:	2013      	movs	r0, #19
   d69bc:	f7ff fe94 	bl	d66e8 <_Z6fadeInii>
    delay(del);
   d69c0:	2005      	movs	r0, #5
   d69c2:	f002 fc85 	bl	d92d0 <delay>
    fadeIn(RED_LED, fadeDel);
   d69c6:	210a      	movs	r1, #10
   d69c8:	2010      	movs	r0, #16
   d69ca:	f7ff fe8d 	bl	d66e8 <_Z6fadeInii>
    delay(del);
   d69ce:	2005      	movs	r0, #5
   d69d0:	f002 fc7e 	bl	d92d0 <delay>

    fadeOut(BLUE_LED, fadeDel);
   d69d4:	210a      	movs	r1, #10
   d69d6:	2012      	movs	r0, #18
   d69d8:	f7ff fe9a 	bl	d6710 <_Z7fadeOutii>
    delay(del);
   d69dc:	2005      	movs	r0, #5
   d69de:	f002 fc77 	bl	d92d0 <delay>
    fadeOut(GREEN_LED, fadeDel);
   d69e2:	210a      	movs	r1, #10
   d69e4:	2011      	movs	r0, #17
   d69e6:	f7ff fe93 	bl	d6710 <_Z7fadeOutii>
    delay(del);
   d69ea:	2005      	movs	r0, #5
   d69ec:	f002 fc70 	bl	d92d0 <delay>
    fadeOut(YELLOW_LED, fadeDel);
   d69f0:	210a      	movs	r1, #10
   d69f2:	2013      	movs	r0, #19
   d69f4:	f7ff fe8c 	bl	d6710 <_Z7fadeOutii>
    delay(del);
   d69f8:	2005      	movs	r0, #5
   d69fa:	f002 fc69 	bl	d92d0 <delay>
    fadeOut(RED_LED, fadeDel);
   d69fe:	210a      	movs	r1, #10
   d6a00:	2010      	movs	r0, #16
   d6a02:	f7ff fe85 	bl	d6710 <_Z7fadeOutii>
    delay(del);
   d6a06:	2005      	movs	r0, #5
   d6a08:	f002 fc62 	bl	d92d0 <delay>
  showingLightAnimation = true;

  setupBackButtonInterrupt();
  toggleAllButtons(LOW);

  while (appmode)
   d6a0c:	e7c2      	b.n	d6994 <_Z13ledPulseChasev+0x1c>
   d6a0e:	bd38      	pop	{r3, r4, r5, pc}
   d6a10:	2003e22c 	.word	0x2003e22c
   d6a14:	2003e21a 	.word	0x2003e21a
   d6a18:	2003e271 	.word	0x2003e271

000d6a1c <_Z8ledPulseb>:
}

void ledPulse(bool showCarousel)
{
  appmode = 1;
  btnid = 0;
   d6a1c:	4a0c      	ldr	r2, [pc, #48]	; (d6a50 <_Z8ledPulseb+0x34>)
    delay(del);
  }
}

void ledPulse(bool showCarousel)
{
   d6a1e:	b570      	push	{r4, r5, r6, lr}
  appmode = 1;
  btnid = 0;
   d6a20:	2500      	movs	r5, #0
   d6a22:	7015      	strb	r5, [r2, #0]
  }
}

void ledPulse(bool showCarousel)
{
  appmode = 1;
   d6a24:	4c0b      	ldr	r4, [pc, #44]	; (d6a54 <_Z8ledPulseb+0x38>)
  btnid = 0;
  showingLightAnimation = true;
   d6a26:	4a0c      	ldr	r2, [pc, #48]	; (d6a58 <_Z8ledPulseb+0x3c>)
  }
}

void ledPulse(bool showCarousel)
{
  appmode = 1;
   d6a28:	2301      	movs	r3, #1
    delay(del);
  }
}

void ledPulse(bool showCarousel)
{
   d6a2a:	4606      	mov	r6, r0
  appmode = 1;
   d6a2c:	7023      	strb	r3, [r4, #0]
  btnid = 0;
  showingLightAnimation = true;
   d6a2e:	7013      	strb	r3, [r2, #0]

  setupBackButtonInterrupt();
   d6a30:	f7ff fe40 	bl	d66b4 <_Z24setupBackButtonInterruptv>
  toggleAllButtons(LOW);
   d6a34:	4628      	mov	r0, r5
   d6a36:	f7ff feb9 	bl	d67ac <_Z16toggleAllButtonsi>

  while (appmode)
   d6a3a:	7823      	ldrb	r3, [r4, #0]
   d6a3c:	b13b      	cbz	r3, d6a4e <_Z8ledPulseb+0x32>
  {
    if (showCarousel)
   d6a3e:	b10e      	cbz	r6, d6a44 <_Z8ledPulseb+0x28>
    {
      displayCarousel();
   d6a40:	f7fe fc9e 	bl	d5380 <_Z15displayCarouselv>
    }

    fadeAllIn();
   d6a44:	f7ff fe76 	bl	d6734 <_Z9fadeAllInv>
    fadeAllOut();
   d6a48:	f7ff fe92 	bl	d6770 <_Z10fadeAllOutv>
  showingLightAnimation = true;

  setupBackButtonInterrupt();
  toggleAllButtons(LOW);

  while (appmode)
   d6a4c:	e7f5      	b.n	d6a3a <_Z8ledPulseb+0x1e>
   d6a4e:	bd70      	pop	{r4, r5, r6, pc}
   d6a50:	2003e22c 	.word	0x2003e22c
   d6a54:	2003e21a 	.word	0x2003e21a
   d6a58:	2003e271 	.word	0x2003e271

000d6a5c <_Z9ledRandomv>:
    fadeAllOut();
  }
}

void ledRandom()
{
   d6a5c:	b537      	push	{r0, r1, r2, r4, r5, lr}
  appmode = 1;
  btnid = 0;
   d6a5e:	4a16      	ldr	r2, [pc, #88]	; (d6ab8 <_Z9ledRandomv+0x5c>)
  }
}

void ledRandom()
{
  appmode = 1;
   d6a60:	4c16      	ldr	r4, [pc, #88]	; (d6abc <_Z9ledRandomv+0x60>)
  btnid = 0;
   d6a62:	2500      	movs	r5, #0
   d6a64:	7015      	strb	r5, [r2, #0]
  int r = 0;
  int del = 150;
  showingLightAnimation = true;
   d6a66:	4a16      	ldr	r2, [pc, #88]	; (d6ac0 <_Z9ledRandomv+0x64>)
  }
}

void ledRandom()
{
  appmode = 1;
   d6a68:	2301      	movs	r3, #1
  btnid = 0;
  int r = 0;
  int del = 150;
  showingLightAnimation = true;
   d6a6a:	7013      	strb	r3, [r2, #0]

  pin_t leds[4] = {RED_LED, BLUE_LED, GREEN_LED, YELLOW_LED};
   d6a6c:	4a15      	ldr	r2, [pc, #84]	; (d6ac4 <_Z9ledRandomv+0x68>)
  }
}

void ledRandom()
{
  appmode = 1;
   d6a6e:	7023      	strb	r3, [r4, #0]
  btnid = 0;
  int r = 0;
  int del = 150;
  showingLightAnimation = true;

  pin_t leds[4] = {RED_LED, BLUE_LED, GREEN_LED, YELLOW_LED};
   d6a70:	6810      	ldr	r0, [r2, #0]
   d6a72:	6851      	ldr	r1, [r2, #4]
   d6a74:	466b      	mov	r3, sp
   d6a76:	c303      	stmia	r3!, {r0, r1}

  setupBackButtonInterrupt();
   d6a78:	f7ff fe1c 	bl	d66b4 <_Z24setupBackButtonInterruptv>
  toggleAllButtons(LOW);
   d6a7c:	4628      	mov	r0, r5
   d6a7e:	f7ff fe95 	bl	d67ac <_Z16toggleAllButtonsi>

  while (appmode)
   d6a82:	7823      	ldrb	r3, [r4, #0]
   d6a84:	b1ab      	cbz	r3, d6ab2 <_Z9ledRandomv+0x56>
  {
    displayCarousel();
   d6a86:	f7fe fc7b 	bl	d5380 <_Z15displayCarouselv>

    r = random(4);
   d6a8a:	2004      	movs	r0, #4
   d6a8c:	f003 faaa 	bl	d9fe4 <_Z6randomi>

    analogWrite(leds[r], 255);
   d6a90:	ab02      	add	r3, sp, #8
   d6a92:	eb03 0040 	add.w	r0, r3, r0, lsl #1
   d6a96:	21ff      	movs	r1, #255	; 0xff
   d6a98:	f830 5c08 	ldrh.w	r5, [r0, #-8]
   d6a9c:	4628      	mov	r0, r5
   d6a9e:	f004 fab1 	bl	db004 <_Z11analogWritetm>
    delay(del);
   d6aa2:	2096      	movs	r0, #150	; 0x96
   d6aa4:	f002 fc14 	bl	d92d0 <delay>
    analogWrite(leds[r], 0);
   d6aa8:	2100      	movs	r1, #0
   d6aaa:	4628      	mov	r0, r5
   d6aac:	f004 faaa 	bl	db004 <_Z11analogWritetm>
  pin_t leds[4] = {RED_LED, BLUE_LED, GREEN_LED, YELLOW_LED};

  setupBackButtonInterrupt();
  toggleAllButtons(LOW);

  while (appmode)
   d6ab0:	e7e7      	b.n	d6a82 <_Z9ledRandomv+0x26>

    analogWrite(leds[r], 255);
    delay(del);
    analogWrite(leds[r], 0);
  }
}
   d6ab2:	b003      	add	sp, #12
   d6ab4:	bd30      	pop	{r4, r5, pc}
   d6ab6:	bf00      	nop
   d6ab8:	2003e22c 	.word	0x2003e22c
   d6abc:	2003e21a 	.word	0x2003e21a
   d6ac0:	2003e271 	.word	0x2003e271
   d6ac4:	000dd620 	.word	0x000dd620

000d6ac8 <_Z9ledSeeSawv>:

void ledSeeSaw()
{
  appmode = 1;
  btnid = 0;
   d6ac8:	4a25      	ldr	r2, [pc, #148]	; (d6b60 <_Z9ledSeeSawv+0x98>)
    analogWrite(leds[r], 0);
  }
}

void ledSeeSaw()
{
   d6aca:	b538      	push	{r3, r4, r5, lr}
  appmode = 1;
  btnid = 0;
   d6acc:	2500      	movs	r5, #0
   d6ace:	7015      	strb	r5, [r2, #0]
  }
}

void ledSeeSaw()
{
  appmode = 1;
   d6ad0:	4c24      	ldr	r4, [pc, #144]	; (d6b64 <_Z9ledSeeSawv+0x9c>)
  btnid = 0;
  int del = 150;
  showingLightAnimation = true;
   d6ad2:	4a25      	ldr	r2, [pc, #148]	; (d6b68 <_Z9ledSeeSawv+0xa0>)
  }
}

void ledSeeSaw()
{
  appmode = 1;
   d6ad4:	2301      	movs	r3, #1
   d6ad6:	7023      	strb	r3, [r4, #0]
  btnid = 0;
  int del = 150;
  showingLightAnimation = true;
   d6ad8:	7013      	strb	r3, [r2, #0]

  setupBackButtonInterrupt();
   d6ada:	f7ff fdeb 	bl	d66b4 <_Z24setupBackButtonInterruptv>
  toggleAllButtons(LOW);
   d6ade:	4628      	mov	r0, r5
   d6ae0:	f7ff fe64 	bl	d67ac <_Z16toggleAllButtonsi>

  while (appmode)
   d6ae4:	7823      	ldrb	r3, [r4, #0]
   d6ae6:	b3d3      	cbz	r3, d6b5e <_Z9ledSeeSawv+0x96>
  {
    displayCarousel();
   d6ae8:	f7fe fc4a 	bl	d5380 <_Z15displayCarouselv>

    analogWrite(BLUE_LED, 255);
   d6aec:	21ff      	movs	r1, #255	; 0xff
   d6aee:	2012      	movs	r0, #18
   d6af0:	f004 fa88 	bl	db004 <_Z11analogWritetm>
    delay(del);
   d6af4:	2096      	movs	r0, #150	; 0x96
   d6af6:	f002 fbeb 	bl	d92d0 <delay>
    analogWrite(GREEN_LED, 255);
   d6afa:	21ff      	movs	r1, #255	; 0xff
   d6afc:	2011      	movs	r0, #17
   d6afe:	f004 fa81 	bl	db004 <_Z11analogWritetm>
    delay(del);
   d6b02:	2096      	movs	r0, #150	; 0x96
   d6b04:	f002 fbe4 	bl	d92d0 <delay>
    analogWrite(YELLOW_LED, 255);
   d6b08:	21ff      	movs	r1, #255	; 0xff
   d6b0a:	2013      	movs	r0, #19
   d6b0c:	f004 fa7a 	bl	db004 <_Z11analogWritetm>
    delay(del);
   d6b10:	2096      	movs	r0, #150	; 0x96
   d6b12:	f002 fbdd 	bl	d92d0 <delay>
    analogWrite(RED_LED, 255);
   d6b16:	21ff      	movs	r1, #255	; 0xff
   d6b18:	2010      	movs	r0, #16
   d6b1a:	f004 fa73 	bl	db004 <_Z11analogWritetm>
    delay(del);
   d6b1e:	2096      	movs	r0, #150	; 0x96
   d6b20:	f002 fbd6 	bl	d92d0 <delay>

    analogWrite(RED_LED, 0);
   d6b24:	2100      	movs	r1, #0
   d6b26:	2010      	movs	r0, #16
   d6b28:	f004 fa6c 	bl	db004 <_Z11analogWritetm>
    delay(del);
   d6b2c:	2096      	movs	r0, #150	; 0x96
   d6b2e:	f002 fbcf 	bl	d92d0 <delay>
    analogWrite(YELLOW_LED, 0);
   d6b32:	2100      	movs	r1, #0
   d6b34:	2013      	movs	r0, #19
   d6b36:	f004 fa65 	bl	db004 <_Z11analogWritetm>
    delay(del);
   d6b3a:	2096      	movs	r0, #150	; 0x96
   d6b3c:	f002 fbc8 	bl	d92d0 <delay>
    analogWrite(GREEN_LED, 0);
   d6b40:	2100      	movs	r1, #0
   d6b42:	2011      	movs	r0, #17
   d6b44:	f004 fa5e 	bl	db004 <_Z11analogWritetm>
    delay(del);
   d6b48:	2096      	movs	r0, #150	; 0x96
   d6b4a:	f002 fbc1 	bl	d92d0 <delay>
    analogWrite(BLUE_LED, 0);
   d6b4e:	2100      	movs	r1, #0
   d6b50:	2012      	movs	r0, #18
   d6b52:	f004 fa57 	bl	db004 <_Z11analogWritetm>
    delay(del);
   d6b56:	2096      	movs	r0, #150	; 0x96
   d6b58:	f002 fbba 	bl	d92d0 <delay>
  showingLightAnimation = true;

  setupBackButtonInterrupt();
  toggleAllButtons(LOW);

  while (appmode)
   d6b5c:	e7c2      	b.n	d6ae4 <_Z9ledSeeSawv+0x1c>
   d6b5e:	bd38      	pop	{r3, r4, r5, pc}
   d6b60:	2003e22c 	.word	0x2003e22c
   d6b64:	2003e21a 	.word	0x2003e21a
   d6b68:	2003e271 	.word	0x2003e271

000d6b6c <_Z16towerFullHandlerPKcS0_>:
  Mesh.connect();
}

void towerFullHandler(const char *event, const char *data)
{
  ledChase();
   d6b6c:	f7ff beb2 	b.w	d68d4 <_Z8ledChasev>

000d6b70 <_Z21towerFullSloMohandlerPKcS0_>:
}

void towerFullSloMohandler(const char *event, const char *data)
{
  // TODO: Replace with slow-mo replay
  ledPulseChase();
   d6b70:	f7ff bf02 	b.w	d6978 <_Z13ledPulseChasev>

000d6b74 <_Z15meshPingHandlerPKcS0_>:
}

void meshPingHandler(const char *event, const char *data)
{
  displayMeshPing();
   d6b74:	f7fe bece 	b.w	d5914 <_Z15displayMeshPingv>

000d6b78 <_Z17zachButtonHandlerPKcS0_>:
}

void zachButtonHandler(const char *event, const char *data)
{
   d6b78:	b508      	push	{r3, lr}
  displayHiFromZ();
   d6b7a:	f7fe ff19 	bl	d59b0 <_Z14displayHiFromZv>
  ledPulse(false);
   d6b7e:	2000      	movs	r0, #0
}
   d6b80:	e8bd 4008 	ldmia.w	sp!, {r3, lr}
}

void zachButtonHandler(const char *event, const char *data)
{
  displayHiFromZ();
  ledPulse(false);
   d6b84:	f7ff bf4a 	b.w	d6a1c <_Z8ledPulseb>

000d6b88 <_Z21gatewayPublishHandlerPKcS0_>:
}

void gatewayPublishHandler(const char *event, const char *data)
{
  displayGatewayPing(data);
   d6b88:	4608      	mov	r0, r1
   d6b8a:	f7fe bee1 	b.w	d5950 <_Z18displayGatewayPingPKc>

000d6b8e <_Z9meshSetupv>:
#include "leds/leds.h"

//MeshSignal signal;

void meshSetup()
{
   d6b8e:	b510      	push	{r4, lr}
};

class MeshClass : public NetworkClass, public MeshPublish {
public:
    void on() {
        network_on(*this, 0, 0, NULL);
   d6b90:	2300      	movs	r3, #0
   d6b92:	461a      	mov	r2, r3
   d6b94:	4619      	mov	r1, r3
   d6b96:	4618      	mov	r0, r3
   d6b98:	f002 fb5a 	bl	d9250 <network_on>
    void off() {
        network_off(*this, 0, 0, NULL);
    }

    void connect(unsigned flags=0) {
        network_connect(*this, flags, 0, NULL);
   d6b9c:	2300      	movs	r3, #0
   d6b9e:	461a      	mov	r2, r3
   d6ba0:	4619      	mov	r1, r3
   d6ba2:	4618      	mov	r0, r3
  Mesh.on();
  Mesh.connect();
}
   d6ba4:	e8bd 4010 	ldmia.w	sp!, {r4, lr}
   d6ba8:	f002 bb3a 	b.w	d9220 <network_connect>

000d6bac <_Z15setupMeshEventsv>:
{
  displayGatewayPing(data);
}

void setupMeshEvents()
{
   d6bac:	b510      	push	{r4, lr}
  Mesh.subscribe("tower-full", towerFullHandler);
   d6bae:	4c0e      	ldr	r4, [pc, #56]	; (d6be8 <_Z15setupMeshEventsv+0x3c>)
   d6bb0:	4a0e      	ldr	r2, [pc, #56]	; (d6bec <_Z15setupMeshEventsv+0x40>)
   d6bb2:	490f      	ldr	r1, [pc, #60]	; (d6bf0 <_Z15setupMeshEventsv+0x44>)
   d6bb4:	4620      	mov	r0, r4
   d6bb6:	f003 f8f1 	bl	d9d9c <_ZN5spark11MeshPublish9subscribeEPKcPFvS2_S2_E>
  Mesh.subscribe("tower-full-slomo", towerFullSloMohandler);
   d6bba:	4a0e      	ldr	r2, [pc, #56]	; (d6bf4 <_Z15setupMeshEventsv+0x48>)
   d6bbc:	490e      	ldr	r1, [pc, #56]	; (d6bf8 <_Z15setupMeshEventsv+0x4c>)
   d6bbe:	4620      	mov	r0, r4
   d6bc0:	f003 f8ec 	bl	d9d9c <_ZN5spark11MeshPublish9subscribeEPKcPFvS2_S2_E>
  Mesh.subscribe("mesh-ping", meshPingHandler);
   d6bc4:	4a0d      	ldr	r2, [pc, #52]	; (d6bfc <_Z15setupMeshEventsv+0x50>)
   d6bc6:	490e      	ldr	r1, [pc, #56]	; (d6c00 <_Z15setupMeshEventsv+0x54>)
   d6bc8:	4620      	mov	r0, r4
   d6bca:	f003 f8e7 	bl	d9d9c <_ZN5spark11MeshPublish9subscribeEPKcPFvS2_S2_E>
  Mesh.subscribe("zach-button", zachButtonHandler);
   d6bce:	4a0d      	ldr	r2, [pc, #52]	; (d6c04 <_Z15setupMeshEventsv+0x58>)
   d6bd0:	490d      	ldr	r1, [pc, #52]	; (d6c08 <_Z15setupMeshEventsv+0x5c>)
   d6bd2:	4620      	mov	r0, r4
   d6bd4:	f003 f8e2 	bl	d9d9c <_ZN5spark11MeshPublish9subscribeEPKcPFvS2_S2_E>

  // Workshop subscriptions
  Mesh.subscribe("gateway-setup-clicked", gatewayPublishHandler);
   d6bd8:	4620      	mov	r0, r4
   d6bda:	4a0c      	ldr	r2, [pc, #48]	; (d6c0c <_Z15setupMeshEventsv+0x60>)
   d6bdc:	490c      	ldr	r1, [pc, #48]	; (d6c10 <_Z15setupMeshEventsv+0x64>)
}
   d6bde:	e8bd 4010 	ldmia.w	sp!, {r4, lr}
  Mesh.subscribe("tower-full-slomo", towerFullSloMohandler);
  Mesh.subscribe("mesh-ping", meshPingHandler);
  Mesh.subscribe("zach-button", zachButtonHandler);

  // Workshop subscriptions
  Mesh.subscribe("gateway-setup-clicked", gatewayPublishHandler);
   d6be2:	f003 b8db 	b.w	d9d9c <_ZN5spark11MeshPublish9subscribeEPKcPFvS2_S2_E>
   d6be6:	bf00      	nop
   d6be8:	2003e408 	.word	0x2003e408
   d6bec:	000d6b6d 	.word	0x000d6b6d
   d6bf0:	000dd628 	.word	0x000dd628
   d6bf4:	000d6b71 	.word	0x000d6b71
   d6bf8:	000dd633 	.word	0x000dd633
   d6bfc:	000d6b75 	.word	0x000d6b75
   d6c00:	000dd581 	.word	0x000dd581
   d6c04:	000d6b79 	.word	0x000d6b79
   d6c08:	000dd56e 	.word	0x000dd56e
   d6c0c:	000d6b89 	.word	0x000d6b89
   d6c10:	000dd644 	.word	0x000dd644

000d6c14 <_Z18getMeshNetworkInfov>:
}

void getMeshNetworkInfo()
{
   d6c14:	b570      	push	{r4, r5, r6, lr}
  Serial.printlnf("Connecting? %s", Mesh.connecting() ? "YES" : "NO");
   d6c16:	f004 f869 	bl	dacec <_Z16_fetch_usbserialv>
    }

    bool connecting(void) {
        return network_connecting(*this, 0, NULL);
   d6c1a:	2200      	movs	r2, #0
   d6c1c:	4606      	mov	r6, r0
   d6c1e:	4611      	mov	r1, r2
   d6c20:	4610      	mov	r0, r2
   d6c22:	f002 fb05 	bl	d9230 <network_connecting>
   d6c26:	4d17      	ldr	r5, [pc, #92]	; (d6c84 <_Z18getMeshNetworkInfov+0x70>)
   d6c28:	4c17      	ldr	r4, [pc, #92]	; (d6c88 <_Z18getMeshNetworkInfov+0x74>)
   d6c2a:	4a18      	ldr	r2, [pc, #96]	; (d6c8c <_Z18getMeshNetworkInfov+0x78>)
   d6c2c:	2800      	cmp	r0, #0
   d6c2e:	bf14      	ite	ne
   d6c30:	462b      	movne	r3, r5
   d6c32:	4623      	moveq	r3, r4
   d6c34:	2101      	movs	r1, #1
   d6c36:	4630      	mov	r0, r6
   d6c38:	f003 f99a 	bl	d9f70 <_ZN5Print11printf_implEbPKcz>
  Serial.printlnf("Network ready? %s", Mesh.ready() ? "YES" : "NO");
   d6c3c:	f004 f856 	bl	dacec <_Z16_fetch_usbserialv>
    bool listening(void) {
        return network_listening(*this, 0, NULL);
    }

    bool ready() {
        return network_ready(*this, 0,  NULL);
   d6c40:	2200      	movs	r2, #0
   d6c42:	4606      	mov	r6, r0
   d6c44:	4611      	mov	r1, r2
   d6c46:	4610      	mov	r0, r2
   d6c48:	f002 fafa 	bl	d9240 <network_ready>
   d6c4c:	4a10      	ldr	r2, [pc, #64]	; (d6c90 <_Z18getMeshNetworkInfov+0x7c>)
   d6c4e:	2800      	cmp	r0, #0
   d6c50:	bf14      	ite	ne
   d6c52:	462b      	movne	r3, r5
   d6c54:	4623      	moveq	r3, r4
   d6c56:	2101      	movs	r1, #1
   d6c58:	4630      	mov	r0, r6
   d6c5a:	f003 f989 	bl	d9f70 <_ZN5Print11printf_implEbPKcz>
  Serial.printlnf("Listening? %s", Mesh.listening() ? "YES" : "NO");
   d6c5e:	f004 f845 	bl	dacec <_Z16_fetch_usbserialv>
    uint16_t getListenTimeout(void) {
        return network_get_listen_timeout(*this, 0, NULL);
    }

    bool listening(void) {
        return network_listening(*this, 0, NULL);
   d6c62:	2200      	movs	r2, #0
   d6c64:	4606      	mov	r6, r0
   d6c66:	4611      	mov	r1, r2
   d6c68:	4610      	mov	r0, r2
   d6c6a:	f002 faf9 	bl	d9260 <network_listening>
   d6c6e:	4a09      	ldr	r2, [pc, #36]	; (d6c94 <_Z18getMeshNetworkInfov+0x80>)
   d6c70:	2800      	cmp	r0, #0
   d6c72:	bf14      	ite	ne
   d6c74:	462b      	movne	r3, r5
   d6c76:	4623      	moveq	r3, r4
   d6c78:	2101      	movs	r1, #1
   d6c7a:	4630      	mov	r0, r6
  //Serial.printlnf("Signal: %f", signal.getStrength());
   d6c7c:	e8bd 4070 	ldmia.w	sp!, {r4, r5, r6, lr}
   d6c80:	f003 b976 	b.w	d9f70 <_ZN5Print11printf_implEbPKcz>
   d6c84:	000dd65a 	.word	0x000dd65a
   d6c88:	000dd65e 	.word	0x000dd65e
   d6c8c:	000dd661 	.word	0x000dd661
   d6c90:	000dd670 	.word	0x000dd670
   d6c94:	000dd682 	.word	0x000dd682

000d6c98 <_Z9playTonesiPKi>:
    NOTE_E4, 0, NOTE_D4, NOTE_E4, NOTE_G4, 0,
    NOTE_D4, NOTE_E4, 0, NOTE_G4, 0, 0,
    NOTE_D4, 0, NOTE_E4, 0, NOTE_G4, 0, NOTE_A4, 0, NOTE_C5, 0};

void playTones(int tonePin, const int tones[])
{
   d6c98:	e92d 41f0 	stmdb	sp!, {r4, r5, r6, r7, r8, lr}
   d6c9c:	4688      	mov	r8, r1
   d6c9e:	1d0c      	adds	r4, r1, #4
  for (int thisNote = 1; thisNote < (tones[0] * 2 + 1); thisNote = thisNote + 2)
   d6ca0:	2501      	movs	r5, #1
  {
    tone(tonePin, tones[thisNote], (1000 / tones[thisNote + 1]));
   d6ca2:	b2c6      	uxtb	r6, r0
   d6ca4:	f44f 777a 	mov.w	r7, #1000	; 0x3e8
    NOTE_D4, NOTE_E4, 0, NOTE_G4, 0, 0,
    NOTE_D4, 0, NOTE_E4, 0, NOTE_G4, 0, NOTE_A4, 0, NOTE_C5, 0};

void playTones(int tonePin, const int tones[])
{
  for (int thisNote = 1; thisNote < (tones[0] * 2 + 1); thisNote = thisNote + 2)
   d6ca8:	f8d8 3000 	ldr.w	r3, [r8]
   d6cac:	ebb5 0f43 	cmp.w	r5, r3, lsl #1
   d6cb0:	f104 0408 	add.w	r4, r4, #8
   d6cb4:	dc1c      	bgt.n	d6cf0 <_Z9playTonesiPKi+0x58>
  {
    tone(tonePin, tones[thisNote], (1000 / tones[thisNote + 1]));
   d6cb6:	f854 2c04 	ldr.w	r2, [r4, #-4]
   d6cba:	f854 1c08 	ldr.w	r1, [r4, #-8]
   d6cbe:	fb97 f2f2 	sdiv	r2, r7, r2
   d6cc2:	4630      	mov	r0, r6
   d6cc4:	f003 fbb6 	bl	da434 <tone>
    delay((1000 / tones[thisNote + 1]) * 1.30);
   d6cc8:	f854 0c04 	ldr.w	r0, [r4, #-4]
   d6ccc:	fb97 f0f0 	sdiv	r0, r7, r0
   d6cd0:	f004 fcda 	bl	db688 <__aeabi_i2d>
   d6cd4:	a308      	add	r3, pc, #32	; (adr r3, d6cf8 <_Z9playTonesiPKi+0x60>)
   d6cd6:	e9d3 2300 	ldrd	r2, r3, [r3]
   d6cda:	f004 fd3b 	bl	db754 <__aeabi_dmul>
   d6cde:	f004 fffb 	bl	dbcd8 <__aeabi_d2uiz>
   d6ce2:	f002 faf5 	bl	d92d0 <delay>
    noTone(tonePin);
   d6ce6:	4630      	mov	r0, r6
   d6ce8:	f003 fbbb 	bl	da462 <noTone>
    NOTE_D4, NOTE_E4, 0, NOTE_G4, 0, 0,
    NOTE_D4, 0, NOTE_E4, 0, NOTE_G4, 0, NOTE_A4, 0, NOTE_C5, 0};

void playTones(int tonePin, const int tones[])
{
  for (int thisNote = 1; thisNote < (tones[0] * 2 + 1); thisNote = thisNote + 2)
   d6cec:	3502      	adds	r5, #2
   d6cee:	e7db      	b.n	d6ca8 <_Z9playTonesiPKi+0x10>
   d6cf0:	e8bd 81f0 	ldmia.w	sp!, {r4, r5, r6, r7, r8, pc}
   d6cf4:	f3af 8000 	nop.w
   d6cf8:	cccccccd 	.word	0xcccccccd
   d6cfc:	3ff4cccc 	.word	0x3ff4cccc

000d6d00 <_Z11playStartupi>:
  }
}

void playStartup(int tonePin)
{
  playTones(tonePin, notes_MarioStartup);
   d6d00:	4901      	ldr	r1, [pc, #4]	; (d6d08 <_Z11playStartupi+0x8>)
   d6d02:	f7ff bfc9 	b.w	d6c98 <_Z9playTonesiPKi>
   d6d06:	bf00      	nop
   d6d08:	000dd78c 	.word	0x000dd78c

000d6d0c <_Z12playGameOveri>:
}

void playGameOver(int tonePin)
{
  playTones(tonePin, notes_MarioGameOver);
   d6d0c:	4901      	ldr	r1, [pc, #4]	; (d6d14 <_Z12playGameOveri+0x8>)
   d6d0e:	f7ff bfc3 	b.w	d6c98 <_Z9playTonesiPKi>
   d6d12:	bf00      	nop
   d6d14:	000dd690 	.word	0x000dd690

000d6d18 <_Z11playBeegeesv>:
}

void playBeegees()
{
   d6d18:	b5f8      	push	{r3, r4, r5, r6, r7, lr}
  setLEDs(CHOICE_RED | CHOICE_GREEN | CHOICE_BLUE); // Turn on the other LEDs until you release button
   d6d1a:	2007      	movs	r0, #7
   d6d1c:	f7ff fda1 	bl	d6862 <_Z7setLEDsh>

  setLEDs(CHOICE_NONE); // Turn off LEDs
   d6d20:	2000      	movs	r0, #0
   d6d22:	f7ff fd9e 	bl	d6862 <_Z7setLEDsh>
  {
    // iterate over the notes of the melody:
    for (int thisNote = 0; thisNote < 32; thisNote++)
    {
      changeLED();
      tone(BUZZER_PIN, beegeesMelody[thisNote], noteDuration);
   d6d26:	4e14      	ldr	r6, [pc, #80]	; (d6d78 <_Z11playBeegeesv+0x60>)

void playBeegees()
{
  setLEDs(CHOICE_RED | CHOICE_GREEN | CHOICE_BLUE); // Turn on the other LEDs until you release button

  setLEDs(CHOICE_NONE); // Turn off LEDs
   d6d28:	2402      	movs	r4, #2
  {
    // iterate over the notes of the melody:
    for (int thisNote = 0; thisNote < 32; thisNote++)
    {
      changeLED();
      tone(BUZZER_PIN, beegeesMelody[thisNote], noteDuration);
   d6d2a:	4f14      	ldr	r7, [pc, #80]	; (d6d7c <_Z11playBeegeesv+0x64>)

void playBeegees()
{
  setLEDs(CHOICE_RED | CHOICE_GREEN | CHOICE_BLUE); // Turn on the other LEDs until you release button

  setLEDs(CHOICE_NONE); // Turn off LEDs
   d6d2c:	2500      	movs	r5, #0
  for (int i = 0; i < 2; i++)
  {
    // iterate over the notes of the melody:
    for (int thisNote = 0; thisNote < 32; thisNote++)
    {
      changeLED();
   d6d2e:	f7ff fdbf 	bl	d68b0 <_Z9changeLEDv>
      tone(BUZZER_PIN, beegeesMelody[thisNote], noteDuration);
   d6d32:	6832      	ldr	r2, [r6, #0]
   d6d34:	f857 1025 	ldr.w	r1, [r7, r5, lsl #2]
   d6d38:	2008      	movs	r0, #8
   d6d3a:	f003 fb7b 	bl	da434 <tone>
      // to distinguish the notes, set a minimum time between them.
      // the note's duration + 30% seems to work well:
      int pauseBetweenNotes = noteDuration * 1.30;
      delay(pauseBetweenNotes);
   d6d3e:	6830      	ldr	r0, [r6, #0]
   d6d40:	f004 fca2 	bl	db688 <__aeabi_i2d>
   d6d44:	a30a      	add	r3, pc, #40	; (adr r3, d6d70 <_Z11playBeegeesv+0x58>)
   d6d46:	e9d3 2300 	ldrd	r2, r3, [r3]
   d6d4a:	f004 fd03 	bl	db754 <__aeabi_dmul>
   d6d4e:	f004 ff9b 	bl	dbc88 <__aeabi_d2iz>
   d6d52:	f002 fabd 	bl	d92d0 <delay>
  setLEDs(CHOICE_NONE); // Turn off LEDs

  for (int i = 0; i < 2; i++)
  {
    // iterate over the notes of the melody:
    for (int thisNote = 0; thisNote < 32; thisNote++)
   d6d56:	3501      	adds	r5, #1
      // to distinguish the notes, set a minimum time between them.
      // the note's duration + 30% seems to work well:
      int pauseBetweenNotes = noteDuration * 1.30;
      delay(pauseBetweenNotes);
      // stop the tone playing:
      noTone(BUZZER_PIN);
   d6d58:	2008      	movs	r0, #8
   d6d5a:	f003 fb82 	bl	da462 <noTone>
  setLEDs(CHOICE_NONE); // Turn off LEDs

  for (int i = 0; i < 2; i++)
  {
    // iterate over the notes of the melody:
    for (int thisNote = 0; thisNote < 32; thisNote++)
   d6d5e:	2d20      	cmp	r5, #32
   d6d60:	d1e5      	bne.n	d6d2e <_Z11playBeegeesv+0x16>
{
  setLEDs(CHOICE_RED | CHOICE_GREEN | CHOICE_BLUE); // Turn on the other LEDs until you release button

  setLEDs(CHOICE_NONE); // Turn off LEDs

  for (int i = 0; i < 2; i++)
   d6d62:	3c01      	subs	r4, #1
   d6d64:	d1e1      	bne.n	d6d2a <_Z11playBeegeesv+0x12>
      // stop the tone playing:
      noTone(BUZZER_PIN);
    }
  }

  setLEDs(CHOICE_NONE);
   d6d66:	4620      	mov	r0, r4
}
   d6d68:	e8bd 40f8 	ldmia.w	sp!, {r3, r4, r5, r6, r7, lr}
      // stop the tone playing:
      noTone(BUZZER_PIN);
    }
  }

  setLEDs(CHOICE_NONE);
   d6d6c:	f7ff bd79 	b.w	d6862 <_Z7setLEDsh>
   d6d70:	cccccccd 	.word	0xcccccccd
   d6d74:	3ff4cccc 	.word	0x3ff4cccc
   d6d78:	2003d86c 	.word	0x2003d86c
   d6d7c:	000dd70c 	.word	0x000dd70c

000d6d80 <_Z12setupDisplayv>:
    play();
  }
}

void setupDisplay()
{
   d6d80:	b51f      	push	{r0, r1, r2, r3, r4, lr}
  display.clearDisplay();
   d6d82:	4c11      	ldr	r4, [pc, #68]	; (d6dc8 <_Z12setupDisplayv+0x48>)
   d6d84:	4620      	mov	r0, r4
   d6d86:	f001 fc3b 	bl	d8600 <_ZN16Adafruit_SSD130612clearDisplayEv>
  display.display();
   d6d8a:	4620      	mov	r0, r4
   d6d8c:	f001 fbc2 	bl	d8514 <_ZN16Adafruit_SSD13067displayEv>
  display.setCursor(0, 0);
   d6d90:	2200      	movs	r2, #0
   d6d92:	4611      	mov	r1, r2
   d6d94:	4620      	mov	r0, r4
   d6d96:	f001 f800 	bl	d7d9a <_ZN12Adafruit_GFX9setCursorEss>
  display.drawBitmap(0, 16, sparkLogo, 128, 48, 1);
   d6d9a:	2180      	movs	r1, #128	; 0x80
   d6d9c:	2230      	movs	r2, #48	; 0x30
   d6d9e:	2301      	movs	r3, #1
   d6da0:	e88d 000e 	stmia.w	sp, {r1, r2, r3}
   d6da4:	4620      	mov	r0, r4
   d6da6:	4b09      	ldr	r3, [pc, #36]	; (d6dcc <_Z12setupDisplayv+0x4c>)
   d6da8:	2210      	movs	r2, #16
   d6daa:	2100      	movs	r1, #0
   d6dac:	f000 fee8 	bl	d7b80 <_ZN12Adafruit_GFX10drawBitmapEssPKhsst>
  display.display();
   d6db0:	4620      	mov	r0, r4
   d6db2:	f001 fbaf 	bl	d8514 <_ZN16Adafruit_SSD13067displayEv>
  display.startscrollleft(0x00, 0x0F);
   d6db6:	220f      	movs	r2, #15
   d6db8:	2100      	movs	r1, #0
   d6dba:	4620      	mov	r0, r4
}
   d6dbc:	b004      	add	sp, #16
   d6dbe:	e8bd 4010 	ldmia.w	sp!, {r4, lr}
  display.clearDisplay();
  display.display();
  display.setCursor(0, 0);
  display.drawBitmap(0, 16, sparkLogo, 128, 48, 1);
  display.display();
  display.startscrollleft(0x00, 0x0F);
   d6dc2:	f001 bb24 	b.w	d840e <_ZN16Adafruit_SSD130615startscrollleftEhh>
   d6dc6:	bf00      	nop
   d6dc8:	2003e1ec 	.word	0x2003e1ec
   d6dcc:	000dd7e8 	.word	0x000dd7e8

000d6dd0 <_Z4playv>:
}

void play()
{
   d6dd0:	b5f8      	push	{r3, r4, r5, r6, r7, lr}
  int notelength;
  if (a == 1 || a == 2)
   d6dd2:	4d4f      	ldr	r5, [pc, #316]	; (d6f10 <_Z4playv+0x140>)
   d6dd4:	682b      	ldr	r3, [r5, #0]
   d6dd6:	1e5a      	subs	r2, r3, #1
   d6dd8:	2a01      	cmp	r2, #1
   d6dda:	d81d      	bhi.n	d6e18 <_Z4playv+0x48>
  { // Intro
    // intro
    notelength = beatlength * song1_intro_rhythmn[b];
   d6ddc:	4e4d      	ldr	r6, [pc, #308]	; (d6f14 <_Z4playv+0x144>)
   d6dde:	494e      	ldr	r1, [pc, #312]	; (d6f18 <_Z4playv+0x148>)
   d6de0:	6833      	ldr	r3, [r6, #0]
    if (song1_intro_melody[b] > 0)
   d6de2:	4f4e      	ldr	r7, [pc, #312]	; (d6f1c <_Z4playv+0x14c>)
{
  int notelength;
  if (a == 1 || a == 2)
  { // Intro
    // intro
    notelength = beatlength * song1_intro_rhythmn[b];
   d6de4:	4a4e      	ldr	r2, [pc, #312]	; (d6f20 <_Z4playv+0x150>)
   d6de6:	f851 4023 	ldr.w	r4, [r1, r3, lsl #2]
    if (song1_intro_melody[b] > 0)
   d6dea:	f857 3023 	ldr.w	r3, [r7, r3, lsl #2]
{
  int notelength;
  if (a == 1 || a == 2)
  { // Intro
    // intro
    notelength = beatlength * song1_intro_rhythmn[b];
   d6dee:	6812      	ldr	r2, [r2, #0]
    if (song1_intro_melody[b] > 0)
   d6df0:	2b00      	cmp	r3, #0
{
  int notelength;
  if (a == 1 || a == 2)
  { // Intro
    // intro
    notelength = beatlength * song1_intro_rhythmn[b];
   d6df2:	fb04 f402 	mul.w	r4, r4, r2
    if (song1_intro_melody[b] > 0)
   d6df6:	dd0a      	ble.n	d6e0e <_Z4playv+0x3e>
    { // if not a rest, play note
      analogWrite(RED_LED, 255);
   d6df8:	21ff      	movs	r1, #255	; 0xff
   d6dfa:	2010      	movs	r0, #16
   d6dfc:	f004 f902 	bl	db004 <_Z11analogWritetm>
      tone(BUZZER_PIN, song1_intro_melody[b], notelength);
   d6e00:	6833      	ldr	r3, [r6, #0]
   d6e02:	4622      	mov	r2, r4
   d6e04:	f857 1023 	ldr.w	r1, [r7, r3, lsl #2]
   d6e08:	2008      	movs	r0, #8
   d6e0a:	f003 fb13 	bl	da434 <tone>
    }
    b++;
   d6e0e:	6833      	ldr	r3, [r6, #0]
   d6e10:	3301      	adds	r3, #1
   d6e12:	6033      	str	r3, [r6, #0]
    if (b >= sizeof(song1_intro_melody) / sizeof(int))
   d6e14:	2b0c      	cmp	r3, #12
   d6e16:	e04a      	b.n	d6eae <_Z4playv+0xde>
      a++;
      b = 0;
      c = 0;
    }
  }
  else if (a == 3 || a == 5)
   d6e18:	2b03      	cmp	r3, #3
   d6e1a:	d001      	beq.n	d6e20 <_Z4playv+0x50>
   d6e1c:	2b05      	cmp	r3, #5
   d6e1e:	d121      	bne.n	d6e64 <_Z4playv+0x94>
  { // Verse 1
    // verse
    notelength = beatlength * 2 * song1_verse1_rhythmn[b];
   d6e20:	4b3f      	ldr	r3, [pc, #252]	; (d6f20 <_Z4playv+0x150>)
   d6e22:	4e3c      	ldr	r6, [pc, #240]	; (d6f14 <_Z4playv+0x144>)
   d6e24:	681c      	ldr	r4, [r3, #0]
   d6e26:	6832      	ldr	r2, [r6, #0]
   d6e28:	493e      	ldr	r1, [pc, #248]	; (d6f24 <_Z4playv+0x154>)
    if (song1_verse1_melody[b] > 0)
   d6e2a:	4f3f      	ldr	r7, [pc, #252]	; (d6f28 <_Z4playv+0x158>)
    }
  }
  else if (a == 3 || a == 5)
  { // Verse 1
    // verse
    notelength = beatlength * 2 * song1_verse1_rhythmn[b];
   d6e2c:	0063      	lsls	r3, r4, #1
   d6e2e:	f851 4022 	ldr.w	r4, [r1, r2, lsl #2]
   d6e32:	435c      	muls	r4, r3
    if (song1_verse1_melody[b] > 0)
   d6e34:	f857 3022 	ldr.w	r3, [r7, r2, lsl #2]
   d6e38:	2b00      	cmp	r3, #0
   d6e3a:	dd0e      	ble.n	d6e5a <_Z4playv+0x8a>
    {
      analogWrite(BLUE_LED, 255);
   d6e3c:	21ff      	movs	r1, #255	; 0xff
   d6e3e:	2012      	movs	r0, #18
   d6e40:	f004 f8e0 	bl	db004 <_Z11analogWritetm>
      tone(BUZZER_PIN, song1_verse1_melody[b], notelength);
   d6e44:	6833      	ldr	r3, [r6, #0]
   d6e46:	4622      	mov	r2, r4
   d6e48:	f857 1023 	ldr.w	r1, [r7, r3, lsl #2]
   d6e4c:	2008      	movs	r0, #8
   d6e4e:	f003 faf1 	bl	da434 <tone>
      c++;
   d6e52:	4a36      	ldr	r2, [pc, #216]	; (d6f2c <_Z4playv+0x15c>)
   d6e54:	6813      	ldr	r3, [r2, #0]
   d6e56:	3301      	adds	r3, #1
   d6e58:	6013      	str	r3, [r2, #0]
    }
    b++;
   d6e5a:	6833      	ldr	r3, [r6, #0]
   d6e5c:	3301      	adds	r3, #1
   d6e5e:	6033      	str	r3, [r6, #0]
    if (b >= sizeof(song1_verse1_melody) / sizeof(int))
   d6e60:	2b3e      	cmp	r3, #62	; 0x3e
   d6e62:	e024      	b.n	d6eae <_Z4playv+0xde>
      a++;
      b = 0;
      c = 0;
    }
  }
  else if (a == 4 || a == 6)
   d6e64:	f023 0302 	bic.w	r3, r3, #2
   d6e68:	2b04      	cmp	r3, #4
   d6e6a:	d129      	bne.n	d6ec0 <_Z4playv+0xf0>
  { //chorus
    // chorus
    notelength = beatlength * song1_chorus_rhythmn[b];
   d6e6c:	4e29      	ldr	r6, [pc, #164]	; (d6f14 <_Z4playv+0x144>)
   d6e6e:	4930      	ldr	r1, [pc, #192]	; (d6f30 <_Z4playv+0x160>)
   d6e70:	6833      	ldr	r3, [r6, #0]
    if (song1_chorus_melody[b] > 0)
   d6e72:	4f30      	ldr	r7, [pc, #192]	; (d6f34 <_Z4playv+0x164>)
    }
  }
  else if (a == 4 || a == 6)
  { //chorus
    // chorus
    notelength = beatlength * song1_chorus_rhythmn[b];
   d6e74:	4a2a      	ldr	r2, [pc, #168]	; (d6f20 <_Z4playv+0x150>)
   d6e76:	f851 4023 	ldr.w	r4, [r1, r3, lsl #2]
    if (song1_chorus_melody[b] > 0)
   d6e7a:	f857 3023 	ldr.w	r3, [r7, r3, lsl #2]
    }
  }
  else if (a == 4 || a == 6)
  { //chorus
    // chorus
    notelength = beatlength * song1_chorus_rhythmn[b];
   d6e7e:	6812      	ldr	r2, [r2, #0]
    if (song1_chorus_melody[b] > 0)
   d6e80:	2b00      	cmp	r3, #0
    }
  }
  else if (a == 4 || a == 6)
  { //chorus
    // chorus
    notelength = beatlength * song1_chorus_rhythmn[b];
   d6e82:	fb04 f402 	mul.w	r4, r4, r2
    if (song1_chorus_melody[b] > 0)
   d6e86:	dd0e      	ble.n	d6ea6 <_Z4playv+0xd6>
    {
      analogWrite(GREEN_LED, 255);
   d6e88:	21ff      	movs	r1, #255	; 0xff
   d6e8a:	2011      	movs	r0, #17
   d6e8c:	f004 f8ba 	bl	db004 <_Z11analogWritetm>
      tone(BUZZER_PIN, song1_chorus_melody[b], notelength);
   d6e90:	6833      	ldr	r3, [r6, #0]
   d6e92:	4622      	mov	r2, r4
   d6e94:	f857 1023 	ldr.w	r1, [r7, r3, lsl #2]
   d6e98:	2008      	movs	r0, #8
   d6e9a:	f003 facb 	bl	da434 <tone>
      c++;
   d6e9e:	4a23      	ldr	r2, [pc, #140]	; (d6f2c <_Z4playv+0x15c>)
   d6ea0:	6813      	ldr	r3, [r2, #0]
   d6ea2:	3301      	adds	r3, #1
   d6ea4:	6013      	str	r3, [r2, #0]
    }
    b++;
   d6ea6:	6833      	ldr	r3, [r6, #0]
   d6ea8:	3301      	adds	r3, #1
   d6eaa:	6033      	str	r3, [r6, #0]
    if (b >= sizeof(song1_chorus_melody) / sizeof(int))
   d6eac:	2b3a      	cmp	r3, #58	; 0x3a
   d6eae:	d907      	bls.n	d6ec0 <_Z4playv+0xf0>
    {
      a++;
   d6eb0:	682b      	ldr	r3, [r5, #0]
      b = 0;
   d6eb2:	4a18      	ldr	r2, [pc, #96]	; (d6f14 <_Z4playv+0x144>)
      c++;
    }
    b++;
    if (b >= sizeof(song1_chorus_melody) / sizeof(int))
    {
      a++;
   d6eb4:	3301      	adds	r3, #1
   d6eb6:	602b      	str	r3, [r5, #0]
      b = 0;
   d6eb8:	2300      	movs	r3, #0
   d6eba:	6013      	str	r3, [r2, #0]
      c = 0;
   d6ebc:	4a1b      	ldr	r2, [pc, #108]	; (d6f2c <_Z4playv+0x15c>)
   d6ebe:	6013      	str	r3, [r2, #0]
    }
  }
  delay(notelength); // necessary because BUZZER_PIN is on independent timer
   d6ec0:	4620      	mov	r0, r4
   d6ec2:	f002 fa05 	bl	d92d0 <delay>
  noTone(BUZZER_PIN);
   d6ec6:	2008      	movs	r0, #8
   d6ec8:	f003 facb 	bl	da462 <noTone>
  analogWrite(RED_LED, 0);
   d6ecc:	2100      	movs	r1, #0
   d6ece:	2010      	movs	r0, #16
   d6ed0:	f004 f898 	bl	db004 <_Z11analogWritetm>
  analogWrite(BLUE_LED, 0);
   d6ed4:	2100      	movs	r1, #0
   d6ed6:	2012      	movs	r0, #18
   d6ed8:	f004 f894 	bl	db004 <_Z11analogWritetm>
  analogWrite(GREEN_LED, 0);
   d6edc:	2100      	movs	r1, #0
   d6ede:	2011      	movs	r0, #17
   d6ee0:	f004 f890 	bl	db004 <_Z11analogWritetm>
  delay(notelength * beatseparationconstant); // create separation between notes
   d6ee4:	4b14      	ldr	r3, [pc, #80]	; (d6f38 <_Z4playv+0x168>)
   d6ee6:	ee07 4a90 	vmov	s15, r4
   d6eea:	ed93 7a00 	vldr	s14, [r3]
   d6eee:	eef8 7ae7 	vcvt.f32.s32	s15, s15
   d6ef2:	ee67 7a87 	vmul.f32	s15, s15, s14
   d6ef6:	eefc 7ae7 	vcvt.u32.f32	s15, s15
   d6efa:	ee17 0a90 	vmov	r0, s15
   d6efe:	f002 f9e7 	bl	d92d0 <delay>
  if (a == 7)
   d6f02:	682b      	ldr	r3, [r5, #0]
   d6f04:	2b07      	cmp	r3, #7
  { // loop back around to beginning of song
    a = 1;
   d6f06:	bf02      	ittt	eq
   d6f08:	4b01      	ldreq	r3, [pc, #4]	; (d6f10 <_Z4playv+0x140>)
   d6f0a:	2201      	moveq	r2, #1
   d6f0c:	601a      	streq	r2, [r3, #0]
   d6f0e:	bdf8      	pop	{r3, r4, r5, r6, r7, pc}
   d6f10:	2003db58 	.word	0x2003db58
   d6f14:	2003e314 	.word	0x2003e314
   d6f18:	2003db94 	.word	0x2003db94
   d6f1c:	2003db5c 	.word	0x2003db5c
   d6f20:	2003db90 	.word	0x2003db90
   d6f24:	2003da5c 	.word	0x2003da5c
   d6f28:	2003d960 	.word	0x2003d960
   d6f2c:	2003e318 	.word	0x2003e318
   d6f30:	2003d870 	.word	0x2003d870
   d6f34:	2003dbc8 	.word	0x2003dbc8
   d6f38:	2003d95c 	.word	0x2003d95c

000d6f3c <_Z8playRollv>:

void play();
void setupDisplay();

void playRoll()
{
   d6f3c:	b538      	push	{r3, r4, r5, lr}
  appmode = 1;
   d6f3e:	4c08      	ldr	r4, [pc, #32]	; (d6f60 <_Z8playRollv+0x24>)
   d6f40:	2301      	movs	r3, #1
   d6f42:	7023      	strb	r3, [r4, #0]
  btnid = 0;
   d6f44:	4b07      	ldr	r3, [pc, #28]	; (d6f64 <_Z8playRollv+0x28>)
   d6f46:	2500      	movs	r5, #0
   d6f48:	701d      	strb	r5, [r3, #0]

  setupDisplay();
   d6f4a:	f7ff ff19 	bl	d6d80 <_Z12setupDisplayv>
  toggleAllButtons(LOW);
   d6f4e:	4628      	mov	r0, r5
   d6f50:	f7ff fc2c 	bl	d67ac <_Z16toggleAllButtonsi>

  // play next step in song
  while (appmode)
   d6f54:	7823      	ldrb	r3, [r4, #0]
   d6f56:	b113      	cbz	r3, d6f5e <_Z8playRollv+0x22>
  {
    play();
   d6f58:	f7ff ff3a 	bl	d6dd0 <_Z4playv>

  setupDisplay();
  toggleAllButtons(LOW);

  // play next step in song
  while (appmode)
   d6f5c:	e7fa      	b.n	d6f54 <_Z8playRollv+0x18>
   d6f5e:	bd38      	pop	{r3, r4, r5, pc}
   d6f60:	2003e21a 	.word	0x2003e21a
   d6f64:	2003e22c 	.word	0x2003e22c

000d6f68 <_Z18getTempAndHumidityv>:
extern bool displayingTemp;
extern bool displayingBattery;

// Get temp and humidity from the sensors
void getTempAndHumidity()
{
   d6f68:	e92d 43f8 	stmdb	sp!, {r3, r4, r5, r6, r7, r8, r9, lr}
  int prevTemp = currentTemp;
   d6f6c:	4c40      	ldr	r4, [pc, #256]	; (d7070 <_Z18getTempAndHumidityv+0x108>)
  int prevHumidity = currentHumidity;
   d6f6e:	4d41      	ldr	r5, [pc, #260]	; (d7074 <_Z18getTempAndHumidityv+0x10c>)

  currentTemp = round((envSensor.readTemperature() * 1.8 + 32.00) * 10) / 10;
   d6f70:	4841      	ldr	r0, [pc, #260]	; (d7078 <_Z18getTempAndHumidityv+0x110>)
extern bool displayingBattery;

// Get temp and humidity from the sensors
void getTempAndHumidity()
{
  int prevTemp = currentTemp;
   d6f72:	f8d4 9000 	ldr.w	r9, [r4]
  int prevHumidity = currentHumidity;
   d6f76:	f8d5 8000 	ldr.w	r8, [r5]
extern bool displayingTemp;
extern bool displayingBattery;

// Get temp and humidity from the sensors
void getTempAndHumidity()
{
   d6f7a:	ed2d 8b02 	vpush	{d8}
  int prevTemp = currentTemp;
  int prevHumidity = currentHumidity;

  currentTemp = round((envSensor.readTemperature() * 1.8 + 32.00) * 10) / 10;
   d6f7e:	f001 fb97 	bl	d86b0 <_ZN15Adafruit_Si702115readTemperatureEv>
   d6f82:	ee10 0a10 	vmov	r0, s0
   d6f86:	f004 fb91 	bl	db6ac <__aeabi_f2d>
   d6f8a:	a337      	add	r3, pc, #220	; (adr r3, d7068 <_Z18getTempAndHumidityv+0x100>)
   d6f8c:	e9d3 2300 	ldrd	r2, r3, [r3]
   d6f90:	f004 fbe0 	bl	db754 <__aeabi_dmul>
   d6f94:	2200      	movs	r2, #0
   d6f96:	4b39      	ldr	r3, [pc, #228]	; (d707c <_Z18getTempAndHumidityv+0x114>)
   d6f98:	f004 fa2a 	bl	db3f0 <__adddf3>
   d6f9c:	2200      	movs	r2, #0
   d6f9e:	4b38      	ldr	r3, [pc, #224]	; (d7080 <_Z18getTempAndHumidityv+0x118>)
   d6fa0:	f004 fbd8 	bl	db754 <__aeabi_dmul>
static inline
T constrain (T amt, U low, V high) { return ((amt)<(low)?(low):((amt)>(high)?(high):(amt))); }

template <typename T>
static inline
T round (T x) { return ((x)>=0?(long)((x)+0.5):(long)((x)-0.5)); }
   d6fa4:	2200      	movs	r2, #0
   d6fa6:	2300      	movs	r3, #0
   d6fa8:	4606      	mov	r6, r0
   d6faa:	460f      	mov	r7, r1
   d6fac:	f004 fe58 	bl	dbc60 <__aeabi_dcmpge>
   d6fb0:	2200      	movs	r2, #0
   d6fb2:	4b34      	ldr	r3, [pc, #208]	; (d7084 <_Z18getTempAndHumidityv+0x11c>)
   d6fb4:	b120      	cbz	r0, d6fc0 <_Z18getTempAndHumidityv+0x58>
   d6fb6:	4630      	mov	r0, r6
   d6fb8:	4639      	mov	r1, r7
   d6fba:	f004 fa19 	bl	db3f0 <__adddf3>
   d6fbe:	e003      	b.n	d6fc8 <_Z18getTempAndHumidityv+0x60>
   d6fc0:	4630      	mov	r0, r6
   d6fc2:	4639      	mov	r1, r7
   d6fc4:	f004 fa12 	bl	db3ec <__aeabi_dsub>
   d6fc8:	f004 fe5e 	bl	dbc88 <__aeabi_d2iz>
   d6fcc:	f004 fb5c 	bl	db688 <__aeabi_i2d>
   d6fd0:	2200      	movs	r2, #0
   d6fd2:	4b2b      	ldr	r3, [pc, #172]	; (d7080 <_Z18getTempAndHumidityv+0x118>)
   d6fd4:	f004 fce8 	bl	db9a8 <__aeabi_ddiv>
   d6fd8:	f004 fe56 	bl	dbc88 <__aeabi_d2iz>
   d6fdc:	6020      	str	r0, [r4, #0]
  currentHumidity = round(envSensor.readHumidity() * 10) / 10;
   d6fde:	4826      	ldr	r0, [pc, #152]	; (d7078 <_Z18getTempAndHumidityv+0x110>)
   d6fe0:	f001 fb20 	bl	d8624 <_ZN15Adafruit_Si702112readHumidityEv>
   d6fe4:	eef2 7a04 	vmov.f32	s15, #36	; 0x41200000  10.0
   d6fe8:	ee20 0a27 	vmul.f32	s0, s0, s15
   d6fec:	eeb0 8a67 	vmov.f32	s16, s15
   d6ff0:	eeb5 0ac0 	vcmpe.f32	s0, #0.0
   d6ff4:	eef1 fa10 	vmrs	APSR_nzcv, fpscr
   d6ff8:	ee10 0a10 	vmov	r0, s0
   d6ffc:	db06      	blt.n	d700c <_Z18getTempAndHumidityv+0xa4>
   d6ffe:	f004 fb55 	bl	db6ac <__aeabi_f2d>
   d7002:	2200      	movs	r2, #0
   d7004:	4b1f      	ldr	r3, [pc, #124]	; (d7084 <_Z18getTempAndHumidityv+0x11c>)
   d7006:	f004 f9f3 	bl	db3f0 <__adddf3>
   d700a:	e005      	b.n	d7018 <_Z18getTempAndHumidityv+0xb0>
   d700c:	f004 fb4e 	bl	db6ac <__aeabi_f2d>
   d7010:	2200      	movs	r2, #0
   d7012:	4b1c      	ldr	r3, [pc, #112]	; (d7084 <_Z18getTempAndHumidityv+0x11c>)
   d7014:	f004 f9ea 	bl	db3ec <__aeabi_dsub>
   d7018:	f004 fe36 	bl	dbc88 <__aeabi_d2iz>
   d701c:	ee07 0a90 	vmov	s15, r0
   d7020:	eeb8 7ae7 	vcvt.f32.s32	s14, s15

  fireEnvSensorsEvent(currentTemp, currentHumidity);
   d7024:	6820      	ldr	r0, [r4, #0]
{
  int prevTemp = currentTemp;
  int prevHumidity = currentHumidity;

  currentTemp = round((envSensor.readTemperature() * 1.8 + 32.00) * 10) / 10;
  currentHumidity = round(envSensor.readHumidity() * 10) / 10;
   d7026:	eec7 7a08 	vdiv.f32	s15, s14, s16
   d702a:	eefd 7ae7 	vcvt.s32.f32	s15, s15
   d702e:	ee17 1a90 	vmov	r1, s15
   d7032:	edc5 7a00 	vstr	s15, [r5]

  fireEnvSensorsEvent(currentTemp, currentHumidity);
   d7036:	f7fe fd71 	bl	d5b1c <_Z19fireEnvSensorsEventii>

  // If either has changed and these values are being displayed, update the display
  if (displayingTemp && (prevTemp != currentTemp || prevHumidity != currentHumidity))
   d703a:	4b13      	ldr	r3, [pc, #76]	; (d7088 <_Z18getTempAndHumidityv+0x120>)
   d703c:	781b      	ldrb	r3, [r3, #0]
   d703e:	b16b      	cbz	r3, d705c <_Z18getTempAndHumidityv+0xf4>
   d7040:	4b0b      	ldr	r3, [pc, #44]	; (d7070 <_Z18getTempAndHumidityv+0x108>)
   d7042:	681b      	ldr	r3, [r3, #0]
   d7044:	4599      	cmp	r9, r3
   d7046:	d103      	bne.n	d7050 <_Z18getTempAndHumidityv+0xe8>
   d7048:	4b0a      	ldr	r3, [pc, #40]	; (d7074 <_Z18getTempAndHumidityv+0x10c>)
   d704a:	681b      	ldr	r3, [r3, #0]
   d704c:	4598      	cmp	r8, r3
   d704e:	d005      	beq.n	d705c <_Z18getTempAndHumidityv+0xf4>
  {
    showTempAndHumidity();
  }
}
   d7050:	ecbd 8b02 	vpop	{d8}
   d7054:	e8bd 43f8 	ldmia.w	sp!, {r3, r4, r5, r6, r7, r8, r9, lr}
  fireEnvSensorsEvent(currentTemp, currentHumidity);

  // If either has changed and these values are being displayed, update the display
  if (displayingTemp && (prevTemp != currentTemp || prevHumidity != currentHumidity))
  {
    showTempAndHumidity();
   d7058:	f7fe ba52 	b.w	d5500 <_Z19showTempAndHumidityv>
  }
}
   d705c:	ecbd 8b02 	vpop	{d8}
   d7060:	e8bd 83f8 	ldmia.w	sp!, {r3, r4, r5, r6, r7, r8, r9, pc}
   d7064:	f3af 8000 	nop.w
   d7068:	cccccccd 	.word	0xcccccccd
   d706c:	3ffccccc 	.word	0x3ffccccc
   d7070:	2003e1d0 	.word	0x2003e1d0
   d7074:	2003e154 	.word	0x2003e154
   d7078:	2003e158 	.word	0x2003e158
   d707c:	40400000 	.word	0x40400000
   d7080:	40240000 	.word	0x40240000
   d7084:	3fe00000 	.word	0x3fe00000
   d7088:	2003e268 	.word	0x2003e268

000d708c <_Z17getBatteryReadingv>:

void getBatteryReading()
{
   d708c:	b538      	push	{r3, r4, r5, lr}
  int prevBattery = currentBatteryReading;
   d708e:	4c15      	ldr	r4, [pc, #84]	; (d70e4 <_Z17getBatteryReadingv+0x58>)

  currentBatteryReading = round(analogRead(BATT) * 100 / 4095);
   d7090:	2018      	movs	r0, #24
  }
}

void getBatteryReading()
{
  int prevBattery = currentBatteryReading;
   d7092:	6825      	ldr	r5, [r4, #0]

  currentBatteryReading = round(analogRead(BATT) * 100 / 4095);
   d7094:	f003 ff9f 	bl	dafd6 <analogRead>
   d7098:	2364      	movs	r3, #100	; 0x64
   d709a:	4358      	muls	r0, r3
   d709c:	f640 73ff 	movw	r3, #4095	; 0xfff
   d70a0:	fb90 f0f3 	sdiv	r0, r0, r3
   d70a4:	2800      	cmp	r0, #0
   d70a6:	db06      	blt.n	d70b6 <_Z17getBatteryReadingv+0x2a>
   d70a8:	f004 faee 	bl	db688 <__aeabi_i2d>
   d70ac:	2200      	movs	r2, #0
   d70ae:	4b0e      	ldr	r3, [pc, #56]	; (d70e8 <_Z17getBatteryReadingv+0x5c>)
   d70b0:	f004 f99e 	bl	db3f0 <__adddf3>
   d70b4:	e005      	b.n	d70c2 <_Z17getBatteryReadingv+0x36>
   d70b6:	f004 fae7 	bl	db688 <__aeabi_i2d>
   d70ba:	2200      	movs	r2, #0
   d70bc:	4b0a      	ldr	r3, [pc, #40]	; (d70e8 <_Z17getBatteryReadingv+0x5c>)
   d70be:	f004 f995 	bl	db3ec <__aeabi_dsub>
   d70c2:	f004 fde1 	bl	dbc88 <__aeabi_d2iz>
   d70c6:	6020      	str	r0, [r4, #0]

  fireBatteryEvent(currentBatteryReading);
   d70c8:	f7fe fd6c 	bl	d5ba4 <_Z16fireBatteryEventi>

  if (displayingBattery && (prevBattery != currentBatteryReading))
   d70cc:	4b07      	ldr	r3, [pc, #28]	; (d70ec <_Z17getBatteryReadingv+0x60>)
   d70ce:	781b      	ldrb	r3, [r3, #0]
   d70d0:	b13b      	cbz	r3, d70e2 <_Z17getBatteryReadingv+0x56>
   d70d2:	4b04      	ldr	r3, [pc, #16]	; (d70e4 <_Z17getBatteryReadingv+0x58>)
   d70d4:	681b      	ldr	r3, [r3, #0]
   d70d6:	429d      	cmp	r5, r3
   d70d8:	d003      	beq.n	d70e2 <_Z17getBatteryReadingv+0x56>
  {
    showBattery();
  }
   d70da:	e8bd 4038 	ldmia.w	sp!, {r3, r4, r5, lr}

  fireBatteryEvent(currentBatteryReading);

  if (displayingBattery && (prevBattery != currentBatteryReading))
  {
    showBattery();
   d70de:	f7fe bb57 	b.w	d5790 <_Z11showBatteryv>
   d70e2:	bd38      	pop	{r3, r4, r5, pc}
   d70e4:	2003e164 	.word	0x2003e164
   d70e8:	3fe00000 	.word	0x3fe00000
   d70ec:	2003e272 	.word	0x2003e272

000d70f0 <_ZN9IPAddressD1Ev>:
    IPAddress(uint8_t first_octet, uint8_t second_octet, uint8_t third_octet, uint8_t fourth_octet);
    IPAddress(uint32_t address);
    IPAddress(const uint8_t* address);
    IPAddress(const HAL_IPAddress& address);

    virtual ~IPAddress() {}
   d70f0:	4770      	bx	lr
	...

000d70f4 <_ZN3UDPD1Ev>:



public:
    UDP();
    virtual ~UDP() { stop(); releaseBuffer(); }
   d70f4:	b510      	push	{r4, lr}
   d70f6:	4b06      	ldr	r3, [pc, #24]	; (d7110 <_ZN3UDPD1Ev+0x1c>)
   d70f8:	6003      	str	r3, [r0, #0]
   d70fa:	3364      	adds	r3, #100	; 0x64
   d70fc:	4604      	mov	r4, r0
   d70fe:	6103      	str	r3, [r0, #16]
   d7100:	f003 fa57 	bl	da5b2 <_ZN3UDP4stopEv>
   d7104:	4620      	mov	r0, r4
   d7106:	f003 fcb5 	bl	daa74 <_ZN3UDP13releaseBufferEv>
   d710a:	4620      	mov	r0, r4
   d710c:	bd10      	pop	{r4, pc}
   d710e:	bf00      	nop
   d7110:	000de274 	.word	0x000de274

000d7114 <_ZN9IPAddressD0Ev>:
   d7114:	b510      	push	{r4, lr}
   d7116:	4604      	mov	r4, r0
   d7118:	f7fc ffc1 	bl	d409e <_ZdlPv>
   d711c:	4620      	mov	r0, r4
   d711e:	bd10      	pop	{r4, pc}

000d7120 <_ZN3UDPD0Ev>:
   d7120:	b510      	push	{r4, lr}
   d7122:	4604      	mov	r4, r0
   d7124:	f7ff ffe6 	bl	d70f4 <_ZN3UDPD1Ev>
   d7128:	4620      	mov	r0, r4
   d712a:	f7fc ffb8 	bl	d409e <_ZdlPv>
   d712e:	4620      	mov	r0, r4
   d7130:	bd10      	pop	{r4, pc}
	...

000d7134 <_GLOBAL__sub_I__Z10openSocketv>:
    Serial.printlnf("Received %d bytes from %s#%u", s,
                    inet_inet_ntop(AF_INET6, ip.raw().ipv6, tmp, sizeof(tmp)), udp.remotePort());
  }

  return String("Hello");
   d7134:	b538      	push	{r3, r4, r5, lr}
#include "application.h"
#include "ifapi.h"
#include "random.h"

static UDP udp;
   d7136:	4c0c      	ldr	r4, [pc, #48]	; (d7168 <_GLOBAL__sub_I__Z10openSocketv+0x34>)
   d7138:	4d0c      	ldr	r5, [pc, #48]	; (d716c <_GLOBAL__sub_I__Z10openSocketv+0x38>)
   d713a:	4620      	mov	r0, r4
   d713c:	f003 fc7c 	bl	daa38 <_ZN3UDPC1Ev>
   d7140:	462a      	mov	r2, r5
   d7142:	490b      	ldr	r1, [pc, #44]	; (d7170 <_GLOBAL__sub_I__Z10openSocketv+0x3c>)
   d7144:	4620      	mov	r0, r4
   d7146:	f003 fffd 	bl	db144 <__aeabi_atexit>
namespace particle {

class Random {
public:
    Random() :
            Random(HAL_RNG_GetRandomNumber()) {
   d714a:	f001 fda9 	bl	d8ca0 <HAL_RNG_GetRandomNumber>
static Random rng;
static IPAddress mcastAddr;
   d714e:	4c09      	ldr	r4, [pc, #36]	; (d7174 <_GLOBAL__sub_I__Z10openSocketv+0x40>)
    }

    explicit Random(unsigned seed) :
            seed_(seed) {
   d7150:	4b09      	ldr	r3, [pc, #36]	; (d7178 <_GLOBAL__sub_I__Z10openSocketv+0x44>)
   d7152:	6018      	str	r0, [r3, #0]
   d7154:	4620      	mov	r0, r4
   d7156:	f002 fc75 	bl	d9a44 <_ZN9IPAddressC1Ev>
   d715a:	462a      	mov	r2, r5
   d715c:	4620      	mov	r0, r4
   d715e:	4907      	ldr	r1, [pc, #28]	; (d717c <_GLOBAL__sub_I__Z10openSocketv+0x48>)
    Serial.printlnf("Received %d bytes from %s#%u", s,
                    inet_inet_ntop(AF_INET6, ip.raw().ipv6, tmp, sizeof(tmp)), udp.remotePort());
  }

  return String("Hello");
   d7160:	e8bd 4038 	ldmia.w	sp!, {r3, r4, r5, lr}
#include "ifapi.h"
#include "random.h"

static UDP udp;
static Random rng;
static IPAddress mcastAddr;
   d7164:	f003 bfee 	b.w	db144 <__aeabi_atexit>
   d7168:	2003e338 	.word	0x2003e338
   d716c:	2003e12c 	.word	0x2003e12c
   d7170:	000d70f5 	.word	0x000d70f5
   d7174:	2003e31c 	.word	0x2003e31c
   d7178:	2003e334 	.word	0x2003e334
   d717c:	000d70f1 	.word	0x000d70f1

000d7180 <_ZN12Adafruit_GFX8drawLineEsssst>:
}

// Bresenham's algorithm - thx wikpedia
void Adafruit_GFX::drawLine(int16_t x0, int16_t y0,
			    int16_t x1, int16_t y1,
			    uint16_t color) {
   d7180:	e92d 4ff0 	stmdb	sp!, {r4, r5, r6, r7, r8, r9, sl, fp, lr}
   d7184:	b085      	sub	sp, #20
   d7186:	461e      	mov	r6, r3
   d7188:	f9bd 3038 	ldrsh.w	r3, [sp, #56]	; 0x38
   d718c:	f8bd a03c 	ldrh.w	sl, [sp, #60]	; 0x3c
   d7190:	4615      	mov	r5, r2
  int16_t steep = abs(y1 - y0) > abs(x1 - x0);
   d7192:	1a9a      	subs	r2, r3, r2
   d7194:	2a00      	cmp	r2, #0
   d7196:	bfb8      	it	lt
   d7198:	4252      	neglt	r2, r2
   d719a:	9200      	str	r2, [sp, #0]
   d719c:	1a72      	subs	r2, r6, r1
   d719e:	2a00      	cmp	r2, #0
   d71a0:	bfb8      	it	lt
   d71a2:	4252      	neglt	r2, r2
   d71a4:	9201      	str	r2, [sp, #4]
}

// Bresenham's algorithm - thx wikpedia
void Adafruit_GFX::drawLine(int16_t x0, int16_t y0,
			    int16_t x1, int16_t y1,
			    uint16_t color) {
   d71a6:	460c      	mov	r4, r1
  int16_t steep = abs(y1 - y0) > abs(x1 - x0);
  if (steep) {
   d71a8:	9a00      	ldr	r2, [sp, #0]
   d71aa:	9901      	ldr	r1, [sp, #4]
   d71ac:	428a      	cmp	r2, r1
}

// Bresenham's algorithm - thx wikpedia
void Adafruit_GFX::drawLine(int16_t x0, int16_t y0,
			    int16_t x1, int16_t y1,
			    uint16_t color) {
   d71ae:	4681      	mov	r9, r0
  int16_t steep = abs(y1 - y0) > abs(x1 - x0);
  if (steep) {
   d71b0:	dd05      	ble.n	d71be <_ZN12Adafruit_GFX8drawLineEsssst+0x3e>
   d71b2:	4632      	mov	r2, r6
    swap(x0, y0);
    swap(x1, y1);
   d71b4:	461e      	mov	r6, r3
   d71b6:	4613      	mov	r3, r2
// Bresenham's algorithm - thx wikpedia
void Adafruit_GFX::drawLine(int16_t x0, int16_t y0,
			    int16_t x1, int16_t y1,
			    uint16_t color) {
  int16_t steep = abs(y1 - y0) > abs(x1 - x0);
  if (steep) {
   d71b8:	4622      	mov	r2, r4
    swap(x0, y0);
   d71ba:	462c      	mov	r4, r5
   d71bc:	4615      	mov	r5, r2
    swap(x1, y1);
  }

  if (x0 > x1) {
   d71be:	42b4      	cmp	r4, r6
   d71c0:	dd05      	ble.n	d71ce <_ZN12Adafruit_GFX8drawLineEsssst+0x4e>
   d71c2:	462a      	mov	r2, r5
    swap(x0, x1);
    swap(y0, y1);
   d71c4:	461d      	mov	r5, r3
   d71c6:	4613      	mov	r3, r2
  if (steep) {
    swap(x0, y0);
    swap(x1, y1);
  }

  if (x0 > x1) {
   d71c8:	4622      	mov	r2, r4
   d71ca:	4634      	mov	r4, r6
   d71cc:	4616      	mov	r6, r2
    swap(y0, y1);
  }

  int16_t dx, dy;
  dx = x1 - x0;
  dy = abs(y1 - y0);
   d71ce:	1b5a      	subs	r2, r3, r5
   d71d0:	2a00      	cmp	r2, #0
   d71d2:	bfb8      	it	lt
   d71d4:	4252      	neglt	r2, r2
    swap(x0, x1);
    swap(y0, y1);
  }

  int16_t dx, dy;
  dx = x1 - x0;
   d71d6:	ebc4 0806 	rsb	r8, r4, r6
  int16_t ystep;

  if (y0 < y1) {
    ystep = 1;
  } else {
    ystep = -1;
   d71da:	429d      	cmp	r5, r3
   d71dc:	bfb4      	ite	lt
   d71de:	2301      	movlt	r3, #1
   d71e0:	f04f 33ff 	movge.w	r3, #4294967295	; 0xffffffff
    swap(x0, x1);
    swap(y0, y1);
  }

  int16_t dx, dy;
  dx = x1 - x0;
   d71e4:	fa1f f888 	uxth.w	r8, r8
  int16_t ystep;

  if (y0 < y1) {
    ystep = 1;
  } else {
    ystep = -1;
   d71e8:	9302      	str	r3, [sp, #8]
    swap(y0, y1);
  }

  int16_t dx, dy;
  dx = x1 - x0;
  dy = abs(y1 - y0);
   d71ea:	9203      	str	r2, [sp, #12]

  int16_t err = dx / 2;
   d71ec:	fa0f f788 	sxth.w	r7, r8
   d71f0:	2202      	movs	r2, #2
   d71f2:	fb97 f7f2 	sdiv	r7, r7, r2
    ystep = 1;
  } else {
    ystep = -1;
  }

  for (; x0<=x1; x0++) {
   d71f6:	42b4      	cmp	r4, r6
   d71f8:	dc1f      	bgt.n	d723a <_ZN12Adafruit_GFX8drawLineEsssst+0xba>
    if (steep) {
   d71fa:	9a01      	ldr	r2, [sp, #4]
   d71fc:	9b00      	ldr	r3, [sp, #0]
   d71fe:	4293      	cmp	r3, r2
   d7200:	f8d9 3000 	ldr.w	r3, [r9]
      drawPixel(y0, x0, color);
   d7204:	bfc8      	it	gt
   d7206:	4622      	movgt	r2, r4
   d7208:	f8d3 b010 	ldr.w	fp, [r3, #16]
   d720c:	bfc8      	it	gt
   d720e:	4629      	movgt	r1, r5
   d7210:	4653      	mov	r3, sl
    } else {
      drawPixel(x0, y0, color);
   d7212:	bfdc      	itt	le
   d7214:	462a      	movle	r2, r5
   d7216:	4621      	movle	r1, r4
   d7218:	4648      	mov	r0, r9
   d721a:	47d8      	blx	fp
    }
    err -= dy;
   d721c:	9b03      	ldr	r3, [sp, #12]
   d721e:	1aff      	subs	r7, r7, r3
   d7220:	b2bb      	uxth	r3, r7
   d7222:	b21f      	sxth	r7, r3
    if (err < 0) {
   d7224:	2f00      	cmp	r7, #0
   d7226:	da05      	bge.n	d7234 <_ZN12Adafruit_GFX8drawLineEsssst+0xb4>
      y0 += ystep;
   d7228:	9a02      	ldr	r2, [sp, #8]
      err += dx;
   d722a:	eb08 0703 	add.w	r7, r8, r3
    } else {
      drawPixel(x0, y0, color);
    }
    err -= dy;
    if (err < 0) {
      y0 += ystep;
   d722e:	4415      	add	r5, r2
   d7230:	b22d      	sxth	r5, r5
      err += dx;
   d7232:	b23f      	sxth	r7, r7
   d7234:	3401      	adds	r4, #1
   d7236:	b224      	sxth	r4, r4
    ystep = 1;
  } else {
    ystep = -1;
  }

  for (; x0<=x1; x0++) {
   d7238:	e7dd      	b.n	d71f6 <_ZN12Adafruit_GFX8drawLineEsssst+0x76>
    if (err < 0) {
      y0 += ystep;
      err += dx;
    }
  }
}
   d723a:	b005      	add	sp, #20
   d723c:	e8bd 8ff0 	ldmia.w	sp!, {r4, r5, r6, r7, r8, r9, sl, fp, pc}

000d7240 <_ZN12Adafruit_GFX8drawRectEsssst>:

// Draw a rectangle
void Adafruit_GFX::drawRect(int16_t x, int16_t y,
			    int16_t w, int16_t h,
			    uint16_t color) {
   d7240:	e92d 47f3 	stmdb	sp!, {r0, r1, r4, r5, r6, r7, r8, r9, sl, lr}
   d7244:	f8bd 602c 	ldrh.w	r6, [sp, #44]	; 0x2c
  drawFastHLine(x, y, w, color);
   d7248:	6807      	ldr	r7, [r0, #0]
}

// Draw a rectangle
void Adafruit_GFX::drawRect(int16_t x, int16_t y,
			    int16_t w, int16_t h,
			    uint16_t color) {
   d724a:	f9bd a028 	ldrsh.w	sl, [sp, #40]	; 0x28
  drawFastHLine(x, y, w, color);
   d724e:	9600      	str	r6, [sp, #0]
}

// Draw a rectangle
void Adafruit_GFX::drawRect(int16_t x, int16_t y,
			    int16_t w, int16_t h,
			    uint16_t color) {
   d7250:	4604      	mov	r4, r0
  drawFastHLine(x, y, w, color);
   d7252:	69ff      	ldr	r7, [r7, #28]
}

// Draw a rectangle
void Adafruit_GFX::drawRect(int16_t x, int16_t y,
			    int16_t w, int16_t h,
			    uint16_t color) {
   d7254:	4691      	mov	r9, r2
   d7256:	460d      	mov	r5, r1
   d7258:	4698      	mov	r8, r3
  drawFastHLine(x, y, w, color);
   d725a:	47b8      	blx	r7
  drawFastHLine(x, y+h-1, w, color);
   d725c:	6823      	ldr	r3, [r4, #0]
   d725e:	9600      	str	r6, [sp, #0]
   d7260:	f10a 32ff 	add.w	r2, sl, #4294967295	; 0xffffffff
   d7264:	444a      	add	r2, r9
   d7266:	69df      	ldr	r7, [r3, #28]
   d7268:	4629      	mov	r1, r5
   d726a:	4643      	mov	r3, r8
   d726c:	4620      	mov	r0, r4
   d726e:	b212      	sxth	r2, r2
   d7270:	47b8      	blx	r7
  drawFastVLine(x, y, h, color);
   d7272:	6823      	ldr	r3, [r4, #0]
   d7274:	9600      	str	r6, [sp, #0]
   d7276:	699f      	ldr	r7, [r3, #24]
   d7278:	464a      	mov	r2, r9
   d727a:	4653      	mov	r3, sl
   d727c:	4629      	mov	r1, r5
   d727e:	4620      	mov	r0, r4
   d7280:	47b8      	blx	r7
  drawFastVLine(x+w-1, y, h, color);
   d7282:	6823      	ldr	r3, [r4, #0]
   d7284:	960a      	str	r6, [sp, #40]	; 0x28
   d7286:	f108 31ff 	add.w	r1, r8, #4294967295	; 0xffffffff
   d728a:	4429      	add	r1, r5
   d728c:	699d      	ldr	r5, [r3, #24]
   d728e:	464a      	mov	r2, r9
   d7290:	4653      	mov	r3, sl
   d7292:	b209      	sxth	r1, r1
   d7294:	4620      	mov	r0, r4
   d7296:	46ac      	mov	ip, r5
}
   d7298:	b002      	add	sp, #8
   d729a:	e8bd 47f0 	ldmia.w	sp!, {r4, r5, r6, r7, r8, r9, sl, lr}
			    int16_t w, int16_t h,
			    uint16_t color) {
  drawFastHLine(x, y, w, color);
  drawFastHLine(x, y+h-1, w, color);
  drawFastVLine(x, y, h, color);
  drawFastVLine(x+w-1, y, h, color);
   d729e:	4760      	bx	ip

000d72a0 <_ZN12Adafruit_GFX13drawFastVLineEssst>:
}

void Adafruit_GFX::drawFastVLine(int16_t x, int16_t y,
				 int16_t h, uint16_t color) {
   d72a0:	b537      	push	{r0, r1, r2, r4, r5, lr}
  // Update in subclasses if desired!
  drawLine(x, y, x, y+h-1, color);
   d72a2:	3b01      	subs	r3, #1
   d72a4:	4413      	add	r3, r2
   d72a6:	6804      	ldr	r4, [r0, #0]
   d72a8:	f8bd 5018 	ldrh.w	r5, [sp, #24]
   d72ac:	9501      	str	r5, [sp, #4]
   d72ae:	b21b      	sxth	r3, r3
   d72b0:	9300      	str	r3, [sp, #0]
   d72b2:	6964      	ldr	r4, [r4, #20]
   d72b4:	460b      	mov	r3, r1
   d72b6:	47a0      	blx	r4
}
   d72b8:	b003      	add	sp, #12
   d72ba:	bd30      	pop	{r4, r5, pc}

000d72bc <_ZN12Adafruit_GFX13drawFastHLineEssst>:

void Adafruit_GFX::drawFastHLine(int16_t x, int16_t y,
				 int16_t w, uint16_t color) {
   d72bc:	b537      	push	{r0, r1, r2, r4, r5, lr}
  // Update in subclasses if desired!
  drawLine(x, y, x+w-1, y, color);
   d72be:	f8bd 5018 	ldrh.w	r5, [sp, #24]
   d72c2:	6804      	ldr	r4, [r0, #0]
   d72c4:	e88d 0024 	stmia.w	sp, {r2, r5}
   d72c8:	3b01      	subs	r3, #1
   d72ca:	440b      	add	r3, r1
   d72cc:	6964      	ldr	r4, [r4, #20]
   d72ce:	b21b      	sxth	r3, r3
   d72d0:	47a0      	blx	r4
}
   d72d2:	b003      	add	sp, #12
   d72d4:	bd30      	pop	{r4, r5, pc}

000d72d6 <_ZN12Adafruit_GFX8fillRectEsssst>:

void Adafruit_GFX::fillRect(int16_t x, int16_t y, int16_t w, int16_t h,
			    uint16_t color) {
   d72d6:	e92d 47f3 	stmdb	sp!, {r0, r1, r4, r5, r6, r7, r8, r9, sl, lr}
   d72da:	f9bd 8028 	ldrsh.w	r8, [sp, #40]	; 0x28
   d72de:	f8bd 902c 	ldrh.w	r9, [sp, #44]	; 0x2c
   d72e2:	4605      	mov	r5, r0
   d72e4:	4617      	mov	r7, r2
  // Update in subclasses if desired!
  for (int16_t i=x; i<x+w; i++) {
   d72e6:	460c      	mov	r4, r1
   d72e8:	eb01 0a03 	add.w	sl, r1, r3
   d72ec:	4554      	cmp	r4, sl
   d72ee:	da0b      	bge.n	d7308 <_ZN12Adafruit_GFX8fillRectEsssst+0x32>
    drawFastVLine(i, y, h, color);
   d72f0:	682b      	ldr	r3, [r5, #0]
   d72f2:	f8cd 9000 	str.w	r9, [sp]
   d72f6:	699e      	ldr	r6, [r3, #24]
   d72f8:	4621      	mov	r1, r4
   d72fa:	4643      	mov	r3, r8
   d72fc:	463a      	mov	r2, r7
   d72fe:	4628      	mov	r0, r5
   d7300:	3401      	adds	r4, #1
   d7302:	47b0      	blx	r6
   d7304:	b224      	sxth	r4, r4
}

void Adafruit_GFX::fillRect(int16_t x, int16_t y, int16_t w, int16_t h,
			    uint16_t color) {
  // Update in subclasses if desired!
  for (int16_t i=x; i<x+w; i++) {
   d7306:	e7f1      	b.n	d72ec <_ZN12Adafruit_GFX8fillRectEsssst+0x16>
    drawFastVLine(i, y, h, color);
  }
}
   d7308:	b002      	add	sp, #8
   d730a:	e8bd 87f0 	ldmia.w	sp!, {r4, r5, r6, r7, r8, r9, sl, pc}

000d730e <_ZN12Adafruit_GFX10fillScreenEt>:

void Adafruit_GFX::fillScreen(uint16_t color) {
   d730e:	b513      	push	{r0, r1, r4, lr}
  fillRect(0, 0, _width, _height, color);
   d7310:	f9b0 200e 	ldrsh.w	r2, [r0, #14]
   d7314:	6804      	ldr	r4, [r0, #0]
   d7316:	9101      	str	r1, [sp, #4]
   d7318:	9200      	str	r2, [sp, #0]
   d731a:	2200      	movs	r2, #0
   d731c:	f9b0 300c 	ldrsh.w	r3, [r0, #12]
   d7320:	6a64      	ldr	r4, [r4, #36]	; 0x24
   d7322:	4611      	mov	r1, r2
   d7324:	47a0      	blx	r4
}
   d7326:	b002      	add	sp, #8
   d7328:	bd10      	pop	{r4, pc}

000d732a <_ZN12Adafruit_GFX13invertDisplayEb>:
 
int16_t Adafruit_GFX::height(void) {
  return _height;
}

void Adafruit_GFX::invertDisplay(boolean i) {
   d732a:	4770      	bx	lr

000d732c <_ZN12Adafruit_GFXC1Ess>:
	0x00, 0x19, 0x1D, 0x17, 0x12,
	0x00, 0x3C, 0x3C, 0x3C, 0x3C,
	0x00, 0x00, 0x00, 0x00, 0x00
};

Adafruit_GFX::Adafruit_GFX(int16_t w, int16_t h):
   d732c:	b530      	push	{r4, r5, lr}
  WIDTH(w), HEIGHT(h)
   d732e:	8101      	strh	r1, [r0, #8]
  protected:
    void setWriteError(int err = 1) { write_error = err; }
    size_t printf_impl(bool newline, const char* format, ...);

  public:
    Print() : write_error(0) {}
   d7330:	2400      	movs	r4, #0
   d7332:	4d08      	ldr	r5, [pc, #32]	; (d7354 <_ZN12Adafruit_GFXC1Ess+0x28>)
   d7334:	8142      	strh	r2, [r0, #10]
{
  _width    = WIDTH;
   d7336:	8181      	strh	r1, [r0, #12]
  _height   = HEIGHT;
   d7338:	81c2      	strh	r2, [r0, #14]
  rotation  = 0;
  cursor_y  = cursor_x    = 0;
  textsize  = 1;
  textcolor = textbgcolor = 0xFFFF;
   d733a:	f64f 71ff 	movw	r1, #65535	; 0xffff
{
  _width    = WIDTH;
  _height   = HEIGHT;
  rotation  = 0;
  cursor_y  = cursor_x    = 0;
  textsize  = 1;
   d733e:	2201      	movs	r2, #1
   d7340:	6044      	str	r4, [r0, #4]
	0x00, 0x3C, 0x3C, 0x3C, 0x3C,
	0x00, 0x00, 0x00, 0x00, 0x00
};

Adafruit_GFX::Adafruit_GFX(int16_t w, int16_t h):
  WIDTH(w), HEIGHT(h)
   d7342:	6005      	str	r5, [r0, #0]
{
  _width    = WIDTH;
  _height   = HEIGHT;
  rotation  = 0;
   d7344:	7644      	strb	r4, [r0, #25]
  cursor_y  = cursor_x    = 0;
   d7346:	8204      	strh	r4, [r0, #16]
   d7348:	8244      	strh	r4, [r0, #18]
  textsize  = 1;
   d734a:	7602      	strb	r2, [r0, #24]
  textcolor = textbgcolor = 0xFFFF;
   d734c:	82c1      	strh	r1, [r0, #22]
   d734e:	8281      	strh	r1, [r0, #20]
  wrap      = true;
   d7350:	7682      	strb	r2, [r0, #26]
}
   d7352:	bd30      	pop	{r4, r5, pc}
   d7354:	000ddaf0 	.word	0x000ddaf0

000d7358 <_ZN12Adafruit_GFX10drawCircleEssst>:

// Draw a circle outline
void Adafruit_GFX::drawCircle(int16_t x0, int16_t y0, int16_t r,
    uint16_t color) {
   d7358:	e92d 4ff0 	stmdb	sp!, {r4, r5, r6, r7, r8, r9, sl, fp, lr}
   d735c:	b08b      	sub	sp, #44	; 0x2c
  int16_t ddF_x = 1;
  int16_t ddF_y = -2 * r;
  int16_t x = 0;
  int16_t y = r;

  drawPixel(x0  , y0+r, color);
   d735e:	fa1f fb82 	uxth.w	fp, r2
  wrap      = true;
}

// Draw a circle outline
void Adafruit_GFX::drawCircle(int16_t x0, int16_t y0, int16_t r,
    uint16_t color) {
   d7362:	9303      	str	r3, [sp, #12]
  int16_t f = 1 - r;
   d7364:	f8bd 600c 	ldrh.w	r6, [sp, #12]
  wrap      = true;
}

// Draw a circle outline
void Adafruit_GFX::drawCircle(int16_t x0, int16_t y0, int16_t r,
    uint16_t color) {
   d7368:	f8bd 5050 	ldrh.w	r5, [sp, #80]	; 0x50
  int16_t f = 1 - r;
   d736c:	f1c6 0301 	rsb	r3, r6, #1
   d7370:	b21b      	sxth	r3, r3
   d7372:	9302      	str	r3, [sp, #8]
  int16_t ddF_x = 1;
  int16_t ddF_y = -2 * r;
   d7374:	ebc6 33c6 	rsb	r3, r6, r6, lsl #15
   d7378:	005b      	lsls	r3, r3, #1
   d737a:	b21b      	sxth	r3, r3
   d737c:	9306      	str	r3, [sp, #24]
  int16_t x = 0;
  int16_t y = r;

  drawPixel(x0  , y0+r, color);
   d737e:	6803      	ldr	r3, [r0, #0]
  wrap      = true;
}

// Draw a circle outline
void Adafruit_GFX::drawCircle(int16_t x0, int16_t y0, int16_t r,
    uint16_t color) {
   d7380:	4604      	mov	r4, r0
   d7382:	4617      	mov	r7, r2
  int16_t ddF_x = 1;
  int16_t ddF_y = -2 * r;
  int16_t x = 0;
  int16_t y = r;

  drawPixel(x0  , y0+r, color);
   d7384:	eb06 020b 	add.w	r2, r6, fp
   d7388:	f8d3 9010 	ldr.w	r9, [r3, #16]
   d738c:	b212      	sxth	r2, r2
   d738e:	462b      	mov	r3, r5
  wrap      = true;
}

// Draw a circle outline
void Adafruit_GFX::drawCircle(int16_t x0, int16_t y0, int16_t r,
    uint16_t color) {
   d7390:	4688      	mov	r8, r1
  int16_t ddF_x = 1;
  int16_t ddF_y = -2 * r;
  int16_t x = 0;
  int16_t y = r;

  drawPixel(x0  , y0+r, color);
   d7392:	47c8      	blx	r9
  drawPixel(x0  , y0-r, color);
   d7394:	6823      	ldr	r3, [r4, #0]
   d7396:	ebc6 020b 	rsb	r2, r6, fp
   d739a:	4641      	mov	r1, r8
   d739c:	f8d3 9010 	ldr.w	r9, [r3, #16]
   d73a0:	b212      	sxth	r2, r2
   d73a2:	462b      	mov	r3, r5
   d73a4:	4620      	mov	r0, r4
   d73a6:	47c8      	blx	r9
  drawPixel(x0+r, y0  , color);
   d73a8:	fa1f f388 	uxth.w	r3, r8
   d73ac:	18f1      	adds	r1, r6, r3
   d73ae:	9301      	str	r3, [sp, #4]
   d73b0:	6823      	ldr	r3, [r4, #0]
   d73b2:	463a      	mov	r2, r7
   d73b4:	f8d3 8010 	ldr.w	r8, [r3, #16]
   d73b8:	b209      	sxth	r1, r1
   d73ba:	462b      	mov	r3, r5
   d73bc:	4620      	mov	r0, r4
   d73be:	47c0      	blx	r8
  drawPixel(x0-r, y0  , color);
   d73c0:	9b01      	ldr	r3, [sp, #4]
   d73c2:	1b99      	subs	r1, r3, r6
   d73c4:	6823      	ldr	r3, [r4, #0]
   d73c6:	463a      	mov	r2, r7
   d73c8:	691e      	ldr	r6, [r3, #16]
   d73ca:	b209      	sxth	r1, r1
   d73cc:	462b      	mov	r3, r5
   d73ce:	4620      	mov	r0, r4
   d73d0:	47b0      	blx	r6
   d73d2:	2300      	movs	r3, #0
   d73d4:	9305      	str	r3, [sp, #20]
   d73d6:	9b01      	ldr	r3, [sp, #4]
   d73d8:	3301      	adds	r3, #1
   d73da:	9307      	str	r3, [sp, #28]
   d73dc:	9b01      	ldr	r3, [sp, #4]
   d73de:	3b01      	subs	r3, #1
   d73e0:	9308      	str	r3, [sp, #32]
   d73e2:	f10b 0301 	add.w	r3, fp, #1
   d73e6:	9309      	str	r3, [sp, #36]	; 0x24

  while (x<y) {
   d73e8:	f9bd 3014 	ldrsh.w	r3, [sp, #20]
   d73ec:	9a03      	ldr	r2, [sp, #12]
   d73ee:	4293      	cmp	r3, r2
   d73f0:	f280 8084 	bge.w	d74fc <_ZN12Adafruit_GFX10drawCircleEssst+0x1a4>
    if (f >= 0) {
   d73f4:	9b02      	ldr	r3, [sp, #8]
   d73f6:	2b00      	cmp	r3, #0
   d73f8:	db0b      	blt.n	d7412 <_ZN12Adafruit_GFX10drawCircleEssst+0xba>
      y--;
   d73fa:	1e53      	subs	r3, r2, #1
   d73fc:	b21b      	sxth	r3, r3
   d73fe:	9303      	str	r3, [sp, #12]
      ddF_y += 2;
   d7400:	9b06      	ldr	r3, [sp, #24]
   d7402:	3302      	adds	r3, #2
   d7404:	b29b      	uxth	r3, r3
   d7406:	b21a      	sxth	r2, r3
   d7408:	9206      	str	r2, [sp, #24]
      f += ddF_y;
   d740a:	9a02      	ldr	r2, [sp, #8]
   d740c:	4413      	add	r3, r2
   d740e:	b21b      	sxth	r3, r3
   d7410:	9302      	str	r3, [sp, #8]
   d7412:	f8bd 7014 	ldrh.w	r7, [sp, #20]
    }
    x++;
    ddF_x += 2;
    f += ddF_x;
   d7416:	9b02      	ldr	r3, [sp, #8]
   d7418:	eb03 0347 	add.w	r3, r3, r7, lsl #1
   d741c:	3303      	adds	r3, #3
   d741e:	b21b      	sxth	r3, r3
   d7420:	9302      	str	r3, [sp, #8]
   d7422:	9b07      	ldr	r3, [sp, #28]
   d7424:	eb07 0a03 	add.w	sl, r7, r3
  
    drawPixel(x0 + x, y0 + y, color);
   d7428:	f8bd 300c 	ldrh.w	r3, [sp, #12]
   d742c:	9304      	str	r3, [sp, #16]
   d742e:	eb0b 0903 	add.w	r9, fp, r3
   d7432:	6823      	ldr	r3, [r4, #0]
   d7434:	fa0f fa8a 	sxth.w	sl, sl
   d7438:	fa0f f989 	sxth.w	r9, r9
   d743c:	f8d3 8010 	ldr.w	r8, [r3, #16]
   d7440:	464a      	mov	r2, r9
   d7442:	4651      	mov	r1, sl
   d7444:	462b      	mov	r3, r5
   d7446:	4620      	mov	r0, r4
   d7448:	47c0      	blx	r8
   d744a:	9b08      	ldr	r3, [sp, #32]
   d744c:	ebc7 0803 	rsb	r8, r7, r3
    drawPixel(x0 - x, y0 + y, color);
   d7450:	6823      	ldr	r3, [r4, #0]
   d7452:	691b      	ldr	r3, [r3, #16]
   d7454:	fa0f f888 	sxth.w	r8, r8
   d7458:	461e      	mov	r6, r3
   d745a:	464a      	mov	r2, r9
   d745c:	4641      	mov	r1, r8
   d745e:	462b      	mov	r3, r5
   d7460:	4620      	mov	r0, r4
   d7462:	47b0      	blx	r6
    drawPixel(x0 + x, y0 - y, color);
   d7464:	9b04      	ldr	r3, [sp, #16]
   d7466:	ebc3 090b 	rsb	r9, r3, fp
   d746a:	6823      	ldr	r3, [r4, #0]
   d746c:	691b      	ldr	r3, [r3, #16]
   d746e:	fa0f f989 	sxth.w	r9, r9
   d7472:	461e      	mov	r6, r3
   d7474:	464a      	mov	r2, r9
   d7476:	4651      	mov	r1, sl
   d7478:	462b      	mov	r3, r5
   d747a:	4620      	mov	r0, r4
   d747c:	47b0      	blx	r6
    drawPixel(x0 - x, y0 - y, color);
   d747e:	6823      	ldr	r3, [r4, #0]
   d7480:	464a      	mov	r2, r9
   d7482:	f8d3 a010 	ldr.w	sl, [r3, #16]
   d7486:	4641      	mov	r1, r8
   d7488:	462b      	mov	r3, r5
   d748a:	4620      	mov	r0, r4
   d748c:	47d0      	blx	sl
    drawPixel(x0 + y, y0 + x, color);
   d748e:	9b01      	ldr	r3, [sp, #4]
   d7490:	9a04      	ldr	r2, [sp, #16]
   d7492:	eb03 0802 	add.w	r8, r3, r2
   d7496:	9b09      	ldr	r3, [sp, #36]	; 0x24
   d7498:	eb07 0903 	add.w	r9, r7, r3
   d749c:	6823      	ldr	r3, [r4, #0]
   d749e:	fa0f f888 	sxth.w	r8, r8
   d74a2:	fa0f f989 	sxth.w	r9, r9
   d74a6:	f8d3 a010 	ldr.w	sl, [r3, #16]
   d74aa:	464a      	mov	r2, r9
   d74ac:	4641      	mov	r1, r8
   d74ae:	462b      	mov	r3, r5
   d74b0:	4620      	mov	r0, r4
   d74b2:	47d0      	blx	sl
    drawPixel(x0 - y, y0 + x, color);
   d74b4:	9b01      	ldr	r3, [sp, #4]
   d74b6:	9a04      	ldr	r2, [sp, #16]
   d74b8:	1a9e      	subs	r6, r3, r2
   d74ba:	6823      	ldr	r3, [r4, #0]
   d74bc:	b236      	sxth	r6, r6
   d74be:	464a      	mov	r2, r9
   d74c0:	f8d3 a010 	ldr.w	sl, [r3, #16]
   d74c4:	4631      	mov	r1, r6
   d74c6:	462b      	mov	r3, r5
   d74c8:	4620      	mov	r0, r4
   d74ca:	47d0      	blx	sl
   d74cc:	f10b 33ff 	add.w	r3, fp, #4294967295	; 0xffffffff
   d74d0:	1bdf      	subs	r7, r3, r7
    drawPixel(x0 + y, y0 - x, color);
   d74d2:	6823      	ldr	r3, [r4, #0]
   d74d4:	b23f      	sxth	r7, r7
   d74d6:	4641      	mov	r1, r8
   d74d8:	f8d3 9010 	ldr.w	r9, [r3, #16]
   d74dc:	463a      	mov	r2, r7
   d74de:	462b      	mov	r3, r5
   d74e0:	4620      	mov	r0, r4
   d74e2:	47c8      	blx	r9
    drawPixel(x0 - y, y0 - x, color);
   d74e4:	6823      	ldr	r3, [r4, #0]
   d74e6:	463a      	mov	r2, r7
   d74e8:	f8d3 8010 	ldr.w	r8, [r3, #16]
   d74ec:	4631      	mov	r1, r6
   d74ee:	462b      	mov	r3, r5
   d74f0:	4620      	mov	r0, r4
   d74f2:	47c0      	blx	r8
   d74f4:	9b05      	ldr	r3, [sp, #20]
   d74f6:	3301      	adds	r3, #1
   d74f8:	9305      	str	r3, [sp, #20]
  drawPixel(x0  , y0+r, color);
  drawPixel(x0  , y0-r, color);
  drawPixel(x0+r, y0  , color);
  drawPixel(x0-r, y0  , color);

  while (x<y) {
   d74fa:	e775      	b.n	d73e8 <_ZN12Adafruit_GFX10drawCircleEssst+0x90>
    drawPixel(x0 + y, y0 + x, color);
    drawPixel(x0 - y, y0 + x, color);
    drawPixel(x0 + y, y0 - x, color);
    drawPixel(x0 - y, y0 - x, color);
  }
}
   d74fc:	b00b      	add	sp, #44	; 0x2c
   d74fe:	e8bd 8ff0 	ldmia.w	sp!, {r4, r5, r6, r7, r8, r9, sl, fp, pc}

000d7502 <_ZN12Adafruit_GFX16drawCircleHelperEsssht>:

void Adafruit_GFX::drawCircleHelper( int16_t x0, int16_t y0,
               int16_t r, uint8_t cornername, uint16_t color) {
   d7502:	e92d 4ff0 	stmdb	sp!, {r4, r5, r6, r7, r8, r9, sl, fp, lr}
   d7506:	b087      	sub	sp, #28
   d7508:	461d      	mov	r5, r3
   d750a:	f89d 3040 	ldrb.w	r3, [sp, #64]	; 0x40
   d750e:	9303      	str	r3, [sp, #12]
  int16_t f     = 1 - r;
   d7510:	b2ab      	uxth	r3, r5
    drawPixel(x0 - y, y0 - x, color);
  }
}

void Adafruit_GFX::drawCircleHelper( int16_t x0, int16_t y0,
               int16_t r, uint8_t cornername, uint16_t color) {
   d7512:	9202      	str	r2, [sp, #8]
  int16_t f     = 1 - r;
   d7514:	f1c3 0201 	rsb	r2, r3, #1
  int16_t ddF_x = 1;
  int16_t ddF_y = -2 * r;
   d7518:	ebc3 33c3 	rsb	r3, r3, r3, lsl #15
   d751c:	005b      	lsls	r3, r3, #1
   d751e:	b21b      	sxth	r3, r3
   d7520:	9304      	str	r3, [sp, #16]
   d7522:	2300      	movs	r3, #0
   d7524:	9301      	str	r3, [sp, #4]
      f     += ddF_y;
    }
    x++;
    ddF_x += 2;
    f     += ddF_x;
    if (cornername & 0x4) {
   d7526:	9b03      	ldr	r3, [sp, #12]
    drawPixel(x0 - y, y0 - x, color);
  }
}

void Adafruit_GFX::drawCircleHelper( int16_t x0, int16_t y0,
               int16_t r, uint8_t cornername, uint16_t color) {
   d7528:	f8bd 7044 	ldrh.w	r7, [sp, #68]	; 0x44
      f     += ddF_y;
    }
    x++;
    ddF_x += 2;
    f     += ddF_x;
    if (cornername & 0x4) {
   d752c:	f003 0304 	and.w	r3, r3, #4
  }
}

void Adafruit_GFX::drawCircleHelper( int16_t x0, int16_t y0,
               int16_t r, uint8_t cornername, uint16_t color) {
  int16_t f     = 1 - r;
   d7530:	b212      	sxth	r2, r2
      f     += ddF_y;
    }
    x++;
    ddF_x += 2;
    f     += ddF_x;
    if (cornername & 0x4) {
   d7532:	b2db      	uxtb	r3, r3
    drawPixel(x0 - y, y0 - x, color);
  }
}

void Adafruit_GFX::drawCircleHelper( int16_t x0, int16_t y0,
               int16_t r, uint8_t cornername, uint16_t color) {
   d7534:	4604      	mov	r4, r0
  int16_t f     = 1 - r;
   d7536:	9200      	str	r2, [sp, #0]
      f     += ddF_y;
    }
    x++;
    ddF_x += 2;
    f     += ddF_x;
    if (cornername & 0x4) {
   d7538:	9305      	str	r3, [sp, #20]
      drawPixel(x0 + x, y0 + y, color);
   d753a:	fa1f f881 	uxth.w	r8, r1
  int16_t ddF_x = 1;
  int16_t ddF_y = -2 * r;
  int16_t x     = 0;
  int16_t y     = r;

  while (x<y) {
   d753e:	f9bd 3004 	ldrsh.w	r3, [sp, #4]
   d7542:	42ab      	cmp	r3, r5
   d7544:	f280 809d 	bge.w	d7682 <_ZN12Adafruit_GFX16drawCircleHelperEsssht+0x180>
    if (f >= 0) {
   d7548:	9b00      	ldr	r3, [sp, #0]
   d754a:	2b00      	cmp	r3, #0
   d754c:	db0a      	blt.n	d7564 <_ZN12Adafruit_GFX16drawCircleHelperEsssht+0x62>
      y--;
      ddF_y += 2;
   d754e:	9b04      	ldr	r3, [sp, #16]
   d7550:	3302      	adds	r3, #2
   d7552:	b29b      	uxth	r3, r3
   d7554:	b21a      	sxth	r2, r3
   d7556:	9204      	str	r2, [sp, #16]
      f     += ddF_y;
   d7558:	9a00      	ldr	r2, [sp, #0]
   d755a:	4413      	add	r3, r2
  int16_t x     = 0;
  int16_t y     = r;

  while (x<y) {
    if (f >= 0) {
      y--;
   d755c:	3d01      	subs	r5, #1
      ddF_y += 2;
      f     += ddF_y;
   d755e:	b21b      	sxth	r3, r3
  int16_t x     = 0;
  int16_t y     = r;

  while (x<y) {
    if (f >= 0) {
      y--;
   d7560:	b22d      	sxth	r5, r5
      ddF_y += 2;
      f     += ddF_y;
   d7562:	9300      	str	r3, [sp, #0]
    }
    x++;
    ddF_x += 2;
    f     += ddF_x;
   d7564:	9b00      	ldr	r3, [sp, #0]
   d7566:	f8bd 6004 	ldrh.w	r6, [sp, #4]
   d756a:	eb03 0346 	add.w	r3, r3, r6, lsl #1
   d756e:	3303      	adds	r3, #3
   d7570:	b21b      	sxth	r3, r3
   d7572:	9300      	str	r3, [sp, #0]
    if (cornername & 0x4) {
   d7574:	9b05      	ldr	r3, [sp, #20]
   d7576:	b1eb      	cbz	r3, d75b4 <_ZN12Adafruit_GFX16drawCircleHelperEsssht+0xb2>
      drawPixel(x0 + x, y0 + y, color);
   d7578:	f8bd 9008 	ldrh.w	r9, [sp, #8]
   d757c:	6823      	ldr	r3, [r4, #0]
   d757e:	fa1f fa85 	uxth.w	sl, r5
   d7582:	f108 0101 	add.w	r1, r8, #1
   d7586:	eb09 020a 	add.w	r2, r9, sl
   d758a:	4431      	add	r1, r6
   d758c:	f8d3 b010 	ldr.w	fp, [r3, #16]
   d7590:	b212      	sxth	r2, r2
   d7592:	463b      	mov	r3, r7
   d7594:	b209      	sxth	r1, r1
   d7596:	4620      	mov	r0, r4
   d7598:	47d8      	blx	fp
      drawPixel(x0 + y, y0 + x, color);
   d759a:	6823      	ldr	r3, [r4, #0]
   d759c:	f109 0201 	add.w	r2, r9, #1
   d75a0:	4432      	add	r2, r6
   d75a2:	eb08 010a 	add.w	r1, r8, sl
   d75a6:	f8d3 b010 	ldr.w	fp, [r3, #16]
   d75aa:	b212      	sxth	r2, r2
   d75ac:	463b      	mov	r3, r7
   d75ae:	b209      	sxth	r1, r1
   d75b0:	4620      	mov	r0, r4
   d75b2:	47d8      	blx	fp
    } 
    if (cornername & 0x2) {
   d75b4:	9b03      	ldr	r3, [sp, #12]
   d75b6:	0799      	lsls	r1, r3, #30
   d75b8:	d51d      	bpl.n	d75f6 <_ZN12Adafruit_GFX16drawCircleHelperEsssht+0xf4>
      drawPixel(x0 + x, y0 - y, color);
   d75ba:	f8bd 9008 	ldrh.w	r9, [sp, #8]
   d75be:	6823      	ldr	r3, [r4, #0]
   d75c0:	fa1f fa85 	uxth.w	sl, r5
   d75c4:	f108 0101 	add.w	r1, r8, #1
   d75c8:	ebca 0209 	rsb	r2, sl, r9
   d75cc:	4431      	add	r1, r6
   d75ce:	f8d3 b010 	ldr.w	fp, [r3, #16]
   d75d2:	b212      	sxth	r2, r2
   d75d4:	463b      	mov	r3, r7
   d75d6:	b209      	sxth	r1, r1
   d75d8:	4620      	mov	r0, r4
   d75da:	47d8      	blx	fp
      drawPixel(x0 + y, y0 - x, color);
   d75dc:	6823      	ldr	r3, [r4, #0]
   d75de:	f109 32ff 	add.w	r2, r9, #4294967295	; 0xffffffff
   d75e2:	1b92      	subs	r2, r2, r6
   d75e4:	eb08 010a 	add.w	r1, r8, sl
   d75e8:	f8d3 b010 	ldr.w	fp, [r3, #16]
   d75ec:	b212      	sxth	r2, r2
   d75ee:	463b      	mov	r3, r7
   d75f0:	b209      	sxth	r1, r1
   d75f2:	4620      	mov	r0, r4
   d75f4:	47d8      	blx	fp
    }
    if (cornername & 0x8) {
   d75f6:	9b03      	ldr	r3, [sp, #12]
   d75f8:	071a      	lsls	r2, r3, #28
   d75fa:	d51d      	bpl.n	d7638 <_ZN12Adafruit_GFX16drawCircleHelperEsssht+0x136>
      drawPixel(x0 - y, y0 + x, color);
   d75fc:	f8bd 9008 	ldrh.w	r9, [sp, #8]
   d7600:	6823      	ldr	r3, [r4, #0]
   d7602:	fa1f fa85 	uxth.w	sl, r5
   d7606:	f109 0001 	add.w	r0, r9, #1
   d760a:	1832      	adds	r2, r6, r0
   d760c:	ebca 0108 	rsb	r1, sl, r8
   d7610:	f8d3 b010 	ldr.w	fp, [r3, #16]
   d7614:	b212      	sxth	r2, r2
   d7616:	463b      	mov	r3, r7
   d7618:	b209      	sxth	r1, r1
   d761a:	4620      	mov	r0, r4
   d761c:	47d8      	blx	fp
      drawPixel(x0 - x, y0 + y, color);
   d761e:	6823      	ldr	r3, [r4, #0]
   d7620:	f108 31ff 	add.w	r1, r8, #4294967295	; 0xffffffff
   d7624:	eb0a 0209 	add.w	r2, sl, r9
   d7628:	1b89      	subs	r1, r1, r6
   d762a:	f8d3 b010 	ldr.w	fp, [r3, #16]
   d762e:	b212      	sxth	r2, r2
   d7630:	463b      	mov	r3, r7
   d7632:	b209      	sxth	r1, r1
   d7634:	4620      	mov	r0, r4
   d7636:	47d8      	blx	fp
    }
    if (cornername & 0x1) {
   d7638:	9b03      	ldr	r3, [sp, #12]
   d763a:	07db      	lsls	r3, r3, #31
   d763c:	d403      	bmi.n	d7646 <_ZN12Adafruit_GFX16drawCircleHelperEsssht+0x144>
   d763e:	9b01      	ldr	r3, [sp, #4]
   d7640:	3301      	adds	r3, #1
   d7642:	9301      	str	r3, [sp, #4]
   d7644:	e77b      	b.n	d753e <_ZN12Adafruit_GFX16drawCircleHelperEsssht+0x3c>
      drawPixel(x0 - y, y0 - x, color);
   d7646:	f8bd 9008 	ldrh.w	r9, [sp, #8]
   d764a:	6823      	ldr	r3, [r4, #0]
   d764c:	fa1f fa85 	uxth.w	sl, r5
   d7650:	f109 30ff 	add.w	r0, r9, #4294967295	; 0xffffffff
   d7654:	1b82      	subs	r2, r0, r6
   d7656:	ebca 0108 	rsb	r1, sl, r8
   d765a:	f8d3 b010 	ldr.w	fp, [r3, #16]
   d765e:	4620      	mov	r0, r4
   d7660:	463b      	mov	r3, r7
   d7662:	b212      	sxth	r2, r2
   d7664:	b209      	sxth	r1, r1
   d7666:	47d8      	blx	fp
      drawPixel(x0 - x, y0 - y, color);
   d7668:	6823      	ldr	r3, [r4, #0]
   d766a:	f108 31ff 	add.w	r1, r8, #4294967295	; 0xffffffff
   d766e:	ebca 0209 	rsb	r2, sl, r9
   d7672:	1b89      	subs	r1, r1, r6
   d7674:	b212      	sxth	r2, r2
   d7676:	691e      	ldr	r6, [r3, #16]
   d7678:	b209      	sxth	r1, r1
   d767a:	463b      	mov	r3, r7
   d767c:	4620      	mov	r0, r4
   d767e:	47b0      	blx	r6
   d7680:	e7dd      	b.n	d763e <_ZN12Adafruit_GFX16drawCircleHelperEsssht+0x13c>
    }
  }
}
   d7682:	b007      	add	sp, #28
   d7684:	e8bd 8ff0 	ldmia.w	sp!, {r4, r5, r6, r7, r8, r9, sl, fp, pc}

000d7688 <_ZN12Adafruit_GFX16fillCircleHelperEssshst>:
  fillCircleHelper(x0, y0, r, 3, 0, color);
}

// Used to do circles and roundrects
void Adafruit_GFX::fillCircleHelper(int16_t x0, int16_t y0, int16_t r,
    uint8_t cornername, int16_t delta, uint16_t color) {
   d7688:	e92d 4ff0 	stmdb	sp!, {r4, r5, r6, r7, r8, r9, sl, fp, lr}
   d768c:	b08d      	sub	sp, #52	; 0x34
   d768e:	461e      	mov	r6, r3
   d7690:	f89d 3058 	ldrb.w	r3, [sp, #88]	; 0x58
   d7694:	9309      	str	r3, [sp, #36]	; 0x24
   d7696:	f9bd 305c 	ldrsh.w	r3, [sp, #92]	; 0x5c
   d769a:	930a      	str	r3, [sp, #40]	; 0x28
   d769c:	f8bd 3060 	ldrh.w	r3, [sp, #96]	; 0x60
   d76a0:	9304      	str	r3, [sp, #16]

  int16_t f     = 1 - r;
   d76a2:	b2b3      	uxth	r3, r6
   d76a4:	f1c3 0801 	rsb	r8, r3, #1
  int16_t ddF_x = 1;
  int16_t ddF_y = -2 * r;
   d76a8:	ebc3 33c3 	rsb	r3, r3, r3, lsl #15
   d76ac:	005b      	lsls	r3, r3, #1
   d76ae:	b21b      	sxth	r3, r3
   d76b0:	9306      	str	r3, [sp, #24]
   d76b2:	2300      	movs	r3, #0
   d76b4:	9303      	str	r3, [sp, #12]
    }
    x++;
    ddF_x += 2;
    f     += ddF_x;

    if (cornername & 0x1) {
   d76b6:	9b09      	ldr	r3, [sp, #36]	; 0x24
  fillCircleHelper(x0, y0, r, 3, 0, color);
}

// Used to do circles and roundrects
void Adafruit_GFX::fillCircleHelper(int16_t x0, int16_t y0, int16_t r,
    uint8_t cornername, int16_t delta, uint16_t color) {
   d76b8:	9208      	str	r2, [sp, #32]
    }
    x++;
    ddF_x += 2;
    f     += ddF_x;

    if (cornername & 0x1) {
   d76ba:	f003 0301 	and.w	r3, r3, #1
  fillCircleHelper(x0, y0, r, 3, 0, color);
}

// Used to do circles and roundrects
void Adafruit_GFX::fillCircleHelper(int16_t x0, int16_t y0, int16_t r,
    uint8_t cornername, int16_t delta, uint16_t color) {
   d76be:	4604      	mov	r4, r0

  int16_t f     = 1 - r;
   d76c0:	fa0f f888 	sxth.w	r8, r8
    }
    x++;
    ddF_x += 2;
    f     += ddF_x;

    if (cornername & 0x1) {
   d76c4:	930b      	str	r3, [sp, #44]	; 0x2c
      drawFastVLine(x0+x, y0-y, 2*y+1+delta, color);
   d76c6:	fa1f fb81 	uxth.w	fp, r1
  int16_t ddF_x = 1;
  int16_t ddF_y = -2 * r;
  int16_t x     = 0;
  int16_t y     = r;

  while (x<y) {
   d76ca:	f9bd 300c 	ldrsh.w	r3, [sp, #12]
   d76ce:	42b3      	cmp	r3, r6
   d76d0:	da78      	bge.n	d77c4 <_ZN12Adafruit_GFX16fillCircleHelperEssshst+0x13c>
    if (f >= 0) {
   d76d2:	f1b8 0f00 	cmp.w	r8, #0
   d76d6:	db09      	blt.n	d76ec <_ZN12Adafruit_GFX16fillCircleHelperEssshst+0x64>
      y--;
      ddF_y += 2;
   d76d8:	9b06      	ldr	r3, [sp, #24]
   d76da:	3302      	adds	r3, #2
   d76dc:	b29b      	uxth	r3, r3
  int16_t x     = 0;
  int16_t y     = r;

  while (x<y) {
    if (f >= 0) {
      y--;
   d76de:	3e01      	subs	r6, #1
      ddF_y += 2;
   d76e0:	b21a      	sxth	r2, r3
      f     += ddF_y;
   d76e2:	4498      	add	r8, r3
  int16_t x     = 0;
  int16_t y     = r;

  while (x<y) {
    if (f >= 0) {
      y--;
   d76e4:	b236      	sxth	r6, r6
      ddF_y += 2;
   d76e6:	9206      	str	r2, [sp, #24]
      f     += ddF_y;
   d76e8:	fa0f f888 	sxth.w	r8, r8
   d76ec:	f8bd a00c 	ldrh.w	sl, [sp, #12]
   d76f0:	ea4f 034a 	mov.w	r3, sl, lsl #1
   d76f4:	b29b      	uxth	r3, r3
   d76f6:	9305      	str	r3, [sp, #20]
    }
    x++;
    ddF_x += 2;
    f     += ddF_x;
   d76f8:	3303      	adds	r3, #3
   d76fa:	4498      	add	r8, r3

    if (cornername & 0x1) {
   d76fc:	9b0b      	ldr	r3, [sp, #44]	; 0x2c
      ddF_y += 2;
      f     += ddF_y;
    }
    x++;
    ddF_x += 2;
    f     += ddF_x;
   d76fe:	fa0f f888 	sxth.w	r8, r8

    if (cornername & 0x1) {
   d7702:	b353      	cbz	r3, d775a <_ZN12Adafruit_GFX16fillCircleHelperEssshst+0xd2>
      drawFastVLine(x0+x, y0-y, 2*y+1+delta, color);
   d7704:	f8bd 3028 	ldrh.w	r3, [sp, #40]	; 0x28
   d7708:	6825      	ldr	r5, [r4, #0]
   d770a:	9804      	ldr	r0, [sp, #16]
   d770c:	f8bd 7020 	ldrh.w	r7, [sp, #32]
   d7710:	9000      	str	r0, [sp, #0]
   d7712:	fa1f f986 	uxth.w	r9, r6
   d7716:	69a8      	ldr	r0, [r5, #24]
   d7718:	9307      	str	r3, [sp, #28]
   d771a:	f10b 0101 	add.w	r1, fp, #1
   d771e:	3301      	adds	r3, #1
   d7720:	eb03 0349 	add.w	r3, r3, r9, lsl #1
   d7724:	ebc9 0207 	rsb	r2, r9, r7
   d7728:	4451      	add	r1, sl
   d772a:	4605      	mov	r5, r0
   d772c:	b21b      	sxth	r3, r3
   d772e:	b212      	sxth	r2, r2
   d7730:	b209      	sxth	r1, r1
   d7732:	4620      	mov	r0, r4
   d7734:	47a8      	blx	r5
      drawFastVLine(x0+y, y0-x, 2*x+1+delta, color);
   d7736:	9b07      	ldr	r3, [sp, #28]
   d7738:	9a05      	ldr	r2, [sp, #20]
   d773a:	6820      	ldr	r0, [r4, #0]
   d773c:	9d04      	ldr	r5, [sp, #16]
   d773e:	9500      	str	r5, [sp, #0]
   d7740:	3303      	adds	r3, #3
   d7742:	4413      	add	r3, r2
   d7744:	1e7a      	subs	r2, r7, #1
   d7746:	ebca 0202 	rsb	r2, sl, r2
   d774a:	eb0b 0109 	add.w	r1, fp, r9
   d774e:	6985      	ldr	r5, [r0, #24]
   d7750:	b21b      	sxth	r3, r3
   d7752:	b212      	sxth	r2, r2
   d7754:	b209      	sxth	r1, r1
   d7756:	4620      	mov	r0, r4
   d7758:	47a8      	blx	r5
    }
    if (cornername & 0x2) {
   d775a:	9b09      	ldr	r3, [sp, #36]	; 0x24
   d775c:	079b      	lsls	r3, r3, #30
   d775e:	d403      	bmi.n	d7768 <_ZN12Adafruit_GFX16fillCircleHelperEssshst+0xe0>
   d7760:	9b03      	ldr	r3, [sp, #12]
   d7762:	3301      	adds	r3, #1
   d7764:	9303      	str	r3, [sp, #12]
   d7766:	e7b0      	b.n	d76ca <_ZN12Adafruit_GFX16fillCircleHelperEssshst+0x42>
      drawFastVLine(x0-x, y0-y, 2*y+1+delta, color);
   d7768:	f8bd 5020 	ldrh.w	r5, [sp, #32]
   d776c:	f8bd 9028 	ldrh.w	r9, [sp, #40]	; 0x28
   d7770:	9804      	ldr	r0, [sp, #16]
   d7772:	9507      	str	r5, [sp, #28]
   d7774:	b2b7      	uxth	r7, r6
   d7776:	1bea      	subs	r2, r5, r7
   d7778:	6825      	ldr	r5, [r4, #0]
   d777a:	9000      	str	r0, [sp, #0]
   d777c:	69a8      	ldr	r0, [r5, #24]
   d777e:	f109 0301 	add.w	r3, r9, #1
   d7782:	f10b 31ff 	add.w	r1, fp, #4294967295	; 0xffffffff
   d7786:	eb03 0347 	add.w	r3, r3, r7, lsl #1
   d778a:	ebca 0101 	rsb	r1, sl, r1
   d778e:	4605      	mov	r5, r0
   d7790:	b21b      	sxth	r3, r3
   d7792:	4620      	mov	r0, r4
   d7794:	b212      	sxth	r2, r2
   d7796:	b209      	sxth	r1, r1
   d7798:	47a8      	blx	r5
      drawFastVLine(x0-y, y0-x, 2*x+1+delta, color);
   d779a:	9a05      	ldr	r2, [sp, #20]
   d779c:	6820      	ldr	r0, [r4, #0]
   d779e:	9d04      	ldr	r5, [sp, #16]
   d77a0:	9500      	str	r5, [sp, #0]
   d77a2:	f109 0303 	add.w	r3, r9, #3
   d77a6:	441a      	add	r2, r3
   d77a8:	4613      	mov	r3, r2
   d77aa:	9a07      	ldr	r2, [sp, #28]
   d77ac:	6985      	ldr	r5, [r0, #24]
   d77ae:	3a01      	subs	r2, #1
   d77b0:	ebca 0202 	rsb	r2, sl, r2
   d77b4:	ebc7 010b 	rsb	r1, r7, fp
   d77b8:	b21b      	sxth	r3, r3
   d77ba:	b212      	sxth	r2, r2
   d77bc:	b209      	sxth	r1, r1
   d77be:	4620      	mov	r0, r4
   d77c0:	47a8      	blx	r5
   d77c2:	e7cd      	b.n	d7760 <_ZN12Adafruit_GFX16fillCircleHelperEssshst+0xd8>
    }
  }
}
   d77c4:	b00d      	add	sp, #52	; 0x34
   d77c6:	e8bd 8ff0 	ldmia.w	sp!, {r4, r5, r6, r7, r8, r9, sl, fp, pc}

000d77ca <_ZN12Adafruit_GFX13drawRoundRectEssssst>:
  fillRect(0, 0, _width, _height, color);
}

// Draw a rounded rectangle
void Adafruit_GFX::drawRoundRect(int16_t x, int16_t y, int16_t w,
  int16_t h, int16_t r, uint16_t color) {
   d77ca:	e92d 4ff0 	stmdb	sp!, {r4, r5, r6, r7, r8, r9, sl, fp, lr}
   d77ce:	b089      	sub	sp, #36	; 0x24
  // smarter version
  drawFastHLine(x+r  , y    , w-2*r, color); // Top
   d77d0:	b29b      	uxth	r3, r3
  fillRect(0, 0, _width, _height, color);
}

// Draw a rounded rectangle
void Adafruit_GFX::drawRoundRect(int16_t x, int16_t y, int16_t w,
  int16_t h, int16_t r, uint16_t color) {
   d77d2:	f9bd 904c 	ldrsh.w	r9, [sp, #76]	; 0x4c
   d77d6:	9107      	str	r1, [sp, #28]
  // smarter version
  drawFastHLine(x+r  , y    , w-2*r, color); // Top
   d77d8:	fa1f fa89 	uxth.w	sl, r9
   d77dc:	f8bd 101c 	ldrh.w	r1, [sp, #28]
   d77e0:	9304      	str	r3, [sp, #16]
   d77e2:	ea4f 034a 	mov.w	r3, sl, lsl #1
   d77e6:	9103      	str	r1, [sp, #12]
   d77e8:	b29b      	uxth	r3, r3
   d77ea:	4451      	add	r1, sl
   d77ec:	9305      	str	r3, [sp, #20]
   d77ee:	b209      	sxth	r1, r1
   d77f0:	9102      	str	r1, [sp, #8]
   d77f2:	9b04      	ldr	r3, [sp, #16]
   d77f4:	9905      	ldr	r1, [sp, #20]
  fillRect(0, 0, _width, _height, color);
}

// Draw a rounded rectangle
void Adafruit_GFX::drawRoundRect(int16_t x, int16_t y, int16_t w,
  int16_t h, int16_t r, uint16_t color) {
   d77f6:	f8bd 6050 	ldrh.w	r6, [sp, #80]	; 0x50
   d77fa:	f9bd 8048 	ldrsh.w	r8, [sp, #72]	; 0x48
  // smarter version
  drawFastHLine(x+r  , y    , w-2*r, color); // Top
   d77fe:	1a5f      	subs	r7, r3, r1
   d7800:	6803      	ldr	r3, [r0, #0]
   d7802:	9600      	str	r6, [sp, #0]
   d7804:	b23f      	sxth	r7, r7
  fillRect(0, 0, _width, _height, color);
}

// Draw a rounded rectangle
void Adafruit_GFX::drawRoundRect(int16_t x, int16_t y, int16_t w,
  int16_t h, int16_t r, uint16_t color) {
   d7806:	4693      	mov	fp, r2
  // smarter version
  drawFastHLine(x+r  , y    , w-2*r, color); // Top
   d7808:	69dd      	ldr	r5, [r3, #28]
   d780a:	9902      	ldr	r1, [sp, #8]
   d780c:	463b      	mov	r3, r7
  drawFastHLine(x+r  , y+h-1, w-2*r, color); // Bottom
   d780e:	fa1f f888 	uxth.w	r8, r8
  fillRect(0, 0, _width, _height, color);
}

// Draw a rounded rectangle
void Adafruit_GFX::drawRoundRect(int16_t x, int16_t y, int16_t w,
  int16_t h, int16_t r, uint16_t color) {
   d7812:	4604      	mov	r4, r0
  // smarter version
  drawFastHLine(x+r  , y    , w-2*r, color); // Top
   d7814:	47a8      	blx	r5
  drawFastHLine(x+r  , y+h-1, w-2*r, color); // Bottom
   d7816:	fa1f f58b 	uxth.w	r5, fp
   d781a:	f108 33ff 	add.w	r3, r8, #4294967295	; 0xffffffff
   d781e:	442b      	add	r3, r5
   d7820:	b29b      	uxth	r3, r3
   d7822:	9306      	str	r3, [sp, #24]
   d7824:	6823      	ldr	r3, [r4, #0]
   d7826:	9600      	str	r6, [sp, #0]
   d7828:	f8d3 b01c 	ldr.w	fp, [r3, #28]
   d782c:	f9bd 2018 	ldrsh.w	r2, [sp, #24]
   d7830:	9902      	ldr	r1, [sp, #8]
   d7832:	463b      	mov	r3, r7
   d7834:	4620      	mov	r0, r4
   d7836:	47d8      	blx	fp
  drawFastVLine(x    , y+r  , h-2*r, color); // Left
   d7838:	9b05      	ldr	r3, [sp, #20]
   d783a:	9600      	str	r6, [sp, #0]
   d783c:	4455      	add	r5, sl
   d783e:	ebc3 0808 	rsb	r8, r3, r8
   d7842:	6823      	ldr	r3, [r4, #0]
   d7844:	9907      	ldr	r1, [sp, #28]
   d7846:	699f      	ldr	r7, [r3, #24]
   d7848:	b22d      	sxth	r5, r5
   d784a:	fa0f f888 	sxth.w	r8, r8
   d784e:	4643      	mov	r3, r8
   d7850:	462a      	mov	r2, r5
   d7852:	4620      	mov	r0, r4
   d7854:	47b8      	blx	r7
  drawFastVLine(x+w-1, y+r  , h-2*r, color); // Right
   d7856:	9b03      	ldr	r3, [sp, #12]
   d7858:	9a04      	ldr	r2, [sp, #16]
   d785a:	9600      	str	r6, [sp, #0]
   d785c:	189f      	adds	r7, r3, r2
   d785e:	b2bf      	uxth	r7, r7
   d7860:	6823      	ldr	r3, [r4, #0]
   d7862:	1e79      	subs	r1, r7, #1
   d7864:	f8d3 b018 	ldr.w	fp, [r3, #24]
   d7868:	462a      	mov	r2, r5
   d786a:	4643      	mov	r3, r8
   d786c:	4620      	mov	r0, r4
   d786e:	b209      	sxth	r1, r1
   d7870:	47d8      	blx	fp
  // draw four corners
  drawCircleHelper(x+r    , y+r    , r, 1, color);
   d7872:	2301      	movs	r3, #1
   d7874:	9300      	str	r3, [sp, #0]
   d7876:	462a      	mov	r2, r5
   d7878:	464b      	mov	r3, r9
   d787a:	9902      	ldr	r1, [sp, #8]
   d787c:	9601      	str	r6, [sp, #4]
   d787e:	4620      	mov	r0, r4
   d7880:	f7ff fe3f 	bl	d7502 <_ZN12Adafruit_GFX16drawCircleHelperEsssht>
  drawCircleHelper(x+w-r-1, y+r    , r, 2, color);
   d7884:	ea6f 030a 	mvn.w	r3, sl
   d7888:	441f      	add	r7, r3
   d788a:	b23f      	sxth	r7, r7
   d788c:	2302      	movs	r3, #2
   d788e:	9300      	str	r3, [sp, #0]
   d7890:	462a      	mov	r2, r5
   d7892:	464b      	mov	r3, r9
   d7894:	4639      	mov	r1, r7
   d7896:	4620      	mov	r0, r4
   d7898:	9601      	str	r6, [sp, #4]
   d789a:	f7ff fe32 	bl	d7502 <_ZN12Adafruit_GFX16drawCircleHelperEsssht>
  drawCircleHelper(x+w-r-1, y+h-r-1, r, 4, color);
   d789e:	9b06      	ldr	r3, [sp, #24]
   d78a0:	9601      	str	r6, [sp, #4]
   d78a2:	ebca 0a03 	rsb	sl, sl, r3
   d78a6:	fa0f fa8a 	sxth.w	sl, sl
   d78aa:	2304      	movs	r3, #4
   d78ac:	9300      	str	r3, [sp, #0]
   d78ae:	4652      	mov	r2, sl
   d78b0:	464b      	mov	r3, r9
   d78b2:	4639      	mov	r1, r7
   d78b4:	4620      	mov	r0, r4
   d78b6:	f7ff fe24 	bl	d7502 <_ZN12Adafruit_GFX16drawCircleHelperEsssht>
  drawCircleHelper(x+r    , y+h-r-1, r, 8, color);
   d78ba:	2308      	movs	r3, #8
   d78bc:	9902      	ldr	r1, [sp, #8]
   d78be:	9312      	str	r3, [sp, #72]	; 0x48
   d78c0:	4652      	mov	r2, sl
   d78c2:	464b      	mov	r3, r9
   d78c4:	4620      	mov	r0, r4
   d78c6:	9613      	str	r6, [sp, #76]	; 0x4c
}
   d78c8:	b009      	add	sp, #36	; 0x24
   d78ca:	e8bd 4ff0 	ldmia.w	sp!, {r4, r5, r6, r7, r8, r9, sl, fp, lr}
  drawFastVLine(x+w-1, y+r  , h-2*r, color); // Right
  // draw four corners
  drawCircleHelper(x+r    , y+r    , r, 1, color);
  drawCircleHelper(x+w-r-1, y+r    , r, 2, color);
  drawCircleHelper(x+w-r-1, y+h-r-1, r, 4, color);
  drawCircleHelper(x+r    , y+h-r-1, r, 8, color);
   d78ce:	f7ff be18 	b.w	d7502 <_ZN12Adafruit_GFX16drawCircleHelperEsssht>

000d78d2 <_ZN12Adafruit_GFX13fillRoundRectEssssst>:
}

// Fill a rounded rectangle
void Adafruit_GFX::fillRoundRect(int16_t x, int16_t y, int16_t w,
				 int16_t h, int16_t r, uint16_t color) {
   d78d2:	e92d 4ff0 	stmdb	sp!, {r4, r5, r6, r7, r8, r9, sl, fp, lr}
   d78d6:	b089      	sub	sp, #36	; 0x24
  // smarter version
  fillRect(x+r, y, w-2*r, h, color);
   d78d8:	b289      	uxth	r1, r1
  drawCircleHelper(x+r    , y+h-r-1, r, 8, color);
}

// Fill a rounded rectangle
void Adafruit_GFX::fillRoundRect(int16_t x, int16_t y, int16_t w,
				 int16_t h, int16_t r, uint16_t color) {
   d78da:	f9bd a04c 	ldrsh.w	sl, [sp, #76]	; 0x4c
   d78de:	f9bd 4048 	ldrsh.w	r4, [sp, #72]	; 0x48
   d78e2:	9407      	str	r4, [sp, #28]
  // smarter version
  fillRect(x+r, y, w-2*r, h, color);
   d78e4:	fa1f f88a 	uxth.w	r8, sl
   d78e8:	ea4f 0448 	mov.w	r4, r8, lsl #1
  drawCircleHelper(x+r    , y+h-r-1, r, 8, color);
}

// Fill a rounded rectangle
void Adafruit_GFX::fillRoundRect(int16_t x, int16_t y, int16_t w,
				 int16_t h, int16_t r, uint16_t color) {
   d78ec:	f8bd b050 	ldrh.w	fp, [sp, #80]	; 0x50
  // smarter version
  fillRect(x+r, y, w-2*r, h, color);
   d78f0:	9105      	str	r1, [sp, #20]
   d78f2:	b29d      	uxth	r5, r3
   d78f4:	eb01 0708 	add.w	r7, r1, r8
   d78f8:	b2a3      	uxth	r3, r4
   d78fa:	6801      	ldr	r1, [r0, #0]
   d78fc:	9c07      	ldr	r4, [sp, #28]
   d78fe:	9306      	str	r3, [sp, #24]
   d7900:	b23f      	sxth	r7, r7
   d7902:	f8cd b004 	str.w	fp, [sp, #4]
   d7906:	9400      	str	r4, [sp, #0]
   d7908:	1aeb      	subs	r3, r5, r3
   d790a:	6a4c      	ldr	r4, [r1, #36]	; 0x24
   d790c:	b21b      	sxth	r3, r3
   d790e:	4639      	mov	r1, r7
  drawCircleHelper(x+r    , y+h-r-1, r, 8, color);
}

// Fill a rounded rectangle
void Adafruit_GFX::fillRoundRect(int16_t x, int16_t y, int16_t w,
				 int16_t h, int16_t r, uint16_t color) {
   d7910:	4681      	mov	r9, r0
   d7912:	4616      	mov	r6, r2
  // smarter version
  fillRect(x+r, y, w-2*r, h, color);
   d7914:	47a0      	blx	r4

  // draw four corners
  fillCircleHelper(x+w-r-1, y+r, r, 1, h-2*r-1, color);
   d7916:	9b07      	ldr	r3, [sp, #28]
   d7918:	f8cd b008 	str.w	fp, [sp, #8]
   d791c:	1e5c      	subs	r4, r3, #1
   d791e:	9b06      	ldr	r3, [sp, #24]
   d7920:	1ae4      	subs	r4, r4, r3
   d7922:	9b05      	ldr	r3, [sp, #20]
   d7924:	1e69      	subs	r1, r5, #1
   d7926:	4446      	add	r6, r8
   d7928:	4419      	add	r1, r3
   d792a:	b236      	sxth	r6, r6
   d792c:	b224      	sxth	r4, r4
   d792e:	ebc8 0101 	rsb	r1, r8, r1
   d7932:	2301      	movs	r3, #1
   d7934:	9300      	str	r3, [sp, #0]
   d7936:	4632      	mov	r2, r6
   d7938:	4653      	mov	r3, sl
   d793a:	4648      	mov	r0, r9
   d793c:	9401      	str	r4, [sp, #4]
   d793e:	b209      	sxth	r1, r1
   d7940:	f7ff fea2 	bl	d7688 <_ZN12Adafruit_GFX16fillCircleHelperEssshst>
  fillCircleHelper(x+r    , y+r, r, 2, h-2*r-1, color);
   d7944:	2302      	movs	r3, #2
   d7946:	9312      	str	r3, [sp, #72]	; 0x48
   d7948:	4632      	mov	r2, r6
   d794a:	4653      	mov	r3, sl
   d794c:	4639      	mov	r1, r7
   d794e:	4648      	mov	r0, r9
   d7950:	f8cd b050 	str.w	fp, [sp, #80]	; 0x50
   d7954:	9413      	str	r4, [sp, #76]	; 0x4c
}
   d7956:	b009      	add	sp, #36	; 0x24
   d7958:	e8bd 4ff0 	ldmia.w	sp!, {r4, r5, r6, r7, r8, r9, sl, fp, lr}
  // smarter version
  fillRect(x+r, y, w-2*r, h, color);

  // draw four corners
  fillCircleHelper(x+w-r-1, y+r, r, 1, h-2*r-1, color);
  fillCircleHelper(x+r    , y+r, r, 2, h-2*r-1, color);
   d795c:	f7ff be94 	b.w	d7688 <_ZN12Adafruit_GFX16fillCircleHelperEssshst>

000d7960 <_ZN12Adafruit_GFX12drawTriangleEsssssst>:
}

// Draw a triangle
void Adafruit_GFX::drawTriangle(int16_t x0, int16_t y0,
				int16_t x1, int16_t y1,
				int16_t x2, int16_t y2, uint16_t color) {
   d7960:	e92d 4ff0 	stmdb	sp!, {r4, r5, r6, r7, r8, r9, sl, fp, lr}
   d7964:	b085      	sub	sp, #20
  drawLine(x0, y0, x1, y1, color);
   d7966:	6807      	ldr	r7, [r0, #0]
}

// Draw a triangle
void Adafruit_GFX::drawTriangle(int16_t x0, int16_t y0,
				int16_t x1, int16_t y1,
				int16_t x2, int16_t y2, uint16_t color) {
   d7968:	f8bd 5044 	ldrh.w	r5, [sp, #68]	; 0x44
   d796c:	f9bd 9038 	ldrsh.w	r9, [sp, #56]	; 0x38
  drawLine(x0, y0, x1, y1, color);
   d7970:	9501      	str	r5, [sp, #4]
}

// Draw a triangle
void Adafruit_GFX::drawTriangle(int16_t x0, int16_t y0,
				int16_t x1, int16_t y1,
				int16_t x2, int16_t y2, uint16_t color) {
   d7972:	4604      	mov	r4, r0
  drawLine(x0, y0, x1, y1, color);
   d7974:	f8cd 9000 	str.w	r9, [sp]
}

// Draw a triangle
void Adafruit_GFX::drawTriangle(int16_t x0, int16_t y0,
				int16_t x1, int16_t y1,
				int16_t x2, int16_t y2, uint16_t color) {
   d7978:	9203      	str	r2, [sp, #12]
  drawLine(x0, y0, x1, y1, color);
   d797a:	697f      	ldr	r7, [r7, #20]
}

// Draw a triangle
void Adafruit_GFX::drawTriangle(int16_t x0, int16_t y0,
				int16_t x1, int16_t y1,
				int16_t x2, int16_t y2, uint16_t color) {
   d797c:	f9bd 603c 	ldrsh.w	r6, [sp, #60]	; 0x3c
   d7980:	f9bd 8040 	ldrsh.w	r8, [sp, #64]	; 0x40
   d7984:	468a      	mov	sl, r1
   d7986:	469b      	mov	fp, r3
  drawLine(x0, y0, x1, y1, color);
   d7988:	47b8      	blx	r7
  drawLine(x1, y1, x2, y2, color);
   d798a:	6823      	ldr	r3, [r4, #0]
   d798c:	9501      	str	r5, [sp, #4]
   d798e:	f8cd 8000 	str.w	r8, [sp]
   d7992:	695f      	ldr	r7, [r3, #20]
   d7994:	464a      	mov	r2, r9
   d7996:	4633      	mov	r3, r6
   d7998:	4659      	mov	r1, fp
   d799a:	4620      	mov	r0, r4
   d799c:	47b8      	blx	r7
  drawLine(x2, y2, x0, y0, color);
   d799e:	6823      	ldr	r3, [r4, #0]
   d79a0:	9a03      	ldr	r2, [sp, #12]
   d79a2:	920e      	str	r2, [sp, #56]	; 0x38
   d79a4:	950f      	str	r5, [sp, #60]	; 0x3c
   d79a6:	695d      	ldr	r5, [r3, #20]
   d79a8:	4642      	mov	r2, r8
   d79aa:	4653      	mov	r3, sl
   d79ac:	4631      	mov	r1, r6
   d79ae:	4620      	mov	r0, r4
   d79b0:	46ac      	mov	ip, r5
}
   d79b2:	b005      	add	sp, #20
   d79b4:	e8bd 4ff0 	ldmia.w	sp!, {r4, r5, r6, r7, r8, r9, sl, fp, lr}
void Adafruit_GFX::drawTriangle(int16_t x0, int16_t y0,
				int16_t x1, int16_t y1,
				int16_t x2, int16_t y2, uint16_t color) {
  drawLine(x0, y0, x1, y1, color);
  drawLine(x1, y1, x2, y2, color);
  drawLine(x2, y2, x0, y0, color);
   d79b8:	4760      	bx	ip

000d79ba <_ZN12Adafruit_GFX12fillTriangleEsssssst>:
}

// Fill a triangle
void Adafruit_GFX::fillTriangle ( int16_t x0, int16_t y0,
				  int16_t x1, int16_t y1,
				  int16_t x2, int16_t y2, uint16_t color) {
   d79ba:	e92d 4ff0 	stmdb	sp!, {r4, r5, r6, r7, r8, r9, sl, fp, lr}
   d79be:	b08d      	sub	sp, #52	; 0x34
   d79c0:	4615      	mov	r5, r2
   d79c2:	f9bd 6058 	ldrsh.w	r6, [sp, #88]	; 0x58
   d79c6:	f9bd 2060 	ldrsh.w	r2, [sp, #96]	; 0x60
   d79ca:	460c      	mov	r4, r1

  int16_t a, b, y, last;

  // Sort coordinates by Y order (y2 >= y1 >= y0)
  if (y0 > y1) {
   d79cc:	42b5      	cmp	r5, r6
}

// Fill a triangle
void Adafruit_GFX::fillTriangle ( int16_t x0, int16_t y0,
				  int16_t x1, int16_t y1,
				  int16_t x2, int16_t y2, uint16_t color) {
   d79ce:	f8bd 1064 	ldrh.w	r1, [sp, #100]	; 0x64
   d79d2:	9105      	str	r1, [sp, #20]
   d79d4:	4681      	mov	r9, r0
   d79d6:	f9bd 005c 	ldrsh.w	r0, [sp, #92]	; 0x5c

  int16_t a, b, y, last;

  // Sort coordinates by Y order (y2 >= y1 >= y0)
  if (y0 > y1) {
   d79da:	dd06      	ble.n	d79ea <_ZN12Adafruit_GFX12fillTriangleEsssssst+0x30>
    swap(y0, y1); swap(x0, x1);
  }
  if (y1 > y2) {
   d79dc:	4295      	cmp	r5, r2
   d79de:	dd0e      	ble.n	d79fe <_ZN12Adafruit_GFX12fillTriangleEsssssst+0x44>
   d79e0:	46a8      	mov	r8, r5

  int16_t a, b, y, last;

  // Sort coordinates by Y order (y2 >= y1 >= y0)
  if (y0 > y1) {
    swap(y0, y1); swap(x0, x1);
   d79e2:	4621      	mov	r1, r4
   d79e4:	4635      	mov	r5, r6
   d79e6:	461c      	mov	r4, r3
   d79e8:	e004      	b.n	d79f4 <_ZN12Adafruit_GFX12fillTriangleEsssssst+0x3a>
  }
  if (y1 > y2) {
   d79ea:	4296      	cmp	r6, r2
   d79ec:	f340 80c2 	ble.w	d7b74 <_ZN12Adafruit_GFX12fillTriangleEsssssst+0x1ba>
   d79f0:	46b0      	mov	r8, r6
   d79f2:	4619      	mov	r1, r3
    swap(y2, y1); swap(x2, x1);
  }
  if (y0 > y1) {
   d79f4:	42aa      	cmp	r2, r5
   d79f6:	db0b      	blt.n	d7a10 <_ZN12Adafruit_GFX12fillTriangleEsssssst+0x56>
   d79f8:	4616      	mov	r6, r2
   d79fa:	4603      	mov	r3, r0
   d79fc:	e00c      	b.n	d7a18 <_ZN12Adafruit_GFX12fillTriangleEsssssst+0x5e>
   d79fe:	4690      	mov	r8, r2
   d7a00:	4632      	mov	r2, r6
   d7a02:	462e      	mov	r6, r5
   d7a04:	4615      	mov	r5, r2
   d7a06:	461a      	mov	r2, r3
   d7a08:	4601      	mov	r1, r0

  int16_t a, b, y, last;

  // Sort coordinates by Y order (y2 >= y1 >= y0)
  if (y0 > y1) {
    swap(y0, y1); swap(x0, x1);
   d7a0a:	4623      	mov	r3, r4
   d7a0c:	4614      	mov	r4, r2
   d7a0e:	e003      	b.n	d7a18 <_ZN12Adafruit_GFX12fillTriangleEsssssst+0x5e>
   d7a10:	462e      	mov	r6, r5
   d7a12:	4623      	mov	r3, r4
   d7a14:	4615      	mov	r5, r2
   d7a16:	4604      	mov	r4, r0
  }
  if (y0 > y1) {
    swap(y0, y1); swap(x0, x1);
  }

  if(y0 == y2) { // Handle awkward all-on-same-line case as its own thing
   d7a18:	4545      	cmp	r5, r8
   d7a1a:	d11d      	bne.n	d7a58 <_ZN12Adafruit_GFX12fillTriangleEsssssst+0x9e>
    a = b = x0;
    if(x1 < a)      a = x1;
   d7a1c:	429c      	cmp	r4, r3
   d7a1e:	dc05      	bgt.n	d7a2c <_ZN12Adafruit_GFX12fillTriangleEsssssst+0x72>
   d7a20:	42a3      	cmp	r3, r4
   d7a22:	bfb8      	it	lt
   d7a24:	4623      	movlt	r3, r4
   d7a26:	461a      	mov	r2, r3
   d7a28:	4623      	mov	r3, r4
   d7a2a:	b214      	sxth	r4, r2
    else if(x1 > b) b = x1;
    if(x2 < a)      a = x2;
   d7a2c:	428b      	cmp	r3, r1
   d7a2e:	dc04      	bgt.n	d7a3a <_ZN12Adafruit_GFX12fillTriangleEsssssst+0x80>
   d7a30:	428c      	cmp	r4, r1
   d7a32:	bfb8      	it	lt
   d7a34:	460c      	movlt	r4, r1
   d7a36:	b224      	sxth	r4, r4
   d7a38:	4619      	mov	r1, r3
    else if(x2 > b) b = x2;
    drawFastHLine(a, y0, b-a+1, color);
   d7a3a:	f8d9 2000 	ldr.w	r2, [r9]
   d7a3e:	9805      	ldr	r0, [sp, #20]
   d7a40:	9016      	str	r0, [sp, #88]	; 0x58
   d7a42:	3401      	adds	r4, #1
   d7a44:	1a63      	subs	r3, r4, r1
   d7a46:	69d4      	ldr	r4, [r2, #28]
   d7a48:	b21b      	sxth	r3, r3
   d7a4a:	462a      	mov	r2, r5
   d7a4c:	4648      	mov	r0, r9
   d7a4e:	46a4      	mov	ip, r4
    b = x0 + (x2 - x0) * (y - y0) / (y2 - y0);
    */
    if(a > b) swap(a,b);
    drawFastHLine(a, y, b-a+1, color);
  }
}
   d7a50:	b00d      	add	sp, #52	; 0x34
   d7a52:	e8bd 4ff0 	ldmia.w	sp!, {r4, r5, r6, r7, r8, r9, sl, fp, lr}
    a = b = x0;
    if(x1 < a)      a = x1;
    else if(x1 > b) b = x1;
    if(x2 < a)      a = x2;
    else if(x2 > b) b = x2;
    drawFastHLine(a, y0, b-a+1, color);
   d7a56:	4760      	bx	ip
    return;
  }

  int16_t
    dx01 = x1 - x0,
   d7a58:	fa1f fb83 	uxth.w	fp, r3
   d7a5c:	b2a3      	uxth	r3, r4
   d7a5e:	9302      	str	r3, [sp, #8]
   d7a60:	ebc3 030b 	rsb	r3, r3, fp
   d7a64:	b29b      	uxth	r3, r3
    dy01 = y1 - y0,
   d7a66:	b2a8      	uxth	r0, r5
    drawFastHLine(a, y0, b-a+1, color);
    return;
  }

  int16_t
    dx01 = x1 - x0,
   d7a68:	9309      	str	r3, [sp, #36]	; 0x24
    dy01 = y1 - y0,
   d7a6a:	b2b3      	uxth	r3, r6
   d7a6c:	1a1a      	subs	r2, r3, r0
   d7a6e:	b212      	sxth	r2, r2
   d7a70:	920a      	str	r2, [sp, #40]	; 0x28
    dx02 = x2 - x0,
   d7a72:	9a02      	ldr	r2, [sp, #8]
   d7a74:	b289      	uxth	r1, r1
   d7a76:	1a8a      	subs	r2, r1, r2
   d7a78:	b292      	uxth	r2, r2
  // 0-1 and 0-2.  If y1=y2 (flat-bottomed triangle), the scanline y1
  // is included here (and second loop will be skipped, avoiding a /0
  // error there), otherwise scanline y1 is skipped here and handled
  // in the second loop...which also avoids a /0 error here if y0=y1
  // (flat-topped triangle).
  if(y1 == y2) last = y1;   // Include y1 scanline
   d7a7a:	4546      	cmp	r6, r8
  }

  int16_t
    dx01 = x1 - x0,
    dy01 = y1 - y0,
    dx02 = x2 - x0,
   d7a7c:	9204      	str	r2, [sp, #16]
    dy02 = y2 - y0,
   d7a7e:	fa1f f288 	uxth.w	r2, r8
   d7a82:	eba2 0000 	sub.w	r0, r2, r0
    dx12 = x2 - x1,
   d7a86:	ebcb 0101 	rsb	r1, fp, r1
    dy12 = y2 - y1,
   d7a8a:	eba2 0203 	sub.w	r2, r2, r3
  // is included here (and second loop will be skipped, avoiding a /0
  // error there), otherwise scanline y1 is skipped here and handled
  // in the second loop...which also avoids a /0 error here if y0=y1
  // (flat-topped triangle).
  if(y1 == y2) last = y1;   // Include y1 scanline
  else         last = y1-1; // Skip it
   d7a8e:	bf18      	it	ne
   d7a90:	f103 33ff 	addne.w	r3, r3, #4294967295	; 0xffffffff

  int16_t
    dx01 = x1 - x0,
    dy01 = y1 - y0,
    dx02 = x2 - x0,
    dy02 = y2 - y0,
   d7a94:	b200      	sxth	r0, r0
    dx12 = x2 - x1,
   d7a96:	b289      	uxth	r1, r1
    dy12 = y2 - y1,
   d7a98:	b212      	sxth	r2, r2
  // is included here (and second loop will be skipped, avoiding a /0
  // error there), otherwise scanline y1 is skipped here and handled
  // in the second loop...which also avoids a /0 error here if y0=y1
  // (flat-topped triangle).
  if(y1 == y2) last = y1;   // Include y1 scanline
  else         last = y1-1; // Skip it
   d7a9a:	bf18      	it	ne
   d7a9c:	b21b      	sxthne	r3, r3
    dx02 = x2 - x0,
    dy02 = y2 - y0,
    dx12 = x2 - x1,
    dy12 = y2 - y1,
    sa   = 0,
    sb   = 0;
   d7a9e:	f04f 0a00 	mov.w	sl, #0

  int16_t
    dx01 = x1 - x0,
    dy01 = y1 - y0,
    dx02 = x2 - x0,
    dy02 = y2 - y0,
   d7aa2:	9007      	str	r0, [sp, #28]
    dx12 = x2 - x1,
   d7aa4:	9108      	str	r1, [sp, #32]
    dy12 = y2 - y1,
   d7aa6:	920b      	str	r2, [sp, #44]	; 0x2c
  // is included here (and second loop will be skipped, avoiding a /0
  // error there), otherwise scanline y1 is skipped here and handled
  // in the second loop...which also avoids a /0 error here if y0=y1
  // (flat-topped triangle).
  if(y1 == y2) last = y1;   // Include y1 scanline
  else         last = y1-1; // Skip it
   d7aa8:	bf14      	ite	ne
   d7aaa:	9306      	strne	r3, [sp, #24]
   d7aac:	9606      	streq	r6, [sp, #24]
   d7aae:	462f      	mov	r7, r5
    dy01 = y1 - y0,
    dx02 = x2 - x0,
    dy02 = y2 - y0,
    dx12 = x2 - x1,
    dy12 = y2 - y1,
    sa   = 0,
   d7ab0:	f8cd a00c 	str.w	sl, [sp, #12]
  // in the second loop...which also avoids a /0 error here if y0=y1
  // (flat-topped triangle).
  if(y1 == y2) last = y1;   // Include y1 scanline
  else         last = y1-1; // Skip it

  for(y=y0; y<=last; y++) {
   d7ab4:	9b06      	ldr	r3, [sp, #24]
   d7ab6:	429f      	cmp	r7, r3
   d7ab8:	dc29      	bgt.n	d7b0e <_ZN12Adafruit_GFX12fillTriangleEsssssst+0x154>
    a   = x0 + sa / dy01;
   d7aba:	9b03      	ldr	r3, [sp, #12]
   d7abc:	9a0a      	ldr	r2, [sp, #40]	; 0x28
   d7abe:	fb93 f1f2 	sdiv	r1, r3, r2
   d7ac2:	9b02      	ldr	r3, [sp, #8]
    b   = x0 + sb / dy02;
   d7ac4:	9a02      	ldr	r2, [sp, #8]
   d7ac6:	9803      	ldr	r0, [sp, #12]
  // (flat-topped triangle).
  if(y1 == y2) last = y1;   // Include y1 scanline
  else         last = y1-1; // Skip it

  for(y=y0; y<=last; y++) {
    a   = x0 + sa / dy01;
   d7ac8:	4419      	add	r1, r3
    b   = x0 + sb / dy02;
   d7aca:	9b07      	ldr	r3, [sp, #28]
   d7acc:	fb9a f3f3 	sdiv	r3, sl, r3
   d7ad0:	4413      	add	r3, r2
   d7ad2:	9a09      	ldr	r2, [sp, #36]	; 0x24
   d7ad4:	4402      	add	r2, r0
   d7ad6:	b212      	sxth	r2, r2
  // (flat-topped triangle).
  if(y1 == y2) last = y1;   // Include y1 scanline
  else         last = y1-1; // Skip it

  for(y=y0; y<=last; y++) {
    a   = x0 + sa / dy01;
   d7ad8:	b209      	sxth	r1, r1
    b   = x0 + sb / dy02;
   d7ada:	b21b      	sxth	r3, r3
   d7adc:	9203      	str	r2, [sp, #12]
   d7ade:	9a04      	ldr	r2, [sp, #16]
    /* longhand:
    a = x0 + (x1 - x0) * (y - y0) / (y1 - y0);
    b = x0 + (x2 - x0) * (y - y0) / (y2 - y0);
    */
    if(a > b) swap(a,b);
    drawFastHLine(a, y, b-a+1, color);
   d7ae0:	9805      	ldr	r0, [sp, #20]
   d7ae2:	9000      	str	r0, [sp, #0]
    sb += dx02;
    /* longhand:
    a = x0 + (x1 - x0) * (y - y0) / (y1 - y0);
    b = x0 + (x2 - x0) * (y - y0) / (y2 - y0);
    */
    if(a > b) swap(a,b);
   d7ae4:	4299      	cmp	r1, r3
   d7ae6:	4492      	add	sl, r2
   d7ae8:	bfc2      	ittt	gt
   d7aea:	460a      	movgt	r2, r1
   d7aec:	4619      	movgt	r1, r3
   d7aee:	4613      	movgt	r3, r2
    drawFastHLine(a, y, b-a+1, color);
   d7af0:	f8d9 2000 	ldr.w	r2, [r9]
   d7af4:	3301      	adds	r3, #1
   d7af6:	69d2      	ldr	r2, [r2, #28]
   d7af8:	1a5b      	subs	r3, r3, r1
   d7afa:	4614      	mov	r4, r2
   d7afc:	b21b      	sxth	r3, r3
   d7afe:	463a      	mov	r2, r7
   d7b00:	4648      	mov	r0, r9
   d7b02:	3701      	adds	r7, #1
   d7b04:	fa0f fa8a 	sxth.w	sl, sl
   d7b08:	47a0      	blx	r4
   d7b0a:	b23f      	sxth	r7, r7
  // in the second loop...which also avoids a /0 error here if y0=y1
  // (flat-topped triangle).
  if(y1 == y2) last = y1;   // Include y1 scanline
  else         last = y1-1; // Skip it

  for(y=y0; y<=last; y++) {
   d7b0c:	e7d2      	b.n	d7ab4 <_ZN12Adafruit_GFX12fillTriangleEsssssst+0xfa>
    drawFastHLine(a, y, b-a+1, color);
  }

  // For lower part of triangle, find scanline crossings for segments
  // 0-2 and 1-2.  This loop is skipped if y1=y2.
  sa = dx12 * (y - y1);
   d7b0e:	f8bd 3020 	ldrh.w	r3, [sp, #32]
   d7b12:	1bbe      	subs	r6, r7, r6
   d7b14:	fb16 f603 	smulbb	r6, r6, r3
  sb = dx02 * (y - y0);
   d7b18:	f8bd 3010 	ldrh.w	r3, [sp, #16]
   d7b1c:	1b7d      	subs	r5, r7, r5
   d7b1e:	fb15 f503 	smulbb	r5, r5, r3
    drawFastHLine(a, y, b-a+1, color);
  }

  // For lower part of triangle, find scanline crossings for segments
  // 0-2 and 1-2.  This loop is skipped if y1=y2.
  sa = dx12 * (y - y1);
   d7b22:	b236      	sxth	r6, r6
  sb = dx02 * (y - y0);
   d7b24:	b22d      	sxth	r5, r5
  for(; y<=y2; y++) {
   d7b26:	4547      	cmp	r7, r8
   d7b28:	dc27      	bgt.n	d7b7a <_ZN12Adafruit_GFX12fillTriangleEsssssst+0x1c0>
    a   = x1 + sa / dy12;
    b   = x0 + sb / dy02;
   d7b2a:	9a02      	ldr	r2, [sp, #8]
  // For lower part of triangle, find scanline crossings for segments
  // 0-2 and 1-2.  This loop is skipped if y1=y2.
  sa = dx12 * (y - y1);
  sb = dx02 * (y - y0);
  for(; y<=y2; y++) {
    a   = x1 + sa / dy12;
   d7b2c:	9b0b      	ldr	r3, [sp, #44]	; 0x2c
   d7b2e:	fb96 f1f3 	sdiv	r1, r6, r3
    b   = x0 + sb / dy02;
   d7b32:	9b07      	ldr	r3, [sp, #28]
   d7b34:	fb95 f3f3 	sdiv	r3, r5, r3
   d7b38:	4413      	add	r3, r2
   d7b3a:	9a08      	ldr	r2, [sp, #32]
    /* longhand:
    a = x1 + (x2 - x1) * (y - y1) / (y2 - y1);
    b = x0 + (x2 - x0) * (y - y0) / (y2 - y0);
    */
    if(a > b) swap(a,b);
    drawFastHLine(a, y, b-a+1, color);
   d7b3c:	9805      	ldr	r0, [sp, #20]
   d7b3e:	9000      	str	r0, [sp, #0]
  // For lower part of triangle, find scanline crossings for segments
  // 0-2 and 1-2.  This loop is skipped if y1=y2.
  sa = dx12 * (y - y1);
  sb = dx02 * (y - y0);
  for(; y<=y2; y++) {
    a   = x1 + sa / dy12;
   d7b40:	4459      	add	r1, fp
   d7b42:	b209      	sxth	r1, r1
    b   = x0 + sb / dy02;
   d7b44:	b21b      	sxth	r3, r3
   d7b46:	4416      	add	r6, r2
   d7b48:	9a04      	ldr	r2, [sp, #16]
    sb += dx02;
    /* longhand:
    a = x1 + (x2 - x1) * (y - y1) / (y2 - y1);
    b = x0 + (x2 - x0) * (y - y0) / (y2 - y0);
    */
    if(a > b) swap(a,b);
   d7b4a:	4299      	cmp	r1, r3
   d7b4c:	4415      	add	r5, r2
   d7b4e:	bfc2      	ittt	gt
   d7b50:	460a      	movgt	r2, r1
   d7b52:	4619      	movgt	r1, r3
   d7b54:	4613      	movgt	r3, r2
    drawFastHLine(a, y, b-a+1, color);
   d7b56:	3301      	adds	r3, #1
   d7b58:	f8d9 2000 	ldr.w	r2, [r9]
   d7b5c:	1a5b      	subs	r3, r3, r1
   d7b5e:	f8d2 a01c 	ldr.w	sl, [r2, #28]
   d7b62:	b21b      	sxth	r3, r3
   d7b64:	463a      	mov	r2, r7
   d7b66:	4648      	mov	r0, r9
   d7b68:	3701      	adds	r7, #1
   d7b6a:	b236      	sxth	r6, r6
   d7b6c:	b22d      	sxth	r5, r5
   d7b6e:	47d0      	blx	sl
   d7b70:	b23f      	sxth	r7, r7

  // For lower part of triangle, find scanline crossings for segments
  // 0-2 and 1-2.  This loop is skipped if y1=y2.
  sa = dx12 * (y - y1);
  sb = dx02 * (y - y0);
  for(; y<=y2; y++) {
   d7b72:	e7d8      	b.n	d7b26 <_ZN12Adafruit_GFX12fillTriangleEsssssst+0x16c>

  // Sort coordinates by Y order (y2 >= y1 >= y0)
  if (y0 > y1) {
    swap(y0, y1); swap(x0, x1);
  }
  if (y1 > y2) {
   d7b74:	4690      	mov	r8, r2
   d7b76:	4601      	mov	r1, r0
   d7b78:	e74e      	b.n	d7a18 <_ZN12Adafruit_GFX12fillTriangleEsssssst+0x5e>
    b = x0 + (x2 - x0) * (y - y0) / (y2 - y0);
    */
    if(a > b) swap(a,b);
    drawFastHLine(a, y, b-a+1, color);
  }
}
   d7b7a:	b00d      	add	sp, #52	; 0x34
   d7b7c:	e8bd 8ff0 	ldmia.w	sp!, {r4, r5, r6, r7, r8, r9, sl, fp, pc}

000d7b80 <_ZN12Adafruit_GFX10drawBitmapEssPKhsst>:

void Adafruit_GFX::drawBitmap(int16_t x, int16_t y,
			      const uint8_t *bitmap, int16_t w, int16_t h,
			      uint16_t color) {
   d7b80:	e92d 4ff0 	stmdb	sp!, {r4, r5, r6, r7, r8, r9, sl, fp, lr}
   d7b84:	b087      	sub	sp, #28
   d7b86:	469a      	mov	sl, r3
   d7b88:	f9bd 3044 	ldrsh.w	r3, [sp, #68]	; 0x44
   d7b8c:	9302      	str	r3, [sp, #8]
   d7b8e:	e88d 0003 	stmia.w	sp, {r0, r1}
   d7b92:	f8bd 3048 	ldrh.w	r3, [sp, #72]	; 0x48
   d7b96:	f9bd 8040 	ldrsh.w	r8, [sp, #64]	; 0x40
   d7b9a:	9303      	str	r3, [sp, #12]

  int16_t i, j, byteWidth = (w + 7) / 8;
   d7b9c:	2400      	movs	r4, #0
   d7b9e:	2308      	movs	r3, #8
   d7ba0:	4625      	mov	r5, r4

  for(j=0; j<h; j++) {
    for(i=0; i<w; i++ ) {
      if(pgm_read_byte(bitmap + j * byteWidth + i / 8) & (128 >> (i & 7))) {
   d7ba2:	9305      	str	r3, [sp, #20]
  }
}

void Adafruit_GFX::drawBitmap(int16_t x, int16_t y,
			      const uint8_t *bitmap, int16_t w, int16_t h,
			      uint16_t color) {
   d7ba4:	4691      	mov	r9, r2
   d7ba6:	f108 0207 	add.w	r2, r8, #7
   d7baa:	fb92 fbf3 	sdiv	fp, r2, r3

  int16_t i, j, byteWidth = (w + 7) / 8;

  for(j=0; j<h; j++) {
   d7bae:	9a02      	ldr	r2, [sp, #8]
   d7bb0:	b22b      	sxth	r3, r5
   d7bb2:	429a      	cmp	r2, r3
   d7bb4:	dd25      	ble.n	d7c02 <_ZN12Adafruit_GFX10drawBitmapEssPKhsst+0x82>
    for(i=0; i<w; i++ ) {
      if(pgm_read_byte(bitmap + j * byteWidth + i / 8) & (128 >> (i & 7))) {
	drawPixel(x+i, y+j, color);
   d7bb6:	eb09 0305 	add.w	r3, r9, r5
   d7bba:	b21b      	sxth	r3, r3
   d7bbc:	2600      	movs	r6, #0
   d7bbe:	9304      	str	r3, [sp, #16]
   d7bc0:	b233      	sxth	r3, r6
			      uint16_t color) {

  int16_t i, j, byteWidth = (w + 7) / 8;

  for(j=0; j<h; j++) {
    for(i=0; i<w; i++ ) {
   d7bc2:	4543      	cmp	r3, r8
   d7bc4:	da1a      	bge.n	d7bfc <_ZN12Adafruit_GFX10drawBitmapEssPKhsst+0x7c>
      if(pgm_read_byte(bitmap + j * byteWidth + i / 8) & (128 >> (i & 7))) {
   d7bc6:	9a05      	ldr	r2, [sp, #20]
   d7bc8:	fb93 f3f2 	sdiv	r3, r3, r2
   d7bcc:	eb0a 0204 	add.w	r2, sl, r4
   d7bd0:	b2b1      	uxth	r1, r6
   d7bd2:	5cd2      	ldrb	r2, [r2, r3]
   d7bd4:	2080      	movs	r0, #128	; 0x80
   d7bd6:	f001 0307 	and.w	r3, r1, #7
   d7bda:	fa40 f303 	asr.w	r3, r0, r3
   d7bde:	421a      	tst	r2, r3
   d7be0:	d00a      	beq.n	d7bf8 <_ZN12Adafruit_GFX10drawBitmapEssPKhsst+0x78>
	drawPixel(x+i, y+j, color);
   d7be2:	9b01      	ldr	r3, [sp, #4]
   d7be4:	9a04      	ldr	r2, [sp, #16]
   d7be6:	9800      	ldr	r0, [sp, #0]
   d7be8:	4419      	add	r1, r3
   d7bea:	9b00      	ldr	r3, [sp, #0]
   d7bec:	681b      	ldr	r3, [r3, #0]
   d7bee:	691b      	ldr	r3, [r3, #16]
   d7bf0:	b209      	sxth	r1, r1
   d7bf2:	461f      	mov	r7, r3
   d7bf4:	9b03      	ldr	r3, [sp, #12]
   d7bf6:	47b8      	blx	r7
   d7bf8:	3601      	adds	r6, #1
			      uint16_t color) {

  int16_t i, j, byteWidth = (w + 7) / 8;

  for(j=0; j<h; j++) {
    for(i=0; i<w; i++ ) {
   d7bfa:	e7e1      	b.n	d7bc0 <_ZN12Adafruit_GFX10drawBitmapEssPKhsst+0x40>
   d7bfc:	3501      	adds	r5, #1
   d7bfe:	445c      	add	r4, fp
			      const uint8_t *bitmap, int16_t w, int16_t h,
			      uint16_t color) {

  int16_t i, j, byteWidth = (w + 7) / 8;

  for(j=0; j<h; j++) {
   d7c00:	e7d5      	b.n	d7bae <_ZN12Adafruit_GFX10drawBitmapEssPKhsst+0x2e>
      if(pgm_read_byte(bitmap + j * byteWidth + i / 8) & (128 >> (i & 7))) {
	drawPixel(x+i, y+j, color);
      }
    }
  }
}
   d7c02:	b007      	add	sp, #28
   d7c04:	e8bd 8ff0 	ldmia.w	sp!, {r4, r5, r6, r7, r8, r9, sl, fp, pc}

000d7c08 <_ZN12Adafruit_GFX8drawCharEsshtth>:
  return 1;
}

// Draw a character
void Adafruit_GFX::drawChar(int16_t x, int16_t y, unsigned char c,
			    uint16_t color, uint16_t bg, uint8_t size) {
   d7c08:	e92d 4ff0 	stmdb	sp!, {r4, r5, r6, r7, r8, r9, sl, fp, lr}
   d7c0c:	b08f      	sub	sp, #60	; 0x3c
   d7c0e:	4605      	mov	r5, r0
   d7c10:	9106      	str	r1, [sp, #24]
   d7c12:	f8bd 1060 	ldrh.w	r1, [sp, #96]	; 0x60
   d7c16:	9107      	str	r1, [sp, #28]
   d7c18:	f8bd 1064 	ldrh.w	r1, [sp, #100]	; 0x64
   d7c1c:	9108      	str	r1, [sp, #32]

  if((x >= _width)            || // Clip right
   d7c1e:	f9b0 100c 	ldrsh.w	r1, [r0, #12]
   d7c22:	9806      	ldr	r0, [sp, #24]
  return 1;
}

// Draw a character
void Adafruit_GFX::drawChar(int16_t x, int16_t y, unsigned char c,
			    uint16_t color, uint16_t bg, uint8_t size) {
   d7c24:	f89d 8068 	ldrb.w	r8, [sp, #104]	; 0x68

  if((x >= _width)            || // Clip right
   d7c28:	4281      	cmp	r1, r0
   d7c2a:	dd7c      	ble.n	d7d26 <_ZN12Adafruit_GFX8drawCharEsshtth+0x11e>
   d7c2c:	f9b5 100e 	ldrsh.w	r1, [r5, #14]
   d7c30:	4291      	cmp	r1, r2
   d7c32:	dd78      	ble.n	d7d26 <_ZN12Adafruit_GFX8drawCharEsshtth+0x11e>
     (y >= _height)           || // Clip bottom
     ((x + 6 * size - 1) < 0) || // Clip left
   d7c34:	2106      	movs	r1, #6
// Draw a character
void Adafruit_GFX::drawChar(int16_t x, int16_t y, unsigned char c,
			    uint16_t color, uint16_t bg, uint8_t size) {

  if((x >= _width)            || // Clip right
     (y >= _height)           || // Clip bottom
   d7c36:	fb11 0008 	smlabb	r0, r1, r8, r0
   d7c3a:	2800      	cmp	r0, #0
   d7c3c:	dd73      	ble.n	d7d26 <_ZN12Adafruit_GFX8drawCharEsshtth+0x11e>
     ((x + 6 * size - 1) < 0) || // Clip left
   d7c3e:	eb02 00c8 	add.w	r0, r2, r8, lsl #3
   d7c42:	2800      	cmp	r0, #0
   d7c44:	dd6f      	ble.n	d7d26 <_ZN12Adafruit_GFX8drawCharEsshtth+0x11e>
  for (int8_t i=0; i<6; i++ ) {
    uint8_t line;
    if (i == 5) 
      line = 0x0;
    else 
      line = pgm_read_byte(font+(c*5)+i);
   d7c46:	eb03 0383 	add.w	r3, r3, r3, lsl #2
   d7c4a:	b296      	uxth	r6, r2
   d7c4c:	930c      	str	r3, [sp, #48]	; 0x30
   d7c4e:	f106 0308 	add.w	r3, r6, #8
   d7c52:	b29b      	uxth	r3, r3
   d7c54:	9109      	str	r1, [sp, #36]	; 0x24
   d7c56:	2400      	movs	r4, #0
   d7c58:	930d      	str	r3, [sp, #52]	; 0x34
     ((y + 8 * size - 1) < 0))   // Clip top
    return;

  for (int8_t i=0; i<6; i++ ) {
    uint8_t line;
    if (i == 5) 
   d7c5a:	2c05      	cmp	r4, #5
      line = 0x0;
    else 
      line = pgm_read_byte(font+(c*5)+i);
   d7c5c:	bf1c      	itt	ne
   d7c5e:	4b33      	ldrne	r3, [pc, #204]	; (d7d2c <_ZN12Adafruit_GFX8drawCharEsshtth+0x124>)
   d7c60:	9a0c      	ldrne	r2, [sp, #48]	; 0x30
    for (int8_t j = 0; j<8; j++) {
      if (line & 0x1) {
        if (size == 1) // default size
          drawPixel(x+i, y+j, color);
        else {  // big size
          fillRect(x+(i*size), y+(j*size), size, size, color);
   d7c62:	9605      	str	r6, [sp, #20]
  for (int8_t i=0; i<6; i++ ) {
    uint8_t line;
    if (i == 5) 
      line = 0x0;
    else 
      line = pgm_read_byte(font+(c*5)+i);
   d7c64:	bf16      	itet	ne
   d7c66:	191b      	addne	r3, r3, r4
    return;

  for (int8_t i=0; i<6; i++ ) {
    uint8_t line;
    if (i == 5) 
      line = 0x0;
   d7c68:	f04f 0900 	moveq.w	r9, #0
    else 
      line = pgm_read_byte(font+(c*5)+i);
   d7c6c:	f813 9002 	ldrbne.w	r9, [r3, r2]
    for (int8_t j = 0; j<8; j++) {
      if (line & 0x1) {
        if (size == 1) // default size
          drawPixel(x+i, y+j, color);
        else {  // big size
          fillRect(x+(i*size), y+(j*size), size, size, color);
   d7c70:	9604      	str	r6, [sp, #16]
   d7c72:	fa1f f388 	uxth.w	r3, r8
   d7c76:	9303      	str	r3, [sp, #12]
   d7c78:	9a03      	ldr	r2, [sp, #12]
   d7c7a:	f8bd 3018 	ldrh.w	r3, [sp, #24]
   d7c7e:	fb04 3202 	mla	r2, r4, r2, r3
        } 
      } else if (bg != color) {
        if (size == 1) // default size
          drawPixel(x+i, y+j, bg);
   d7c82:	fa13 f384 	uxtah	r3, r3, r4
    for (int8_t j = 0; j<8; j++) {
      if (line & 0x1) {
        if (size == 1) // default size
          drawPixel(x+i, y+j, color);
        else {  // big size
          fillRect(x+(i*size), y+(j*size), size, size, color);
   d7c86:	b212      	sxth	r2, r2
        } 
      } else if (bg != color) {
        if (size == 1) // default size
          drawPixel(x+i, y+j, bg);
   d7c88:	b21b      	sxth	r3, r3
    for (int8_t j = 0; j<8; j++) {
      if (line & 0x1) {
        if (size == 1) // default size
          drawPixel(x+i, y+j, color);
        else {  // big size
          fillRect(x+(i*size), y+(j*size), size, size, color);
   d7c8a:	920a      	str	r2, [sp, #40]	; 0x28
   d7c8c:	4637      	mov	r7, r6
        } 
      } else if (bg != color) {
        if (size == 1) // default size
          drawPixel(x+i, y+j, bg);
        else {  // big size
          fillRect(x+i*size, y+j*size, size, size, bg);
   d7c8e:	fa0f fa88 	sxth.w	sl, r8
        else {  // big size
          fillRect(x+(i*size), y+(j*size), size, size, color);
        } 
      } else if (bg != color) {
        if (size == 1) // default size
          drawPixel(x+i, y+j, bg);
   d7c92:	930b      	str	r3, [sp, #44]	; 0x2c
    if (i == 5) 
      line = 0x0;
    else 
      line = pgm_read_byte(font+(c*5)+i);
    for (int8_t j = 0; j<8; j++) {
      if (line & 0x1) {
   d7c94:	f019 0f01 	tst.w	r9, #1
   d7c98:	d011      	beq.n	d7cbe <_ZN12Adafruit_GFX8drawCharEsshtth+0xb6>
        if (size == 1) // default size
   d7c9a:	f1b8 0f01 	cmp.w	r8, #1
   d7c9e:	682b      	ldr	r3, [r5, #0]
   d7ca0:	d103      	bne.n	d7caa <_ZN12Adafruit_GFX8drawCharEsshtth+0xa2>
          drawPixel(x+i, y+j, color);
   d7ca2:	f8d3 b010 	ldr.w	fp, [r3, #16]
   d7ca6:	9b07      	ldr	r3, [sp, #28]
   d7ca8:	e014      	b.n	d7cd4 <_ZN12Adafruit_GFX8drawCharEsshtth+0xcc>
        else {  // big size
          fillRect(x+(i*size), y+(j*size), size, size, color);
   d7caa:	9a07      	ldr	r2, [sp, #28]
   d7cac:	9201      	str	r2, [sp, #4]
   d7cae:	f8cd a000 	str.w	sl, [sp]
   d7cb2:	f8d3 b024 	ldr.w	fp, [r3, #36]	; 0x24
   d7cb6:	f9bd 2010 	ldrsh.w	r2, [sp, #16]
   d7cba:	4653      	mov	r3, sl
   d7cbc:	e018      	b.n	d7cf0 <_ZN12Adafruit_GFX8drawCharEsshtth+0xe8>
        } 
      } else if (bg != color) {
   d7cbe:	9b07      	ldr	r3, [sp, #28]
   d7cc0:	9a08      	ldr	r2, [sp, #32]
   d7cc2:	4293      	cmp	r3, r2
   d7cc4:	d017      	beq.n	d7cf6 <_ZN12Adafruit_GFX8drawCharEsshtth+0xee>
        if (size == 1) // default size
   d7cc6:	f1b8 0f01 	cmp.w	r8, #1
   d7cca:	682b      	ldr	r3, [r5, #0]
   d7ccc:	d107      	bne.n	d7cde <_ZN12Adafruit_GFX8drawCharEsshtth+0xd6>
          drawPixel(x+i, y+j, bg);
   d7cce:	f8d3 b010 	ldr.w	fp, [r3, #16]
   d7cd2:	4613      	mov	r3, r2
   d7cd4:	b23a      	sxth	r2, r7
   d7cd6:	990b      	ldr	r1, [sp, #44]	; 0x2c
   d7cd8:	4628      	mov	r0, r5
   d7cda:	47d8      	blx	fp
   d7cdc:	e00b      	b.n	d7cf6 <_ZN12Adafruit_GFX8drawCharEsshtth+0xee>
        else {  // big size
          fillRect(x+i*size, y+j*size, size, size, bg);
   d7cde:	9a08      	ldr	r2, [sp, #32]
   d7ce0:	9201      	str	r2, [sp, #4]
   d7ce2:	f8cd a000 	str.w	sl, [sp]
   d7ce6:	f9bd 2014 	ldrsh.w	r2, [sp, #20]
   d7cea:	f8d3 b024 	ldr.w	fp, [r3, #36]	; 0x24
   d7cee:	4653      	mov	r3, sl
   d7cf0:	990a      	ldr	r1, [sp, #40]	; 0x28
   d7cf2:	4628      	mov	r0, r5
   d7cf4:	47d8      	blx	fp
   d7cf6:	9b04      	ldr	r3, [sp, #16]
   d7cf8:	9a03      	ldr	r2, [sp, #12]
   d7cfa:	4413      	add	r3, r2
   d7cfc:	b29b      	uxth	r3, r3
   d7cfe:	9304      	str	r3, [sp, #16]
   d7d00:	9b05      	ldr	r3, [sp, #20]
   d7d02:	4413      	add	r3, r2
   d7d04:	b29b      	uxth	r3, r3
   d7d06:	3701      	adds	r7, #1
   d7d08:	9305      	str	r3, [sp, #20]
    uint8_t line;
    if (i == 5) 
      line = 0x0;
    else 
      line = pgm_read_byte(font+(c*5)+i);
    for (int8_t j = 0; j<8; j++) {
   d7d0a:	9b0d      	ldr	r3, [sp, #52]	; 0x34
   d7d0c:	b2bf      	uxth	r7, r7
   d7d0e:	429f      	cmp	r7, r3
          drawPixel(x+i, y+j, bg);
        else {  // big size
          fillRect(x+i*size, y+j*size, size, size, bg);
        }
      }
      line >>= 1;
   d7d10:	ea4f 0959 	mov.w	r9, r9, lsr #1
    uint8_t line;
    if (i == 5) 
      line = 0x0;
    else 
      line = pgm_read_byte(font+(c*5)+i);
    for (int8_t j = 0; j<8; j++) {
   d7d14:	d1be      	bne.n	d7c94 <_ZN12Adafruit_GFX8drawCharEsshtth+0x8c>
   d7d16:	9b09      	ldr	r3, [sp, #36]	; 0x24
   d7d18:	3b01      	subs	r3, #1
     (y >= _height)           || // Clip bottom
     ((x + 6 * size - 1) < 0) || // Clip left
     ((y + 8 * size - 1) < 0))   // Clip top
    return;

  for (int8_t i=0; i<6; i++ ) {
   d7d1a:	3401      	adds	r4, #1
   d7d1c:	f013 03ff 	ands.w	r3, r3, #255	; 0xff
   d7d20:	b264      	sxtb	r4, r4
   d7d22:	9309      	str	r3, [sp, #36]	; 0x24
   d7d24:	d199      	bne.n	d7c5a <_ZN12Adafruit_GFX8drawCharEsshtth+0x52>
        }
      }
      line >>= 1;
    }
  }
}
   d7d26:	b00f      	add	sp, #60	; 0x3c
   d7d28:	e8bd 8ff0 	ldmia.w	sp!, {r4, r5, r6, r7, r8, r9, sl, fp, pc}
   d7d2c:	000ddb20 	.word	0x000ddb20

000d7d30 <_ZN12Adafruit_GFX5writeEh>:
      }
    }
  }
}

size_t Adafruit_GFX::write(uint8_t c) {
   d7d30:	b530      	push	{r4, r5, lr}

  if (c == '\n') {
   d7d32:	290a      	cmp	r1, #10
      }
    }
  }
}

size_t Adafruit_GFX::write(uint8_t c) {
   d7d34:	b085      	sub	sp, #20
   d7d36:	4604      	mov	r4, r0
   d7d38:	460b      	mov	r3, r1

  if (c == '\n') {
   d7d3a:	d104      	bne.n	d7d46 <_ZN12Adafruit_GFX5writeEh+0x16>
    cursor_y += textsize*8;
   d7d3c:	7e02      	ldrb	r2, [r0, #24]
   d7d3e:	8a43      	ldrh	r3, [r0, #18]
   d7d40:	eb03 03c2 	add.w	r3, r3, r2, lsl #3
   d7d44:	e023      	b.n	d7d8e <_ZN12Adafruit_GFX5writeEh+0x5e>
    cursor_x  = 0;
  } else if (c == '\r') {
   d7d46:	290d      	cmp	r1, #13
   d7d48:	d024      	beq.n	d7d94 <_ZN12Adafruit_GFX5writeEh+0x64>
    // skip em
  } else {
    drawChar(cursor_x, cursor_y, c, textcolor, textbgcolor, textsize);
   d7d4a:	7e05      	ldrb	r5, [r0, #24]
   d7d4c:	f9b0 2012 	ldrsh.w	r2, [r0, #18]
   d7d50:	f9b0 1010 	ldrsh.w	r1, [r0, #16]
   d7d54:	9502      	str	r5, [sp, #8]
   d7d56:	8ac5      	ldrh	r5, [r0, #22]
   d7d58:	9501      	str	r5, [sp, #4]
   d7d5a:	8a85      	ldrh	r5, [r0, #20]
   d7d5c:	9500      	str	r5, [sp, #0]
   d7d5e:	f7ff ff53 	bl	d7c08 <_ZN12Adafruit_GFX8drawCharEsshtth>
    cursor_x += textsize*6;
   d7d62:	7e22      	ldrb	r2, [r4, #24]
   d7d64:	8a23      	ldrh	r3, [r4, #16]
   d7d66:	b291      	uxth	r1, r2
   d7d68:	eb01 0041 	add.w	r0, r1, r1, lsl #1
   d7d6c:	eb03 0340 	add.w	r3, r3, r0, lsl #1
    if (wrap && (cursor_x > (_width - textsize*6))) {
   d7d70:	7ea0      	ldrb	r0, [r4, #26]
    cursor_x  = 0;
  } else if (c == '\r') {
    // skip em
  } else {
    drawChar(cursor_x, cursor_y, c, textcolor, textbgcolor, textsize);
    cursor_x += textsize*6;
   d7d72:	b21b      	sxth	r3, r3
   d7d74:	8223      	strh	r3, [r4, #16]
    if (wrap && (cursor_x > (_width - textsize*6))) {
   d7d76:	b168      	cbz	r0, d7d94 <_ZN12Adafruit_GFX5writeEh+0x64>
   d7d78:	f9b4 000c 	ldrsh.w	r0, [r4, #12]
   d7d7c:	f06f 0505 	mvn.w	r5, #5
   d7d80:	fb05 0202 	mla	r2, r5, r2, r0
   d7d84:	4293      	cmp	r3, r2
   d7d86:	dd05      	ble.n	d7d94 <_ZN12Adafruit_GFX5writeEh+0x64>
      cursor_y += textsize*8;
   d7d88:	8a63      	ldrh	r3, [r4, #18]
   d7d8a:	eb03 03c1 	add.w	r3, r3, r1, lsl #3
   d7d8e:	8263      	strh	r3, [r4, #18]
      cursor_x = 0;
   d7d90:	2300      	movs	r3, #0
   d7d92:	8223      	strh	r3, [r4, #16]
    }
  }
  return 1;
}
   d7d94:	2001      	movs	r0, #1
   d7d96:	b005      	add	sp, #20
   d7d98:	bd30      	pop	{r4, r5, pc}

000d7d9a <_ZN12Adafruit_GFX9setCursorEss>:
    }
  }
}

void Adafruit_GFX::setCursor(int16_t x, int16_t y) {
  cursor_x = x;
   d7d9a:	8201      	strh	r1, [r0, #16]
  cursor_y = y;
   d7d9c:	8242      	strh	r2, [r0, #18]
   d7d9e:	4770      	bx	lr

000d7da0 <_ZN12Adafruit_GFX11setTextSizeEh>:
}

void Adafruit_GFX::setTextSize(uint8_t s) {
  textsize = (s > 0) ? s : 1;
   d7da0:	2900      	cmp	r1, #0
   d7da2:	bf08      	it	eq
   d7da4:	2101      	moveq	r1, #1
   d7da6:	7601      	strb	r1, [r0, #24]
   d7da8:	4770      	bx	lr

000d7daa <_ZN12Adafruit_GFX12setTextColorEt>:
}

void Adafruit_GFX::setTextColor(uint16_t c) {
  // For 'transparent' background, we'll set the bg 
  // to the same as fg instead of using a flag
  textcolor = textbgcolor = c;
   d7daa:	82c1      	strh	r1, [r0, #22]
   d7dac:	8281      	strh	r1, [r0, #20]
   d7dae:	4770      	bx	lr

000d7db0 <_ZN12Adafruit_GFX11setTextWrapEb>:
  textcolor   = c;
  textbgcolor = b; 
}

void Adafruit_GFX::setTextWrap(boolean w) {
  wrap = w;
   d7db0:	7681      	strb	r1, [r0, #26]
   d7db2:	4770      	bx	lr

000d7db4 <_ZN12Adafruit_GFX11getRotationEv>:
}

uint8_t Adafruit_GFX::getRotation(void) {
  return rotation;
}
   d7db4:	7e40      	ldrb	r0, [r0, #25]
   d7db6:	4770      	bx	lr

000d7db8 <_ZN12Adafruit_GFX5widthEv>:
}

// Return the size of the display (per current rotation)
int16_t Adafruit_GFX::width(void) {
  return _width;
}
   d7db8:	f9b0 000c 	ldrsh.w	r0, [r0, #12]
   d7dbc:	4770      	bx	lr

000d7dbe <_ZN12Adafruit_GFX6heightEv>:
 
int16_t Adafruit_GFX::height(void) {
  return _height;
}
   d7dbe:	f9b0 000e 	ldrsh.w	r0, [r0, #14]
   d7dc2:	4770      	bx	lr

000d7dc4 <_ZN16Adafruit_SSD130613drawFastHLineEssst>:
  } else {
    shiftOut(sid, sclk, MSBFIRST, d);		// SSD1306 specs show MSB out first
  }
}

void Adafruit_SSD1306::drawFastHLine(int16_t x, int16_t y, int16_t w, uint16_t color) {
   d7dc4:	b5f0      	push	{r4, r5, r6, r7, lr}
  boolean bSwap = false;
  switch(rotation) { 
   d7dc6:	7e44      	ldrb	r4, [r0, #25]
  } else {
    shiftOut(sid, sclk, MSBFIRST, d);		// SSD1306 specs show MSB out first
  }
}

void Adafruit_SSD1306::drawFastHLine(int16_t x, int16_t y, int16_t w, uint16_t color) {
   d7dc8:	f8bd 5014 	ldrh.w	r5, [sp, #20]
  boolean bSwap = false;
  switch(rotation) { 
   d7dcc:	2c02      	cmp	r4, #2
   d7dce:	d008      	beq.n	d7de2 <_ZN16Adafruit_SSD130613drawFastHLineEssst+0x1e>
   d7dd0:	2c03      	cmp	r4, #3
   d7dd2:	d00f      	beq.n	d7df4 <_ZN16Adafruit_SSD130613drawFastHLineEssst+0x30>
   d7dd4:	2c01      	cmp	r4, #1
   d7dd6:	d170      	bne.n	d7eba <_ZN16Adafruit_SSD130613drawFastHLineEssst+0xf6>
      break;
    case 1:
      // 90 degree rotation, swap x & y for rotation, then invert x
      bSwap = true;
      swap(x, y);
      x = WIDTH - x - 1;
   d7dd8:	8904      	ldrh	r4, [r0, #8]
   d7dda:	3c01      	subs	r4, #1
   d7ddc:	1aa2      	subs	r2, r4, r2
   d7dde:	b212      	sxth	r2, r2
      break;
   d7de0:	e00c      	b.n	d7dfc <_ZN16Adafruit_SSD130613drawFastHLineEssst+0x38>
    case 2:
      // 180 degree rotation, invert x and y - then shift y around for height.
      x = WIDTH - x - 1;
      y = HEIGHT - y - 1;
   d7de2:	8944      	ldrh	r4, [r0, #10]
   d7de4:	3c01      	subs	r4, #1
   d7de6:	1aa2      	subs	r2, r4, r2
      x -= (w-1);
   d7de8:	8904      	ldrh	r4, [r0, #8]
   d7dea:	1ae4      	subs	r4, r4, r3
   d7dec:	1a61      	subs	r1, r4, r1
      x = WIDTH - x - 1;
      break;
    case 2:
      // 180 degree rotation, invert x and y - then shift y around for height.
      x = WIDTH - x - 1;
      y = HEIGHT - y - 1;
   d7dee:	b212      	sxth	r2, r2
      x -= (w-1);
   d7df0:	b209      	sxth	r1, r1
      break;
   d7df2:	e062      	b.n	d7eba <_ZN16Adafruit_SSD130613drawFastHLineEssst+0xf6>
    case 3:
      // 270 degree rotation, swap x & y for rotation, then invert y  and adjust y for w (not to become h)
      bSwap = true;
      swap(x, y);
      y = HEIGHT - y - 1;
      y -= (w-1);
   d7df4:	8944      	ldrh	r4, [r0, #10]
   d7df6:	1ae4      	subs	r4, r4, r3
   d7df8:	1a61      	subs	r1, r4, r1
   d7dfa:	b209      	sxth	r1, r1


void Adafruit_SSD1306::drawFastVLineInternal(int16_t x, int16_t __y, int16_t __h, uint16_t color) {

  // do nothing if we're off the left or right side of the screen
  if(x < 0 || x >= WIDTH) { return; }
   d7dfc:	2a00      	cmp	r2, #0
   d7dfe:	db5b      	blt.n	d7eb8 <_ZN16Adafruit_SSD130613drawFastHLineEssst+0xf4>
   d7e00:	f9b0 4008 	ldrsh.w	r4, [r0, #8]
   d7e04:	4294      	cmp	r4, r2
   d7e06:	f340 8090 	ble.w	d7f2a <_ZN16Adafruit_SSD130613drawFastHLineEssst+0x166>

  // make sure we don't try to draw below 0
  if(__y < 0) { 
   d7e0a:	2900      	cmp	r1, #0
    // __y is negative, this will subtract enough from __h to account for __y being 0
    __h += __y;
   d7e0c:	bfbe      	ittt	lt
   d7e0e:	185b      	addlt	r3, r3, r1
   d7e10:	b21b      	sxthlt	r3, r3
    __y = 0;
   d7e12:	2100      	movlt	r1, #0

  } 

  // make sure we don't go past the height of the display
  if( (__y + __h) > HEIGHT) { 
   d7e14:	f9b0 000a 	ldrsh.w	r0, [r0, #10]
   d7e18:	18cc      	adds	r4, r1, r3
   d7e1a:	4284      	cmp	r4, r0
    __h = (HEIGHT - __y);
   d7e1c:	bfc4      	itt	gt
   d7e1e:	1a43      	subgt	r3, r0, r1
   d7e20:	b21b      	sxthgt	r3, r3
  }

  // if our height is now negative, punt 
  if(__h <= 0) { 
   d7e22:	2b00      	cmp	r3, #0
   d7e24:	f340 8081 	ble.w	d7f2a <_ZN16Adafruit_SSD130613drawFastHLineEssst+0x166>
    return;
  }

  // this display doesn't need ints for coordinates, use local byte registers for faster juggling
  register uint8_t y = __y;
   d7e28:	b2c9      	uxtb	r1, r1


  // set up the pointer for fast movement through the buffer
  register uint8_t *pBuf = buffer;
  // adjust the buffer pointer for the current row
  pBuf += ((y/8) * SSD1306_LCDWIDTH);
   d7e2a:	08c8      	lsrs	r0, r1, #3
  // and offset x columns in
  pBuf += x;
   d7e2c:	4f3f      	ldr	r7, [pc, #252]	; (d7f2c <_ZN16Adafruit_SSD130613drawFastHLineEssst+0x168>)
   d7e2e:	eb02 12c0 	add.w	r2, r2, r0, lsl #7

  // do the first partial byte, if necessary - this requires some masking
  register uint8_t mod = (y&7);
  if(mod) {
   d7e32:	f011 0107 	ands.w	r1, r1, #7
    return;
  }

  // this display doesn't need ints for coordinates, use local byte registers for faster juggling
  register uint8_t y = __y;
  register uint8_t h = __h;
   d7e36:	b2db      	uxtb	r3, r3
  // set up the pointer for fast movement through the buffer
  register uint8_t *pBuf = buffer;
  // adjust the buffer pointer for the current row
  pBuf += ((y/8) * SSD1306_LCDWIDTH);
  // and offset x columns in
  pBuf += x;
   d7e38:	eb07 0402 	add.w	r4, r7, r2

  // do the first partial byte, if necessary - this requires some masking
  register uint8_t mod = (y&7);
  if(mod) {
   d7e3c:	d017      	beq.n	d7e6e <_ZN16Adafruit_SSD130613drawFastHLineEssst+0xaa>
    // mask off the high n bits we want to set 
    mod = 8-mod;
   d7e3e:	f1c1 0108 	rsb	r1, r1, #8
   d7e42:	b2c8      	uxtb	r0, r1

    // note - lookup table results in a nearly 10% performance improvement in fill* functions
    // register uint8_t mask = ~(0xFF >> (mod));
    static uint8_t premask[8] = {0x00, 0x80, 0xC0, 0xE0, 0xF0, 0xF8, 0xFC, 0xFE };
    register uint8_t mask = premask[mod];
   d7e44:	493a      	ldr	r1, [pc, #232]	; (d7f30 <_ZN16Adafruit_SSD130613drawFastHLineEssst+0x16c>)

    // adjust the mask if we're not going to reach the end of this byte
    if( h < mod) { 
   d7e46:	4283      	cmp	r3, r0
    mod = 8-mod;

    // note - lookup table results in a nearly 10% performance improvement in fill* functions
    // register uint8_t mask = ~(0xFF >> (mod));
    static uint8_t premask[8] = {0x00, 0x80, 0xC0, 0xE0, 0xF0, 0xF8, 0xFC, 0xFE };
    register uint8_t mask = premask[mod];
   d7e48:	5c0e      	ldrb	r6, [r1, r0]

    // adjust the mask if we're not going to reach the end of this byte
    if( h < mod) { 
      mask &= (0XFF >> (mod-h));
   d7e4a:	bf3f      	itttt	cc
   d7e4c:	ebc3 0e00 	rsbcc	lr, r3, r0
   d7e50:	21ff      	movcc	r1, #255	; 0xff
   d7e52:	fa41 f10e 	asrcc.w	r1, r1, lr
   d7e56:	400e      	andcc	r6, r1
   d7e58:	5cb9      	ldrb	r1, [r7, r2]
    }

    if(color == WHITE) { 
   d7e5a:	2d01      	cmp	r5, #1
      *pBuf |= mask;
   d7e5c:	bf0c      	ite	eq
   d7e5e:	4331      	orreq	r1, r6
    } else {
      *pBuf &= ~mask;
   d7e60:	43b1      	bicne	r1, r6
    }

    // fast exit if we're done here!
    if(h<mod) { return; }
   d7e62:	4283      	cmp	r3, r0
    }

    if(color == WHITE) { 
      *pBuf |= mask;
    } else {
      *pBuf &= ~mask;
   d7e64:	54b9      	strb	r1, [r7, r2]
    }

    // fast exit if we're done here!
    if(h<mod) { return; }
   d7e66:	d360      	bcc.n	d7f2a <_ZN16Adafruit_SSD130613drawFastHLineEssst+0x166>

    h -= mod;
   d7e68:	1a18      	subs	r0, r3, r0
   d7e6a:	b2c3      	uxtb	r3, r0

    pBuf += SSD1306_LCDWIDTH;
   d7e6c:	3480      	adds	r4, #128	; 0x80
  }


  // write solid bytes while we can - effectively doing 8 rows at a time
  if(h >= 8) { 
   d7e6e:	2b07      	cmp	r3, #7
   d7e70:	d917      	bls.n	d7ea2 <_ZN16Adafruit_SSD130613drawFastHLineEssst+0xde>
    // store a local value to work with 
    register uint8_t val = (color == WHITE) ? 255 : 0;
   d7e72:	2d01      	cmp	r5, #1
   d7e74:	bf0c      	ite	eq
   d7e76:	20ff      	moveq	r0, #255	; 0xff
   d7e78:	2000      	movne	r0, #0
   d7e7a:	f104 0180 	add.w	r1, r4, #128	; 0x80
   d7e7e:	461a      	mov	r2, r3

      // adjust the buffer forward 8 rows worth of data
      pBuf += SSD1306_LCDWIDTH;

      // adjust h & y (there's got to be a faster way for me to do this, but this should still help a fair bit for now)
      h -= 8;
   d7e80:	3a08      	subs	r2, #8
   d7e82:	b2d2      	uxtb	r2, r2
    } while(h >= 8);
   d7e84:	2a07      	cmp	r2, #7
    // store a local value to work with 
    register uint8_t val = (color == WHITE) ? 255 : 0;

    do  {
      // write our value in
      *pBuf = val;
   d7e86:	f801 0c80 	strb.w	r0, [r1, #-128]
   d7e8a:	f101 0180 	add.w	r1, r1, #128	; 0x80
      // adjust the buffer forward 8 rows worth of data
      pBuf += SSD1306_LCDWIDTH;

      // adjust h & y (there's got to be a faster way for me to do this, but this should still help a fair bit for now)
      h -= 8;
    } while(h >= 8);
   d7e8e:	d8f7      	bhi.n	d7e80 <_ZN16Adafruit_SSD130613drawFastHLineEssst+0xbc>
   d7e90:	f1a3 0208 	sub.w	r2, r3, #8
   d7e94:	f3c2 02c4 	ubfx	r2, r2, #3, #5
   d7e98:	3201      	adds	r2, #1
   d7e9a:	eb04 14c2 	add.w	r4, r4, r2, lsl #7
   d7e9e:	f003 0307 	and.w	r3, r3, #7
  }

  // now do the final partial byte, if necessary
  if(h) {
   d7ea2:	2b00      	cmp	r3, #0
   d7ea4:	d041      	beq.n	d7f2a <_ZN16Adafruit_SSD130613drawFastHLineEssst+0x166>
    mod = h & 7;
    // this time we want to mask the low bits of the byte, vs the high bits we did above
    // register uint8_t mask = (1 << mod) - 1;
    // note - lookup table results in a nearly 10% performance improvement in fill* functions
    static uint8_t postmask[8] = {0x00, 0x01, 0x03, 0x07, 0x0F, 0x1F, 0x3F, 0x7F };
    register uint8_t mask = postmask[mod];
   d7ea6:	4a23      	ldr	r2, [pc, #140]	; (d7f34 <_ZN16Adafruit_SSD130613drawFastHLineEssst+0x170>)
   d7ea8:	5cd2      	ldrb	r2, [r2, r3]
   d7eaa:	7823      	ldrb	r3, [r4, #0]
    if(color == WHITE) { 
   d7eac:	2d01      	cmp	r5, #1
      *pBuf |= mask;
   d7eae:	bf0c      	ite	eq
   d7eb0:	4313      	orreq	r3, r2
    } else { 
      *pBuf &= ~mask;
   d7eb2:	4393      	bicne	r3, r2
   d7eb4:	7023      	strb	r3, [r4, #0]
   d7eb6:	bdf0      	pop	{r4, r5, r6, r7, pc}
   d7eb8:	bdf0      	pop	{r4, r5, r6, r7, pc}
  }
}

void Adafruit_SSD1306::drawFastHLineInternal(int16_t x, int16_t y, int16_t w, uint16_t color) {
  // Do bounds/limit checks
  if(y < 0 || y >= HEIGHT) { return; }
   d7eba:	2a00      	cmp	r2, #0
   d7ebc:	db35      	blt.n	d7f2a <_ZN16Adafruit_SSD130613drawFastHLineEssst+0x166>
   d7ebe:	f9b0 400a 	ldrsh.w	r4, [r0, #10]
   d7ec2:	4294      	cmp	r4, r2
   d7ec4:	dd31      	ble.n	d7f2a <_ZN16Adafruit_SSD130613drawFastHLineEssst+0x166>

  // make sure we don't try to draw below 0
  if(x < 0) { 
   d7ec6:	2900      	cmp	r1, #0
    w += x;
   d7ec8:	bfbc      	itt	lt
   d7eca:	18c9      	addlt	r1, r1, r3
   d7ecc:	b20b      	sxthlt	r3, r1
    x = 0;
  }

  // make sure we don't go off the edge of the display
  if( (x + w) > WIDTH) { 
   d7ece:	f9b0 7008 	ldrsh.w	r7, [r0, #8]
  if(y < 0 || y >= HEIGHT) { return; }

  // make sure we don't try to draw below 0
  if(x < 0) { 
    w += x;
    x = 0;
   d7ed2:	bfb8      	it	lt
   d7ed4:	2100      	movlt	r1, #0
  }

  // make sure we don't go off the edge of the display
  if( (x + w) > WIDTH) { 
   d7ed6:	18ce      	adds	r6, r1, r3
   d7ed8:	42be      	cmp	r6, r7
    w = (HEIGHT- x);
   d7eda:	bfc4      	itt	gt
   d7edc:	1a63      	subgt	r3, r4, r1
   d7ede:	b21b      	sxthgt	r3, r3
  }

  // if our width is now negative, punt
  if(w <= 0) { return; }
   d7ee0:	2b00      	cmp	r3, #0
   d7ee2:	dd22      	ble.n	d7f2a <_ZN16Adafruit_SSD130613drawFastHLineEssst+0x166>

  // set up the pointer for  movement through the buffer
  register uint8_t *pBuf = buffer;
  // adjust the buffer pointer for the current row
  pBuf += ((y/8) * SSD1306_LCDWIDTH);
   d7ee4:	10d0      	asrs	r0, r2, #3
  // and offset x columns in
  pBuf += x;
   d7ee6:	eb01 11c0 	add.w	r1, r1, r0, lsl #7
   d7eea:	4810      	ldr	r0, [pc, #64]	; (d7f2c <_ZN16Adafruit_SSD130613drawFastHLineEssst+0x168>)

  register uint8_t mask = 1 << (y&7);
   d7eec:	f002 0207 	and.w	r2, r2, #7
  // set up the pointer for  movement through the buffer
  register uint8_t *pBuf = buffer;
  // adjust the buffer pointer for the current row
  pBuf += ((y/8) * SSD1306_LCDWIDTH);
  // and offset x columns in
  pBuf += x;
   d7ef0:	4401      	add	r1, r0

  register uint8_t mask = 1 << (y&7);
   d7ef2:	2001      	movs	r0, #1
   d7ef4:	fa00 f202 	lsl.w	r2, r0, r2

  if(color == WHITE) { 
   d7ef8:	4285      	cmp	r5, r0
  // adjust the buffer pointer for the current row
  pBuf += ((y/8) * SSD1306_LCDWIDTH);
  // and offset x columns in
  pBuf += x;

  register uint8_t mask = 1 << (y&7);
   d7efa:	b2d2      	uxtb	r2, r2

  if(color == WHITE) { 
   d7efc:	d109      	bne.n	d7f12 <_ZN16Adafruit_SSD130613drawFastHLineEssst+0x14e>
   d7efe:	3b01      	subs	r3, #1
   d7f00:	b21b      	sxth	r3, r3
    while(w--) { *pBuf++ |= mask; }
   d7f02:	1c5c      	adds	r4, r3, #1
   d7f04:	d011      	beq.n	d7f2a <_ZN16Adafruit_SSD130613drawFastHLineEssst+0x166>
   d7f06:	f811 0b01 	ldrb.w	r0, [r1], #1
   d7f0a:	4310      	orrs	r0, r2
   d7f0c:	f801 0c01 	strb.w	r0, [r1, #-1]
   d7f10:	e7f5      	b.n	d7efe <_ZN16Adafruit_SSD130613drawFastHLineEssst+0x13a>
  } else {
    mask = ~mask;
   d7f12:	43d2      	mvns	r2, r2
   d7f14:	b2d2      	uxtb	r2, r2
   d7f16:	3b01      	subs	r3, #1
   d7f18:	b21b      	sxth	r3, r3
    while(w--) { *pBuf++ &= mask; }
   d7f1a:	1c58      	adds	r0, r3, #1
   d7f1c:	d005      	beq.n	d7f2a <_ZN16Adafruit_SSD130613drawFastHLineEssst+0x166>
   d7f1e:	f811 0b01 	ldrb.w	r0, [r1], #1
   d7f22:	4010      	ands	r0, r2
   d7f24:	f801 0c01 	strb.w	r0, [r1, #-1]
   d7f28:	e7f5      	b.n	d7f16 <_ZN16Adafruit_SSD130613drawFastHLineEssst+0x152>
   d7f2a:	bdf0      	pop	{r4, r5, r6, r7, pc}
   d7f2c:	2003dcc4 	.word	0x2003dcc4
   d7f30:	2003dcbc 	.word	0x2003dcbc
   d7f34:	2003dcb4 	.word	0x2003dcb4

000d7f38 <_ZN16Adafruit_SSD130613drawFastVLineEssst>:
  }
}

void Adafruit_SSD1306::drawFastVLine(int16_t x, int16_t y, int16_t h, uint16_t color) {
   d7f38:	b5f0      	push	{r4, r5, r6, r7, lr}
  bool bSwap = false;
  switch(rotation) { 
   d7f3a:	7e44      	ldrb	r4, [r0, #25]
    mask = ~mask;
    while(w--) { *pBuf++ &= mask; }
  }
}

void Adafruit_SSD1306::drawFastVLine(int16_t x, int16_t y, int16_t h, uint16_t color) {
   d7f3c:	f8bd 5014 	ldrh.w	r5, [sp, #20]
  bool bSwap = false;
  switch(rotation) { 
   d7f40:	2c02      	cmp	r4, #2
   d7f42:	d008      	beq.n	d7f56 <_ZN16Adafruit_SSD130613drawFastVLineEssst+0x1e>
   d7f44:	2c03      	cmp	r4, #3
   d7f46:	d00f      	beq.n	d7f68 <_ZN16Adafruit_SSD130613drawFastVLineEssst+0x30>
   d7f48:	2c01      	cmp	r4, #1
   d7f4a:	d112      	bne.n	d7f72 <_ZN16Adafruit_SSD130613drawFastVLineEssst+0x3a>
    case 1:
      // 90 degree rotation, swap x & y for rotation, then invert x and adjust x for h (now to become w)
      bSwap = true;
      swap(x, y);
      x = WIDTH - x - 1;
      x -= (h-1);
   d7f4c:	8904      	ldrh	r4, [r0, #8]
   d7f4e:	1ae4      	subs	r4, r4, r3
   d7f50:	1aa2      	subs	r2, r4, r2
   d7f52:	b212      	sxth	r2, r2
      break;
   d7f54:	e06d      	b.n	d8032 <_ZN16Adafruit_SSD130613drawFastVLineEssst+0xfa>
    case 2:
      // 180 degree rotation, invert x and y - then shift y around for height.
      x = WIDTH - x - 1;
   d7f56:	8904      	ldrh	r4, [r0, #8]
   d7f58:	3c01      	subs	r4, #1
   d7f5a:	1a61      	subs	r1, r4, r1
      y = HEIGHT - y - 1;
      y -= (h-1);
   d7f5c:	8944      	ldrh	r4, [r0, #10]
   d7f5e:	1ae4      	subs	r4, r4, r3
   d7f60:	1aa2      	subs	r2, r4, r2
      x = WIDTH - x - 1;
      x -= (h-1);
      break;
    case 2:
      // 180 degree rotation, invert x and y - then shift y around for height.
      x = WIDTH - x - 1;
   d7f62:	b209      	sxth	r1, r1
      y = HEIGHT - y - 1;
      y -= (h-1);
   d7f64:	b212      	sxth	r2, r2
      break;
   d7f66:	e004      	b.n	d7f72 <_ZN16Adafruit_SSD130613drawFastVLineEssst+0x3a>
    case 3:
      // 270 degree rotation, swap x & y for rotation, then invert y 
      bSwap = true;
      swap(x, y);
      y = HEIGHT - y - 1;
   d7f68:	8944      	ldrh	r4, [r0, #10]
   d7f6a:	3c01      	subs	r4, #1
   d7f6c:	1a61      	subs	r1, r4, r1
   d7f6e:	b209      	sxth	r1, r1
      break;
   d7f70:	e05f      	b.n	d8032 <_ZN16Adafruit_SSD130613drawFastVLineEssst+0xfa>


void Adafruit_SSD1306::drawFastVLineInternal(int16_t x, int16_t __y, int16_t __h, uint16_t color) {

  // do nothing if we're off the left or right side of the screen
  if(x < 0 || x >= WIDTH) { return; }
   d7f72:	2900      	cmp	r1, #0
   d7f74:	db5c      	blt.n	d8030 <_ZN16Adafruit_SSD130613drawFastVLineEssst+0xf8>
   d7f76:	f9b0 4008 	ldrsh.w	r4, [r0, #8]
   d7f7a:	428c      	cmp	r4, r1
   d7f7c:	f340 8091 	ble.w	d80a2 <_ZN16Adafruit_SSD130613drawFastVLineEssst+0x16a>

  // make sure we don't try to draw below 0
  if(__y < 0) { 
   d7f80:	2a00      	cmp	r2, #0
    // __y is negative, this will subtract enough from __h to account for __y being 0
    __h += __y;
   d7f82:	bfbc      	itt	lt
   d7f84:	18d2      	addlt	r2, r2, r3
   d7f86:	b213      	sxthlt	r3, r2
    __y = 0;

  } 

  // make sure we don't go past the height of the display
  if( (__y + __h) > HEIGHT) { 
   d7f88:	f9b0 000a 	ldrsh.w	r0, [r0, #10]

  // make sure we don't try to draw below 0
  if(__y < 0) { 
    // __y is negative, this will subtract enough from __h to account for __y being 0
    __h += __y;
    __y = 0;
   d7f8c:	bfb8      	it	lt
   d7f8e:	2200      	movlt	r2, #0

  } 

  // make sure we don't go past the height of the display
  if( (__y + __h) > HEIGHT) { 
   d7f90:	18d4      	adds	r4, r2, r3
   d7f92:	4284      	cmp	r4, r0
    __h = (HEIGHT - __y);
   d7f94:	bfc4      	itt	gt
   d7f96:	1a83      	subgt	r3, r0, r2
   d7f98:	b21b      	sxthgt	r3, r3
  }

  // if our height is now negative, punt 
  if(__h <= 0) { 
   d7f9a:	2b00      	cmp	r3, #0
   d7f9c:	f340 8081 	ble.w	d80a2 <_ZN16Adafruit_SSD130613drawFastVLineEssst+0x16a>
    return;
  }

  // this display doesn't need ints for coordinates, use local byte registers for faster juggling
  register uint8_t y = __y;
   d7fa0:	b2d4      	uxtb	r4, r2
  // set up the pointer for fast movement through the buffer
  register uint8_t *pBuf = buffer;
  // adjust the buffer pointer for the current row
  pBuf += ((y/8) * SSD1306_LCDWIDTH);
  // and offset x columns in
  pBuf += x;
   d7fa2:	4e40      	ldr	r6, [pc, #256]	; (d80a4 <_ZN16Adafruit_SSD130613drawFastVLineEssst+0x16c>)
    return;
  }

  // this display doesn't need ints for coordinates, use local byte registers for faster juggling
  register uint8_t y = __y;
  register uint8_t h = __h;
   d7fa4:	b2da      	uxtb	r2, r3


  // set up the pointer for fast movement through the buffer
  register uint8_t *pBuf = buffer;
  // adjust the buffer pointer for the current row
  pBuf += ((y/8) * SSD1306_LCDWIDTH);
   d7fa6:	08e3      	lsrs	r3, r4, #3
  // and offset x columns in
  pBuf += x;
   d7fa8:	eb01 11c3 	add.w	r1, r1, r3, lsl #7

  // do the first partial byte, if necessary - this requires some masking
  register uint8_t mod = (y&7);
  if(mod) {
   d7fac:	f014 0407 	ands.w	r4, r4, #7
  // set up the pointer for fast movement through the buffer
  register uint8_t *pBuf = buffer;
  // adjust the buffer pointer for the current row
  pBuf += ((y/8) * SSD1306_LCDWIDTH);
  // and offset x columns in
  pBuf += x;
   d7fb0:	eb06 0301 	add.w	r3, r6, r1

  // do the first partial byte, if necessary - this requires some masking
  register uint8_t mod = (y&7);
  if(mod) {
   d7fb4:	d017      	beq.n	d7fe6 <_ZN16Adafruit_SSD130613drawFastVLineEssst+0xae>
    // mask off the high n bits we want to set 
    mod = 8-mod;
   d7fb6:	f1c4 0408 	rsb	r4, r4, #8
   d7fba:	b2e0      	uxtb	r0, r4

    // note - lookup table results in a nearly 10% performance improvement in fill* functions
    // register uint8_t mask = ~(0xFF >> (mod));
    static uint8_t premask[8] = {0x00, 0x80, 0xC0, 0xE0, 0xF0, 0xF8, 0xFC, 0xFE };
    register uint8_t mask = premask[mod];
   d7fbc:	4c3a      	ldr	r4, [pc, #232]	; (d80a8 <_ZN16Adafruit_SSD130613drawFastVLineEssst+0x170>)

    // adjust the mask if we're not going to reach the end of this byte
    if( h < mod) { 
   d7fbe:	4282      	cmp	r2, r0
    mod = 8-mod;

    // note - lookup table results in a nearly 10% performance improvement in fill* functions
    // register uint8_t mask = ~(0xFF >> (mod));
    static uint8_t premask[8] = {0x00, 0x80, 0xC0, 0xE0, 0xF0, 0xF8, 0xFC, 0xFE };
    register uint8_t mask = premask[mod];
   d7fc0:	5c27      	ldrb	r7, [r4, r0]

    // adjust the mask if we're not going to reach the end of this byte
    if( h < mod) { 
      mask &= (0XFF >> (mod-h));
   d7fc2:	bf3f      	itttt	cc
   d7fc4:	ebc2 0e00 	rsbcc	lr, r2, r0
   d7fc8:	24ff      	movcc	r4, #255	; 0xff
   d7fca:	fa44 f40e 	asrcc.w	r4, r4, lr
   d7fce:	4027      	andcc	r7, r4
   d7fd0:	5c74      	ldrb	r4, [r6, r1]
    }

    if(color == WHITE) { 
   d7fd2:	2d01      	cmp	r5, #1
      *pBuf |= mask;
   d7fd4:	bf0c      	ite	eq
   d7fd6:	433c      	orreq	r4, r7
    } else {
      *pBuf &= ~mask;
   d7fd8:	43bc      	bicne	r4, r7
    }

    // fast exit if we're done here!
    if(h<mod) { return; }
   d7fda:	4282      	cmp	r2, r0
    }

    if(color == WHITE) { 
      *pBuf |= mask;
    } else {
      *pBuf &= ~mask;
   d7fdc:	5474      	strb	r4, [r6, r1]
    }

    // fast exit if we're done here!
    if(h<mod) { return; }
   d7fde:	d360      	bcc.n	d80a2 <_ZN16Adafruit_SSD130613drawFastVLineEssst+0x16a>

    h -= mod;
   d7fe0:	1a10      	subs	r0, r2, r0
   d7fe2:	b2c2      	uxtb	r2, r0

    pBuf += SSD1306_LCDWIDTH;
   d7fe4:	3380      	adds	r3, #128	; 0x80
  }


  // write solid bytes while we can - effectively doing 8 rows at a time
  if(h >= 8) { 
   d7fe6:	2a07      	cmp	r2, #7
   d7fe8:	d917      	bls.n	d801a <_ZN16Adafruit_SSD130613drawFastVLineEssst+0xe2>
    // store a local value to work with 
    register uint8_t val = (color == WHITE) ? 255 : 0;
   d7fea:	2d01      	cmp	r5, #1
   d7fec:	bf0c      	ite	eq
   d7fee:	24ff      	moveq	r4, #255	; 0xff
   d7ff0:	2400      	movne	r4, #0
   d7ff2:	f103 0080 	add.w	r0, r3, #128	; 0x80
   d7ff6:	4611      	mov	r1, r2

      // adjust the buffer forward 8 rows worth of data
      pBuf += SSD1306_LCDWIDTH;

      // adjust h & y (there's got to be a faster way for me to do this, but this should still help a fair bit for now)
      h -= 8;
   d7ff8:	3908      	subs	r1, #8
   d7ffa:	b2c9      	uxtb	r1, r1
    } while(h >= 8);
   d7ffc:	2907      	cmp	r1, #7
    // store a local value to work with 
    register uint8_t val = (color == WHITE) ? 255 : 0;

    do  {
      // write our value in
      *pBuf = val;
   d7ffe:	f800 4c80 	strb.w	r4, [r0, #-128]
   d8002:	f100 0080 	add.w	r0, r0, #128	; 0x80
      // adjust the buffer forward 8 rows worth of data
      pBuf += SSD1306_LCDWIDTH;

      // adjust h & y (there's got to be a faster way for me to do this, but this should still help a fair bit for now)
      h -= 8;
    } while(h >= 8);
   d8006:	d8f7      	bhi.n	d7ff8 <_ZN16Adafruit_SSD130613drawFastVLineEssst+0xc0>
   d8008:	f1a2 0108 	sub.w	r1, r2, #8
   d800c:	f3c1 01c4 	ubfx	r1, r1, #3, #5
   d8010:	3101      	adds	r1, #1
   d8012:	eb03 13c1 	add.w	r3, r3, r1, lsl #7
   d8016:	f002 0207 	and.w	r2, r2, #7
  }

  // now do the final partial byte, if necessary
  if(h) {
   d801a:	2a00      	cmp	r2, #0
   d801c:	d041      	beq.n	d80a2 <_ZN16Adafruit_SSD130613drawFastVLineEssst+0x16a>
    mod = h & 7;
    // this time we want to mask the low bits of the byte, vs the high bits we did above
    // register uint8_t mask = (1 << mod) - 1;
    // note - lookup table results in a nearly 10% performance improvement in fill* functions
    static uint8_t postmask[8] = {0x00, 0x01, 0x03, 0x07, 0x0F, 0x1F, 0x3F, 0x7F };
    register uint8_t mask = postmask[mod];
   d801e:	4923      	ldr	r1, [pc, #140]	; (d80ac <_ZN16Adafruit_SSD130613drawFastVLineEssst+0x174>)
   d8020:	5c89      	ldrb	r1, [r1, r2]
   d8022:	781a      	ldrb	r2, [r3, #0]
    if(color == WHITE) { 
   d8024:	2d01      	cmp	r5, #1
      *pBuf |= mask;
   d8026:	bf0c      	ite	eq
   d8028:	430a      	orreq	r2, r1
    } else { 
      *pBuf &= ~mask;
   d802a:	438a      	bicne	r2, r1
   d802c:	701a      	strb	r2, [r3, #0]
  if(bSwap) { 
    drawFastHLineInternal(x, y, h, color);
  } else {
    drawFastVLineInternal(x, y, h, color);
  }
}
   d802e:	bdf0      	pop	{r4, r5, r6, r7, pc}
   d8030:	bdf0      	pop	{r4, r5, r6, r7, pc}
  }
}

void Adafruit_SSD1306::drawFastHLineInternal(int16_t x, int16_t y, int16_t w, uint16_t color) {
  // Do bounds/limit checks
  if(y < 0 || y >= HEIGHT) { return; }
   d8032:	2900      	cmp	r1, #0
   d8034:	db35      	blt.n	d80a2 <_ZN16Adafruit_SSD130613drawFastVLineEssst+0x16a>
   d8036:	f9b0 400a 	ldrsh.w	r4, [r0, #10]
   d803a:	428c      	cmp	r4, r1
   d803c:	dd31      	ble.n	d80a2 <_ZN16Adafruit_SSD130613drawFastVLineEssst+0x16a>

  // make sure we don't try to draw below 0
  if(x < 0) { 
   d803e:	2a00      	cmp	r2, #0
    w += x;
   d8040:	bfbc      	itt	lt
   d8042:	18d2      	addlt	r2, r2, r3
   d8044:	b213      	sxthlt	r3, r2
    x = 0;
  }

  // make sure we don't go off the edge of the display
  if( (x + w) > WIDTH) { 
   d8046:	f9b0 7008 	ldrsh.w	r7, [r0, #8]
  if(y < 0 || y >= HEIGHT) { return; }

  // make sure we don't try to draw below 0
  if(x < 0) { 
    w += x;
    x = 0;
   d804a:	bfb8      	it	lt
   d804c:	2200      	movlt	r2, #0
  }

  // make sure we don't go off the edge of the display
  if( (x + w) > WIDTH) { 
   d804e:	18d6      	adds	r6, r2, r3
   d8050:	42be      	cmp	r6, r7
    w = (HEIGHT- x);
   d8052:	bfc4      	itt	gt
   d8054:	1aa3      	subgt	r3, r4, r2
   d8056:	b21b      	sxthgt	r3, r3
  }

  // if our width is now negative, punt
  if(w <= 0) { return; }
   d8058:	2b00      	cmp	r3, #0
   d805a:	dd22      	ble.n	d80a2 <_ZN16Adafruit_SSD130613drawFastVLineEssst+0x16a>

  // set up the pointer for  movement through the buffer
  register uint8_t *pBuf = buffer;
  // adjust the buffer pointer for the current row
  pBuf += ((y/8) * SSD1306_LCDWIDTH);
   d805c:	10c8      	asrs	r0, r1, #3
  // and offset x columns in
  pBuf += x;
   d805e:	eb02 12c0 	add.w	r2, r2, r0, lsl #7
   d8062:	4810      	ldr	r0, [pc, #64]	; (d80a4 <_ZN16Adafruit_SSD130613drawFastVLineEssst+0x16c>)

  register uint8_t mask = 1 << (y&7);
   d8064:	f001 0107 	and.w	r1, r1, #7
  // set up the pointer for  movement through the buffer
  register uint8_t *pBuf = buffer;
  // adjust the buffer pointer for the current row
  pBuf += ((y/8) * SSD1306_LCDWIDTH);
  // and offset x columns in
  pBuf += x;
   d8068:	4410      	add	r0, r2

  register uint8_t mask = 1 << (y&7);
   d806a:	2201      	movs	r2, #1
   d806c:	fa02 f101 	lsl.w	r1, r2, r1

  if(color == WHITE) { 
   d8070:	4295      	cmp	r5, r2
  // adjust the buffer pointer for the current row
  pBuf += ((y/8) * SSD1306_LCDWIDTH);
  // and offset x columns in
  pBuf += x;

  register uint8_t mask = 1 << (y&7);
   d8072:	b2c9      	uxtb	r1, r1

  if(color == WHITE) { 
   d8074:	d109      	bne.n	d808a <_ZN16Adafruit_SSD130613drawFastVLineEssst+0x152>
   d8076:	1e5a      	subs	r2, r3, #1
   d8078:	b213      	sxth	r3, r2
    while(w--) { *pBuf++ |= mask; }
   d807a:	1c5c      	adds	r4, r3, #1
   d807c:	d011      	beq.n	d80a2 <_ZN16Adafruit_SSD130613drawFastVLineEssst+0x16a>
   d807e:	f810 2b01 	ldrb.w	r2, [r0], #1
   d8082:	430a      	orrs	r2, r1
   d8084:	f800 2c01 	strb.w	r2, [r0, #-1]
   d8088:	e7f5      	b.n	d8076 <_ZN16Adafruit_SSD130613drawFastVLineEssst+0x13e>
  } else {
    mask = ~mask;
   d808a:	43c9      	mvns	r1, r1
   d808c:	b2c9      	uxtb	r1, r1
   d808e:	1e5a      	subs	r2, r3, #1
   d8090:	b213      	sxth	r3, r2
    while(w--) { *pBuf++ &= mask; }
   d8092:	1c5a      	adds	r2, r3, #1
   d8094:	d005      	beq.n	d80a2 <_ZN16Adafruit_SSD130613drawFastVLineEssst+0x16a>
   d8096:	f810 2b01 	ldrb.w	r2, [r0], #1
   d809a:	400a      	ands	r2, r1
   d809c:	f800 2c01 	strb.w	r2, [r0, #-1]
   d80a0:	e7f5      	b.n	d808e <_ZN16Adafruit_SSD130613drawFastVLineEssst+0x156>
   d80a2:	bdf0      	pop	{r4, r5, r6, r7, pc}
   d80a4:	2003dcc4 	.word	0x2003dcc4
   d80a8:	2003dcbc 	.word	0x2003dcbc
   d80ac:	2003dcb4 	.word	0x2003dcb4

000d80b0 <_ZN16Adafruit_SSD130612fastSPIwriteEh.isra.1>:
void Adafruit_SSD1306::clearDisplay(void) {
  memset(buffer, 0, (SSD1306_LCDWIDTH*SSD1306_LCDHEIGHT/8));
}


inline void Adafruit_SSD1306::fastSPIwrite(uint8_t d) {
   d80b0:	b410      	push	{r4}
  
  if(hwSPI) {
   d80b2:	b12a      	cbz	r2, d80c0 <_ZN16Adafruit_SSD130612fastSPIwriteEh.isra.1+0x10>
    (void)SPI.transfer(d);
   d80b4:	4619      	mov	r1, r3
   d80b6:	4806      	ldr	r0, [pc, #24]	; (d80d0 <_ZN16Adafruit_SSD130612fastSPIwriteEh.isra.1+0x20>)
  } else {
    shiftOut(sid, sclk, MSBFIRST, d);		// SSD1306 specs show MSB out first
  }
}
   d80b8:	f85d 4b04 	ldr.w	r4, [sp], #4


inline void Adafruit_SSD1306::fastSPIwrite(uint8_t d) {
  
  if(hwSPI) {
    (void)SPI.transfer(d);
   d80bc:	f002 b83e 	b.w	da13c <_ZN8SPIClass8transferEh>
  } else {
    shiftOut(sid, sclk, MSBFIRST, d);		// SSD1306 specs show MSB out first
   d80c0:	2201      	movs	r2, #1
   d80c2:	b2c9      	uxtb	r1, r1
   d80c4:	b2c0      	uxtb	r0, r0
  }
}
   d80c6:	f85d 4b04 	ldr.w	r4, [sp], #4
inline void Adafruit_SSD1306::fastSPIwrite(uint8_t d) {
  
  if(hwSPI) {
    (void)SPI.transfer(d);
  } else {
    shiftOut(sid, sclk, MSBFIRST, d);		// SSD1306 specs show MSB out first
   d80ca:	f002 bfc1 	b.w	db050 <shiftOut>
   d80ce:	bf00      	nop
   d80d0:	2003e740 	.word	0x2003e740

000d80d4 <_ZN16Adafruit_SSD13069drawPixelEsst>:
};



// the most basic function, set a single pixel
void Adafruit_SSD1306::drawPixel(int16_t x, int16_t y, uint16_t color) {
   d80d4:	b5f8      	push	{r3, r4, r5, r6, r7, lr}
  if ((x < 0) || (x >= width()) || (y < 0) || (y >= height()))
   d80d6:	1e0d      	subs	r5, r1, #0
};



// the most basic function, set a single pixel
void Adafruit_SSD1306::drawPixel(int16_t x, int16_t y, uint16_t color) {
   d80d8:	4606      	mov	r6, r0
   d80da:	4614      	mov	r4, r2
   d80dc:	461f      	mov	r7, r3
  if ((x < 0) || (x >= width()) || (y < 0) || (y >= height()))
   d80de:	db3f      	blt.n	d8160 <_ZN16Adafruit_SSD13069drawPixelEsst+0x8c>
   d80e0:	f7ff fe6a 	bl	d7db8 <_ZN12Adafruit_GFX5widthEv>
   d80e4:	4285      	cmp	r5, r0
   d80e6:	da3b      	bge.n	d8160 <_ZN16Adafruit_SSD13069drawPixelEsst+0x8c>
   d80e8:	2c00      	cmp	r4, #0
   d80ea:	db39      	blt.n	d8160 <_ZN16Adafruit_SSD13069drawPixelEsst+0x8c>
   d80ec:	4630      	mov	r0, r6
   d80ee:	f7ff fe66 	bl	d7dbe <_ZN12Adafruit_GFX6heightEv>
   d80f2:	4284      	cmp	r4, r0
   d80f4:	da34      	bge.n	d8160 <_ZN16Adafruit_SSD13069drawPixelEsst+0x8c>
    return;

  // check rotation, move pixel around if necessary
  switch (getRotation()) {
   d80f6:	4630      	mov	r0, r6
   d80f8:	f7ff fe5c 	bl	d7db4 <_ZN12Adafruit_GFX11getRotationEv>
   d80fc:	2802      	cmp	r0, #2
   d80fe:	d127      	bne.n	d8150 <_ZN16Adafruit_SSD13069drawPixelEsst+0x7c>
  case 1:
    swap(x, y);
    x = WIDTH - x - 1;
    break;
  case 2:
    x = WIDTH - x - 1;
   d8100:	8931      	ldrh	r1, [r6, #8]
    y = HEIGHT - y - 1;
   d8102:	8970      	ldrh	r0, [r6, #10]
  case 1:
    swap(x, y);
    x = WIDTH - x - 1;
    break;
  case 2:
    x = WIDTH - x - 1;
   d8104:	3901      	subs	r1, #1
    y = HEIGHT - y - 1;
   d8106:	3801      	subs	r0, #1
  case 1:
    swap(x, y);
    x = WIDTH - x - 1;
    break;
  case 2:
    x = WIDTH - x - 1;
   d8108:	1b49      	subs	r1, r1, r5
    y = HEIGHT - y - 1;
   d810a:	1b00      	subs	r0, r0, r4
  case 1:
    swap(x, y);
    x = WIDTH - x - 1;
    break;
  case 2:
    x = WIDTH - x - 1;
   d810c:	b20d      	sxth	r5, r1
    y = HEIGHT - y - 1;
   d810e:	b204      	sxth	r4, r0
   d8110:	e006      	b.n	d8120 <_ZN16Adafruit_SSD13069drawPixelEsst+0x4c>
void Adafruit_SSD1306::drawPixel(int16_t x, int16_t y, uint16_t color) {
  if ((x < 0) || (x >= width()) || (y < 0) || (y >= height()))
    return;

  // check rotation, move pixel around if necessary
  switch (getRotation()) {
   d8112:	2801      	cmp	r0, #1
   d8114:	d104      	bne.n	d8120 <_ZN16Adafruit_SSD13069drawPixelEsst+0x4c>
  case 1:
    swap(x, y);
    x = WIDTH - x - 1;
   d8116:	8933      	ldrh	r3, [r6, #8]
   d8118:	3b01      	subs	r3, #1
   d811a:	1b1b      	subs	r3, r3, r4
   d811c:	462c      	mov	r4, r5
   d811e:	b21d      	sxth	r5, r3
   d8120:	2008      	movs	r0, #8
    y = HEIGHT - y - 1;
    break;
  }  

  // x is which column
  if (color == WHITE) 
   d8122:	2f01      	cmp	r7, #1
    buffer[x+ (y/8)*SSD1306_LCDWIDTH] |= (1 << (y&7));  
   d8124:	fb94 f0f0 	sdiv	r0, r4, r0
   d8128:	b200      	sxth	r0, r0
   d812a:	4b0e      	ldr	r3, [pc, #56]	; (d8164 <_ZN16Adafruit_SSD13069drawPixelEsst+0x90>)
   d812c:	f004 0207 	and.w	r2, r4, #7
   d8130:	eb05 11c0 	add.w	r1, r5, r0, lsl #7
    y = HEIGHT - y - 1;
    break;
  }  

  // x is which column
  if (color == WHITE) 
   d8134:	d104      	bne.n	d8140 <_ZN16Adafruit_SSD13069drawPixelEsst+0x6c>
    buffer[x+ (y/8)*SSD1306_LCDWIDTH] |= (1 << (y&7));  
   d8136:	4097      	lsls	r7, r2
   d8138:	5c5a      	ldrb	r2, [r3, r1]
   d813a:	4317      	orrs	r7, r2
   d813c:	545f      	strb	r7, [r3, r1]
   d813e:	bdf8      	pop	{r3, r4, r5, r6, r7, pc}
  else
    buffer[x+ (y/8)*SSD1306_LCDWIDTH] &= ~(1 << (y&7)); 
   d8140:	5c58      	ldrb	r0, [r3, r1]
   d8142:	2701      	movs	r7, #1
   d8144:	fa07 f202 	lsl.w	r2, r7, r2
   d8148:	ea20 0202 	bic.w	r2, r0, r2
   d814c:	545a      	strb	r2, [r3, r1]
   d814e:	bdf8      	pop	{r3, r4, r5, r6, r7, pc}
void Adafruit_SSD1306::drawPixel(int16_t x, int16_t y, uint16_t color) {
  if ((x < 0) || (x >= width()) || (y < 0) || (y >= height()))
    return;

  // check rotation, move pixel around if necessary
  switch (getRotation()) {
   d8150:	2803      	cmp	r0, #3
   d8152:	d1de      	bne.n	d8112 <_ZN16Adafruit_SSD13069drawPixelEsst+0x3e>
    x = WIDTH - x - 1;
    y = HEIGHT - y - 1;
    break;
  case 3:
    swap(x, y);
    y = HEIGHT - y - 1;
   d8154:	8973      	ldrh	r3, [r6, #10]
   d8156:	3b01      	subs	r3, #1
   d8158:	1b5b      	subs	r3, r3, r5
   d815a:	4625      	mov	r5, r4
   d815c:	b21c      	sxth	r4, r3
   d815e:	e7df      	b.n	d8120 <_ZN16Adafruit_SSD13069drawPixelEsst+0x4c>
   d8160:	bdf8      	pop	{r3, r4, r5, r6, r7, pc}
   d8162:	bf00      	nop
   d8164:	2003dcc4 	.word	0x2003dcc4

000d8168 <_ZN16Adafruit_SSD1306C1Ea>:
  cs = CS;
  hwSPI = true;
}

// initializer for I2C - we only indicate the reset pin!
Adafruit_SSD1306::Adafruit_SSD1306(int8_t reset) :
   d8168:	b538      	push	{r3, r4, r5, lr}
Adafruit_GFX(SSD1306_LCDWIDTH, SSD1306_LCDHEIGHT) {
   d816a:	2240      	movs	r2, #64	; 0x40
  cs = CS;
  hwSPI = true;
}

// initializer for I2C - we only indicate the reset pin!
Adafruit_SSD1306::Adafruit_SSD1306(int8_t reset) :
   d816c:	4604      	mov	r4, r0
   d816e:	460d      	mov	r5, r1
Adafruit_GFX(SSD1306_LCDWIDTH, SSD1306_LCDHEIGHT) {
   d8170:	2180      	movs	r1, #128	; 0x80
   d8172:	f7ff f8db 	bl	d732c <_ZN12Adafruit_GFXC1Ess>
   d8176:	4b06      	ldr	r3, [pc, #24]	; (d8190 <_ZN16Adafruit_SSD1306C1Ea+0x28>)
   d8178:	6023      	str	r3, [r4, #0]
  sclk = dc = cs = sid = -1;
   d817a:	23ff      	movs	r3, #255	; 0xff
   d817c:	7763      	strb	r3, [r4, #29]
   d817e:	f884 3021 	strb.w	r3, [r4, #33]	; 0x21
   d8182:	77e3      	strb	r3, [r4, #31]
   d8184:	77a3      	strb	r3, [r4, #30]
  rst = reset;
   d8186:	f884 5020 	strb.w	r5, [r4, #32]
}
   d818a:	4620      	mov	r0, r4
   d818c:	bd38      	pop	{r3, r4, r5, pc}
   d818e:	bf00      	nop
   d8190:	000de024 	.word	0x000de024

000d8194 <_ZN16Adafruit_SSD130615ssd1306_commandEh>:
  } else {
    ssd1306_command(SSD1306_NORMALDISPLAY);
  }
}

void Adafruit_SSD1306::ssd1306_command(uint8_t c) { 
   d8194:	b538      	push	{r3, r4, r5, lr}
  if (sid != -1)
   d8196:	f990 301d 	ldrsb.w	r3, [r0, #29]
   d819a:	3301      	adds	r3, #1
  } else {
    ssd1306_command(SSD1306_NORMALDISPLAY);
  }
}

void Adafruit_SSD1306::ssd1306_command(uint8_t c) { 
   d819c:	4604      	mov	r4, r0
   d819e:	460d      	mov	r5, r1
  if (sid != -1)
   d81a0:	d022      	beq.n	d81e8 <_ZN16Adafruit_SSD130615ssd1306_commandEh+0x54>
  {
    // SPI
    digitalWrite(cs, HIGH);
   d81a2:	f990 0021 	ldrsb.w	r0, [r0, #33]	; 0x21
   d81a6:	2101      	movs	r1, #1
   d81a8:	b280      	uxth	r0, r0
   d81aa:	f002 fee8 	bl	daf7e <digitalWrite>
    digitalWrite(dc, LOW);
   d81ae:	f994 001f 	ldrsb.w	r0, [r4, #31]
   d81b2:	2100      	movs	r1, #0
   d81b4:	b280      	uxth	r0, r0
   d81b6:	f002 fee2 	bl	daf7e <digitalWrite>
    digitalWrite(cs, LOW);
   d81ba:	f994 0021 	ldrsb.w	r0, [r4, #33]	; 0x21
   d81be:	2100      	movs	r1, #0
   d81c0:	b280      	uxth	r0, r0
   d81c2:	f002 fedc 	bl	daf7e <digitalWrite>
    fastSPIwrite(c);
   d81c6:	f994 101e 	ldrsb.w	r1, [r4, #30]
   d81ca:	f994 001d 	ldrsb.w	r0, [r4, #29]
   d81ce:	f894 2022 	ldrb.w	r2, [r4, #34]	; 0x22
   d81d2:	462b      	mov	r3, r5
   d81d4:	f7ff ff6c 	bl	d80b0 <_ZN16Adafruit_SSD130612fastSPIwriteEh.isra.1>
    digitalWrite(cs, HIGH);
   d81d8:	f994 0021 	ldrsb.w	r0, [r4, #33]	; 0x21
   d81dc:	2101      	movs	r1, #1
   d81de:	b280      	uxth	r0, r0
    Wire.beginTransmission(_i2caddr);
    Wire.write(control);
    Wire.write(c);
    Wire.endTransmission();
  }
}
   d81e0:	e8bd 4038 	ldmia.w	sp!, {r3, r4, r5, lr}
    // SPI
    digitalWrite(cs, HIGH);
    digitalWrite(dc, LOW);
    digitalWrite(cs, LOW);
    fastSPIwrite(c);
    digitalWrite(cs, HIGH);
   d81e4:	f002 becb 	b.w	daf7e <digitalWrite>
  }
  else
  {
    // I2C
    uint8_t control = 0x00;   // Co = 0, D/C = 0
    Wire.beginTransmission(_i2caddr);
   d81e8:	f002 ff6a 	bl	db0c0 <_Z19__fetch_global_Wirev>
   d81ec:	f994 101b 	ldrsb.w	r1, [r4, #27]
   d81f0:	f001 fbaa 	bl	d9948 <_ZN7TwoWire17beginTransmissionEi>
    Wire.write(control);
   d81f4:	f002 ff64 	bl	db0c0 <_Z19__fetch_global_Wirev>
   d81f8:	6803      	ldr	r3, [r0, #0]
   d81fa:	2100      	movs	r1, #0
   d81fc:	689b      	ldr	r3, [r3, #8]
   d81fe:	4798      	blx	r3
    Wire.write(c);
   d8200:	f002 ff5e 	bl	db0c0 <_Z19__fetch_global_Wirev>
   d8204:	6803      	ldr	r3, [r0, #0]
   d8206:	4629      	mov	r1, r5
   d8208:	689b      	ldr	r3, [r3, #8]
   d820a:	4798      	blx	r3
    Wire.endTransmission();
   d820c:	f002 ff58 	bl	db0c0 <_Z19__fetch_global_Wirev>
  }
}
   d8210:	e8bd 4038 	ldmia.w	sp!, {r3, r4, r5, lr}
    // I2C
    uint8_t control = 0x00;   // Co = 0, D/C = 0
    Wire.beginTransmission(_i2caddr);
    Wire.write(control);
    Wire.write(c);
    Wire.endTransmission();
   d8214:	f001 bb9f 	b.w	d9956 <_ZN7TwoWire15endTransmissionEv>

000d8218 <_ZN16Adafruit_SSD13065beginEhh>:
  sclk = dc = cs = sid = -1;
  rst = reset;
}
  

void Adafruit_SSD1306::begin(uint8_t vccstate, uint8_t i2caddr) {
   d8218:	b538      	push	{r3, r4, r5, lr}
   d821a:	4604      	mov	r4, r0
   d821c:	460d      	mov	r5, r1
  _vccstate = vccstate;
   d821e:	7721      	strb	r1, [r4, #28]
  _i2caddr = i2caddr;

  // set pin directions
  if (sid != -1){
   d8220:	f990 301d 	ldrsb.w	r3, [r0, #29]
}
  

void Adafruit_SSD1306::begin(uint8_t vccstate, uint8_t i2caddr) {
  _vccstate = vccstate;
  _i2caddr = i2caddr;
   d8224:	76c2      	strb	r2, [r0, #27]

  // set pin directions
  if (sid != -1){
   d8226:	3301      	adds	r3, #1
   d8228:	d033      	beq.n	d8292 <_ZN16Adafruit_SSD13065beginEhh+0x7a>
    pinMode(dc, OUTPUT);
   d822a:	f990 001f 	ldrsb.w	r0, [r0, #31]
   d822e:	2101      	movs	r1, #1
   d8230:	b280      	uxth	r0, r0
   d8232:	f002 fe93 	bl	daf5c <pinMode>
    pinMode(cs, OUTPUT);
   d8236:	f994 0021 	ldrsb.w	r0, [r4, #33]	; 0x21
   d823a:	2101      	movs	r1, #1
   d823c:	b280      	uxth	r0, r0
   d823e:	f002 fe8d 	bl	daf5c <pinMode>
    if (!hwSPI){
   d8242:	f894 3022 	ldrb.w	r3, [r4, #34]	; 0x22
   d8246:	b95b      	cbnz	r3, d8260 <_ZN16Adafruit_SSD13065beginEhh+0x48>
    	// set pins for software-SPI
    	pinMode(sid, OUTPUT);
   d8248:	f994 001d 	ldrsb.w	r0, [r4, #29]
   d824c:	2101      	movs	r1, #1
   d824e:	b280      	uxth	r0, r0
   d8250:	f002 fe84 	bl	daf5c <pinMode>
    	pinMode(sclk, OUTPUT);
   d8254:	f994 001e 	ldrsb.w	r0, [r4, #30]
   d8258:	2101      	movs	r1, #1
   d825a:	b280      	uxth	r0, r0
   d825c:	f002 fe7e 	bl	daf5c <pinMode>
    	}
    if (hwSPI){
   d8260:	f894 3022 	ldrb.w	r3, [r4, #34]	; 0x22
   d8264:	b1cb      	cbz	r3, d829a <_ZN16Adafruit_SSD13065beginEhh+0x82>
        digitalWrite(cs, HIGH);
   d8266:	f994 0021 	ldrsb.w	r0, [r4, #33]	; 0x21
   d826a:	2101      	movs	r1, #1
   d826c:	b280      	uxth	r0, r0
   d826e:	f002 fe86 	bl	daf7e <digitalWrite>
        SPI.setBitOrder(MSBFIRST);
   d8272:	2101      	movs	r1, #1
   d8274:	484f      	ldr	r0, [pc, #316]	; (d83b4 <_ZN16Adafruit_SSD13065beginEhh+0x19c>)
   d8276:	f001 ff00 	bl	da07a <_ZN8SPIClass11setBitOrderEh>
        SPI.setClockDivider(SPI_CLOCK_DIV8);	// 72MHz / 8 = 9Mhz
   d827a:	2110      	movs	r1, #16
   d827c:	484d      	ldr	r0, [pc, #308]	; (d83b4 <_ZN16Adafruit_SSD13065beginEhh+0x19c>)
   d827e:	f001 ff49 	bl	da114 <_ZN8SPIClass15setClockDividerEh>
        SPI.setDataMode(0);
   d8282:	2100      	movs	r1, #0
   d8284:	484b      	ldr	r0, [pc, #300]	; (d83b4 <_ZN16Adafruit_SSD13065beginEhh+0x19c>)
   d8286:	f001 fefb 	bl	da080 <_ZN8SPIClass11setDataModeEh>
        SPI.begin();	
   d828a:	484a      	ldr	r0, [pc, #296]	; (d83b4 <_ZN16Adafruit_SSD13065beginEhh+0x19c>)
   d828c:	f001 fef0 	bl	da070 <_ZN8SPIClass5beginEv>
   d8290:	e003      	b.n	d829a <_ZN16Adafruit_SSD13065beginEhh+0x82>
    	}
    }
  else
  {
    // I2C Init
    Wire.begin();
   d8292:	f002 ff15 	bl	db0c0 <_Z19__fetch_global_Wirev>
   d8296:	f001 fb3f 	bl	d9918 <_ZN7TwoWire5beginEv>
  }

  // Setup reset pin direction (used by both SPI and I2C)  
  pinMode(rst, OUTPUT);
   d829a:	f994 0020 	ldrsb.w	r0, [r4, #32]
   d829e:	2101      	movs	r1, #1
   d82a0:	b280      	uxth	r0, r0
   d82a2:	f002 fe5b 	bl	daf5c <pinMode>
  digitalWrite(rst, HIGH);
   d82a6:	f994 0020 	ldrsb.w	r0, [r4, #32]
   d82aa:	2101      	movs	r1, #1
   d82ac:	b280      	uxth	r0, r0
   d82ae:	f002 fe66 	bl	daf7e <digitalWrite>
  // VDD (3.3V) goes high at start, lets just chill for a ms
  delay(1);
   d82b2:	2001      	movs	r0, #1
   d82b4:	f001 f80c 	bl	d92d0 <delay>
  // bring reset low
  digitalWrite(rst, LOW);
   d82b8:	f994 0020 	ldrsb.w	r0, [r4, #32]
   d82bc:	2100      	movs	r1, #0
   d82be:	b280      	uxth	r0, r0
   d82c0:	f002 fe5d 	bl	daf7e <digitalWrite>
  // wait 10ms
  delay(10);
   d82c4:	200a      	movs	r0, #10
   d82c6:	f001 f803 	bl	d92d0 <delay>
  // bring out of reset
  digitalWrite(rst, HIGH);
   d82ca:	f994 0020 	ldrsb.w	r0, [r4, #32]
   d82ce:	2101      	movs	r1, #1
   d82d0:	b280      	uxth	r0, r0
   d82d2:	f002 fe54 	bl	daf7e <digitalWrite>
    ssd1306_command(SSD1306_NORMALDISPLAY);                 // 0xA6
  #endif

  #if defined SSD1306_128_64
    // Init sequence for 128x64 OLED module
    ssd1306_command(SSD1306_DISPLAYOFF);                    // 0xAE
   d82d6:	4620      	mov	r0, r4
   d82d8:	21ae      	movs	r1, #174	; 0xae
   d82da:	f7ff ff5b 	bl	d8194 <_ZN16Adafruit_SSD130615ssd1306_commandEh>
    ssd1306_command(SSD1306_SETDISPLAYCLOCKDIV);            // 0xD5
   d82de:	4620      	mov	r0, r4
   d82e0:	21d5      	movs	r1, #213	; 0xd5
   d82e2:	f7ff ff57 	bl	d8194 <_ZN16Adafruit_SSD130615ssd1306_commandEh>
    ssd1306_command(0x80);                                  // the suggested ratio 0x80
   d82e6:	4620      	mov	r0, r4
   d82e8:	2180      	movs	r1, #128	; 0x80
   d82ea:	f7ff ff53 	bl	d8194 <_ZN16Adafruit_SSD130615ssd1306_commandEh>
    ssd1306_command(SSD1306_SETMULTIPLEX);                  // 0xA8
   d82ee:	4620      	mov	r0, r4
   d82f0:	21a8      	movs	r1, #168	; 0xa8
   d82f2:	f7ff ff4f 	bl	d8194 <_ZN16Adafruit_SSD130615ssd1306_commandEh>
    ssd1306_command(0x3F);
   d82f6:	4620      	mov	r0, r4
   d82f8:	213f      	movs	r1, #63	; 0x3f
   d82fa:	f7ff ff4b 	bl	d8194 <_ZN16Adafruit_SSD130615ssd1306_commandEh>
    ssd1306_command(SSD1306_SETDISPLAYOFFSET);              // 0xD3
   d82fe:	4620      	mov	r0, r4
   d8300:	21d3      	movs	r1, #211	; 0xd3
   d8302:	f7ff ff47 	bl	d8194 <_ZN16Adafruit_SSD130615ssd1306_commandEh>
    ssd1306_command(0x0);                                   // no offset
   d8306:	4620      	mov	r0, r4
   d8308:	2100      	movs	r1, #0
   d830a:	f7ff ff43 	bl	d8194 <_ZN16Adafruit_SSD130615ssd1306_commandEh>
    ssd1306_command(SSD1306_SETSTARTLINE | 0x0);            // line #0
   d830e:	4620      	mov	r0, r4
   d8310:	2140      	movs	r1, #64	; 0x40
   d8312:	f7ff ff3f 	bl	d8194 <_ZN16Adafruit_SSD130615ssd1306_commandEh>
    ssd1306_command(SSD1306_CHARGEPUMP);                    // 0x8D
   d8316:	218d      	movs	r1, #141	; 0x8d
   d8318:	4620      	mov	r0, r4
   d831a:	f7ff ff3b 	bl	d8194 <_ZN16Adafruit_SSD130615ssd1306_commandEh>
    if (vccstate == SSD1306_EXTERNALVCC) 
   d831e:	2d01      	cmp	r5, #1
      { ssd1306_command(0x10); }
   d8320:	bf0c      	ite	eq
   d8322:	2110      	moveq	r1, #16
    else 
      { ssd1306_command(0x14); }
   d8324:	2114      	movne	r1, #20
   d8326:	4620      	mov	r0, r4
   d8328:	f7ff ff34 	bl	d8194 <_ZN16Adafruit_SSD130615ssd1306_commandEh>
    ssd1306_command(SSD1306_MEMORYMODE);                    // 0x20
   d832c:	4620      	mov	r0, r4
   d832e:	2120      	movs	r1, #32
   d8330:	f7ff ff30 	bl	d8194 <_ZN16Adafruit_SSD130615ssd1306_commandEh>
    ssd1306_command(0x00);                                  // 0x0 act like ks0108
   d8334:	4620      	mov	r0, r4
   d8336:	2100      	movs	r1, #0
   d8338:	f7ff ff2c 	bl	d8194 <_ZN16Adafruit_SSD130615ssd1306_commandEh>
    ssd1306_command(SSD1306_SEGREMAP | 0x1);
   d833c:	4620      	mov	r0, r4
   d833e:	21a1      	movs	r1, #161	; 0xa1
   d8340:	f7ff ff28 	bl	d8194 <_ZN16Adafruit_SSD130615ssd1306_commandEh>
    ssd1306_command(SSD1306_COMSCANDEC);
   d8344:	4620      	mov	r0, r4
   d8346:	21c8      	movs	r1, #200	; 0xc8
   d8348:	f7ff ff24 	bl	d8194 <_ZN16Adafruit_SSD130615ssd1306_commandEh>
    ssd1306_command(SSD1306_SETCOMPINS);                    // 0xDA
   d834c:	4620      	mov	r0, r4
   d834e:	21da      	movs	r1, #218	; 0xda
   d8350:	f7ff ff20 	bl	d8194 <_ZN16Adafruit_SSD130615ssd1306_commandEh>
    ssd1306_command(0x12);
   d8354:	4620      	mov	r0, r4
   d8356:	2112      	movs	r1, #18
   d8358:	f7ff ff1c 	bl	d8194 <_ZN16Adafruit_SSD130615ssd1306_commandEh>
    ssd1306_command(SSD1306_SETCONTRAST);                   // 0x81
   d835c:	2181      	movs	r1, #129	; 0x81
   d835e:	4620      	mov	r0, r4
   d8360:	f7ff ff18 	bl	d8194 <_ZN16Adafruit_SSD130615ssd1306_commandEh>
    if (vccstate == SSD1306_EXTERNALVCC) 
   d8364:	2d01      	cmp	r5, #1
      { ssd1306_command(0x9F); }
   d8366:	bf0c      	ite	eq
   d8368:	219f      	moveq	r1, #159	; 0x9f
    else 
      { ssd1306_command(0xCF); }
   d836a:	21cf      	movne	r1, #207	; 0xcf
   d836c:	4620      	mov	r0, r4
   d836e:	f7ff ff11 	bl	d8194 <_ZN16Adafruit_SSD130615ssd1306_commandEh>
    ssd1306_command(SSD1306_SETPRECHARGE);                  // 0xd9
   d8372:	21d9      	movs	r1, #217	; 0xd9
   d8374:	4620      	mov	r0, r4
   d8376:	f7ff ff0d 	bl	d8194 <_ZN16Adafruit_SSD130615ssd1306_commandEh>
    if (vccstate == SSD1306_EXTERNALVCC) 
   d837a:	2d01      	cmp	r5, #1
      { ssd1306_command(0x22); }
   d837c:	bf0c      	ite	eq
   d837e:	2122      	moveq	r1, #34	; 0x22
    else 
      { ssd1306_command(0xF1); }
   d8380:	21f1      	movne	r1, #241	; 0xf1
   d8382:	4620      	mov	r0, r4
   d8384:	f7ff ff06 	bl	d8194 <_ZN16Adafruit_SSD130615ssd1306_commandEh>
    ssd1306_command(SSD1306_SETVCOMDETECT);                 // 0xDB
   d8388:	4620      	mov	r0, r4
   d838a:	21db      	movs	r1, #219	; 0xdb
   d838c:	f7ff ff02 	bl	d8194 <_ZN16Adafruit_SSD130615ssd1306_commandEh>
    ssd1306_command(0x40);
   d8390:	4620      	mov	r0, r4
   d8392:	2140      	movs	r1, #64	; 0x40
   d8394:	f7ff fefe 	bl	d8194 <_ZN16Adafruit_SSD130615ssd1306_commandEh>
    ssd1306_command(SSD1306_DISPLAYALLON_RESUME);           // 0xA4
   d8398:	4620      	mov	r0, r4
   d839a:	21a4      	movs	r1, #164	; 0xa4
   d839c:	f7ff fefa 	bl	d8194 <_ZN16Adafruit_SSD130615ssd1306_commandEh>
    ssd1306_command(SSD1306_NORMALDISPLAY);                 // 0xA6
   d83a0:	4620      	mov	r0, r4
   d83a2:	21a6      	movs	r1, #166	; 0xa6
   d83a4:	f7ff fef6 	bl	d8194 <_ZN16Adafruit_SSD130615ssd1306_commandEh>
  #endif
  
  ssd1306_command(SSD1306_DISPLAYON);//--turn on oled panel
   d83a8:	4620      	mov	r0, r4
   d83aa:	21af      	movs	r1, #175	; 0xaf
}
   d83ac:	e8bd 4038 	ldmia.w	sp!, {r3, r4, r5, lr}
    ssd1306_command(0x40);
    ssd1306_command(SSD1306_DISPLAYALLON_RESUME);           // 0xA4
    ssd1306_command(SSD1306_NORMALDISPLAY);                 // 0xA6
  #endif
  
  ssd1306_command(SSD1306_DISPLAYON);//--turn on oled panel
   d83b0:	f7ff bef0 	b.w	d8194 <_ZN16Adafruit_SSD130615ssd1306_commandEh>
   d83b4:	2003e740 	.word	0x2003e740

000d83b8 <_ZN16Adafruit_SSD130613invertDisplayEh>:
}


void Adafruit_SSD1306::invertDisplay(uint8_t i) {
  if (i) {
   d83b8:	b109      	cbz	r1, d83be <_ZN16Adafruit_SSD130613invertDisplayEh+0x6>
    ssd1306_command(SSD1306_INVERTDISPLAY);
   d83ba:	21a7      	movs	r1, #167	; 0xa7
   d83bc:	e000      	b.n	d83c0 <_ZN16Adafruit_SSD130613invertDisplayEh+0x8>
  } else {
    ssd1306_command(SSD1306_NORMALDISPLAY);
   d83be:	21a6      	movs	r1, #166	; 0xa6
   d83c0:	f7ff bee8 	b.w	d8194 <_ZN16Adafruit_SSD130615ssd1306_commandEh>

000d83c4 <_ZN16Adafruit_SSD130616startscrollrightEhh>:

// startscrollright
// Activate a right handed scroll for rows start through stop
// Hint, the display is 16 rows tall. To scroll the whole display, run:
// display.scrollright(0x00, 0x0F) 
void Adafruit_SSD1306::startscrollright(uint8_t start, uint8_t stop){
   d83c4:	b570      	push	{r4, r5, r6, lr}
   d83c6:	4604      	mov	r4, r0
   d83c8:	460e      	mov	r6, r1
	ssd1306_command(SSD1306_RIGHT_HORIZONTAL_SCROLL);
   d83ca:	2126      	movs	r1, #38	; 0x26

// startscrollright
// Activate a right handed scroll for rows start through stop
// Hint, the display is 16 rows tall. To scroll the whole display, run:
// display.scrollright(0x00, 0x0F) 
void Adafruit_SSD1306::startscrollright(uint8_t start, uint8_t stop){
   d83cc:	4615      	mov	r5, r2
	ssd1306_command(SSD1306_RIGHT_HORIZONTAL_SCROLL);
   d83ce:	f7ff fee1 	bl	d8194 <_ZN16Adafruit_SSD130615ssd1306_commandEh>
	ssd1306_command(0X00);
   d83d2:	4620      	mov	r0, r4
   d83d4:	2100      	movs	r1, #0
   d83d6:	f7ff fedd 	bl	d8194 <_ZN16Adafruit_SSD130615ssd1306_commandEh>
	ssd1306_command(start);
   d83da:	4631      	mov	r1, r6
   d83dc:	4620      	mov	r0, r4
   d83de:	f7ff fed9 	bl	d8194 <_ZN16Adafruit_SSD130615ssd1306_commandEh>
	ssd1306_command(0X00);
   d83e2:	4620      	mov	r0, r4
   d83e4:	2100      	movs	r1, #0
   d83e6:	f7ff fed5 	bl	d8194 <_ZN16Adafruit_SSD130615ssd1306_commandEh>
	ssd1306_command(stop);
   d83ea:	4629      	mov	r1, r5
   d83ec:	4620      	mov	r0, r4
   d83ee:	f7ff fed1 	bl	d8194 <_ZN16Adafruit_SSD130615ssd1306_commandEh>
	ssd1306_command(0X00);
   d83f2:	4620      	mov	r0, r4
   d83f4:	2100      	movs	r1, #0
   d83f6:	f7ff fecd 	bl	d8194 <_ZN16Adafruit_SSD130615ssd1306_commandEh>
	ssd1306_command(0XFF);
   d83fa:	4620      	mov	r0, r4
   d83fc:	21ff      	movs	r1, #255	; 0xff
   d83fe:	f7ff fec9 	bl	d8194 <_ZN16Adafruit_SSD130615ssd1306_commandEh>
	ssd1306_command(SSD1306_ACTIVATE_SCROLL);
   d8402:	4620      	mov	r0, r4
   d8404:	212f      	movs	r1, #47	; 0x2f
}
   d8406:	e8bd 4070 	ldmia.w	sp!, {r4, r5, r6, lr}
	ssd1306_command(start);
	ssd1306_command(0X00);
	ssd1306_command(stop);
	ssd1306_command(0X00);
	ssd1306_command(0XFF);
	ssd1306_command(SSD1306_ACTIVATE_SCROLL);
   d840a:	f7ff bec3 	b.w	d8194 <_ZN16Adafruit_SSD130615ssd1306_commandEh>

000d840e <_ZN16Adafruit_SSD130615startscrollleftEhh>:

// startscrollleft
// Activate a right handed scroll for rows start through stop
// Hint, the display is 16 rows tall. To scroll the whole display, run:
// display.scrollright(0x00, 0x0F) 
void Adafruit_SSD1306::startscrollleft(uint8_t start, uint8_t stop){
   d840e:	b570      	push	{r4, r5, r6, lr}
   d8410:	4604      	mov	r4, r0
   d8412:	460e      	mov	r6, r1
	ssd1306_command(SSD1306_LEFT_HORIZONTAL_SCROLL);
   d8414:	2127      	movs	r1, #39	; 0x27

// startscrollleft
// Activate a right handed scroll for rows start through stop
// Hint, the display is 16 rows tall. To scroll the whole display, run:
// display.scrollright(0x00, 0x0F) 
void Adafruit_SSD1306::startscrollleft(uint8_t start, uint8_t stop){
   d8416:	4615      	mov	r5, r2
	ssd1306_command(SSD1306_LEFT_HORIZONTAL_SCROLL);
   d8418:	f7ff febc 	bl	d8194 <_ZN16Adafruit_SSD130615ssd1306_commandEh>
	ssd1306_command(0X00);
   d841c:	4620      	mov	r0, r4
   d841e:	2100      	movs	r1, #0
   d8420:	f7ff feb8 	bl	d8194 <_ZN16Adafruit_SSD130615ssd1306_commandEh>
	ssd1306_command(start);
   d8424:	4631      	mov	r1, r6
   d8426:	4620      	mov	r0, r4
   d8428:	f7ff feb4 	bl	d8194 <_ZN16Adafruit_SSD130615ssd1306_commandEh>
	ssd1306_command(0X00);
   d842c:	4620      	mov	r0, r4
   d842e:	2100      	movs	r1, #0
   d8430:	f7ff feb0 	bl	d8194 <_ZN16Adafruit_SSD130615ssd1306_commandEh>
	ssd1306_command(stop);
   d8434:	4629      	mov	r1, r5
   d8436:	4620      	mov	r0, r4
   d8438:	f7ff feac 	bl	d8194 <_ZN16Adafruit_SSD130615ssd1306_commandEh>
	ssd1306_command(0X00);
   d843c:	4620      	mov	r0, r4
   d843e:	2100      	movs	r1, #0
   d8440:	f7ff fea8 	bl	d8194 <_ZN16Adafruit_SSD130615ssd1306_commandEh>
	ssd1306_command(0XFF);
   d8444:	4620      	mov	r0, r4
   d8446:	21ff      	movs	r1, #255	; 0xff
   d8448:	f7ff fea4 	bl	d8194 <_ZN16Adafruit_SSD130615ssd1306_commandEh>
	ssd1306_command(SSD1306_ACTIVATE_SCROLL);
   d844c:	4620      	mov	r0, r4
   d844e:	212f      	movs	r1, #47	; 0x2f
}
   d8450:	e8bd 4070 	ldmia.w	sp!, {r4, r5, r6, lr}
	ssd1306_command(start);
	ssd1306_command(0X00);
	ssd1306_command(stop);
	ssd1306_command(0X00);
	ssd1306_command(0XFF);
	ssd1306_command(SSD1306_ACTIVATE_SCROLL);
   d8454:	f7ff be9e 	b.w	d8194 <_ZN16Adafruit_SSD130615ssd1306_commandEh>

000d8458 <_ZN16Adafruit_SSD130620startscrolldiagrightEhh>:

// startscrolldiagright
// Activate a diagonal scroll for rows start through stop
// Hint, the display is 16 rows tall. To scroll the whole display, run:
// display.scrollright(0x00, 0x0F) 
void Adafruit_SSD1306::startscrolldiagright(uint8_t start, uint8_t stop){
   d8458:	b570      	push	{r4, r5, r6, lr}
   d845a:	4604      	mov	r4, r0
   d845c:	460e      	mov	r6, r1
	ssd1306_command(SSD1306_SET_VERTICAL_SCROLL_AREA);	
   d845e:	21a3      	movs	r1, #163	; 0xa3

// startscrolldiagright
// Activate a diagonal scroll for rows start through stop
// Hint, the display is 16 rows tall. To scroll the whole display, run:
// display.scrollright(0x00, 0x0F) 
void Adafruit_SSD1306::startscrolldiagright(uint8_t start, uint8_t stop){
   d8460:	4615      	mov	r5, r2
	ssd1306_command(SSD1306_SET_VERTICAL_SCROLL_AREA);	
   d8462:	f7ff fe97 	bl	d8194 <_ZN16Adafruit_SSD130615ssd1306_commandEh>
	ssd1306_command(0X00);
   d8466:	4620      	mov	r0, r4
   d8468:	2100      	movs	r1, #0
   d846a:	f7ff fe93 	bl	d8194 <_ZN16Adafruit_SSD130615ssd1306_commandEh>
	ssd1306_command(SSD1306_LCDHEIGHT);
   d846e:	4620      	mov	r0, r4
   d8470:	2140      	movs	r1, #64	; 0x40
   d8472:	f7ff fe8f 	bl	d8194 <_ZN16Adafruit_SSD130615ssd1306_commandEh>
	ssd1306_command(SSD1306_VERTICAL_AND_RIGHT_HORIZONTAL_SCROLL);
   d8476:	4620      	mov	r0, r4
   d8478:	2129      	movs	r1, #41	; 0x29
   d847a:	f7ff fe8b 	bl	d8194 <_ZN16Adafruit_SSD130615ssd1306_commandEh>
	ssd1306_command(0X00);
   d847e:	4620      	mov	r0, r4
   d8480:	2100      	movs	r1, #0
   d8482:	f7ff fe87 	bl	d8194 <_ZN16Adafruit_SSD130615ssd1306_commandEh>
	ssd1306_command(start);
   d8486:	4631      	mov	r1, r6
   d8488:	4620      	mov	r0, r4
   d848a:	f7ff fe83 	bl	d8194 <_ZN16Adafruit_SSD130615ssd1306_commandEh>
	ssd1306_command(0X00);
   d848e:	4620      	mov	r0, r4
   d8490:	2100      	movs	r1, #0
   d8492:	f7ff fe7f 	bl	d8194 <_ZN16Adafruit_SSD130615ssd1306_commandEh>
	ssd1306_command(stop);
   d8496:	4629      	mov	r1, r5
   d8498:	4620      	mov	r0, r4
   d849a:	f7ff fe7b 	bl	d8194 <_ZN16Adafruit_SSD130615ssd1306_commandEh>
	ssd1306_command(0X01);
   d849e:	4620      	mov	r0, r4
   d84a0:	2101      	movs	r1, #1
   d84a2:	f7ff fe77 	bl	d8194 <_ZN16Adafruit_SSD130615ssd1306_commandEh>
	ssd1306_command(SSD1306_ACTIVATE_SCROLL);
   d84a6:	4620      	mov	r0, r4
   d84a8:	212f      	movs	r1, #47	; 0x2f
}
   d84aa:	e8bd 4070 	ldmia.w	sp!, {r4, r5, r6, lr}
	ssd1306_command(0X00);
	ssd1306_command(start);
	ssd1306_command(0X00);
	ssd1306_command(stop);
	ssd1306_command(0X01);
	ssd1306_command(SSD1306_ACTIVATE_SCROLL);
   d84ae:	f7ff be71 	b.w	d8194 <_ZN16Adafruit_SSD130615ssd1306_commandEh>

000d84b2 <_ZN16Adafruit_SSD130619startscrolldiagleftEhh>:

// startscrolldiagleft
// Activate a diagonal scroll for rows start through stop
// Hint, the display is 16 rows tall. To scroll the whole display, run:
// display.scrollright(0x00, 0x0F) 
void Adafruit_SSD1306::startscrolldiagleft(uint8_t start, uint8_t stop){
   d84b2:	b570      	push	{r4, r5, r6, lr}
   d84b4:	4604      	mov	r4, r0
   d84b6:	460e      	mov	r6, r1
	ssd1306_command(SSD1306_SET_VERTICAL_SCROLL_AREA);	
   d84b8:	21a3      	movs	r1, #163	; 0xa3

// startscrolldiagleft
// Activate a diagonal scroll for rows start through stop
// Hint, the display is 16 rows tall. To scroll the whole display, run:
// display.scrollright(0x00, 0x0F) 
void Adafruit_SSD1306::startscrolldiagleft(uint8_t start, uint8_t stop){
   d84ba:	4615      	mov	r5, r2
	ssd1306_command(SSD1306_SET_VERTICAL_SCROLL_AREA);	
   d84bc:	f7ff fe6a 	bl	d8194 <_ZN16Adafruit_SSD130615ssd1306_commandEh>
	ssd1306_command(0X00);
   d84c0:	4620      	mov	r0, r4
   d84c2:	2100      	movs	r1, #0
   d84c4:	f7ff fe66 	bl	d8194 <_ZN16Adafruit_SSD130615ssd1306_commandEh>
	ssd1306_command(SSD1306_LCDHEIGHT);
   d84c8:	4620      	mov	r0, r4
   d84ca:	2140      	movs	r1, #64	; 0x40
   d84cc:	f7ff fe62 	bl	d8194 <_ZN16Adafruit_SSD130615ssd1306_commandEh>
	ssd1306_command(SSD1306_VERTICAL_AND_LEFT_HORIZONTAL_SCROLL);
   d84d0:	4620      	mov	r0, r4
   d84d2:	212a      	movs	r1, #42	; 0x2a
   d84d4:	f7ff fe5e 	bl	d8194 <_ZN16Adafruit_SSD130615ssd1306_commandEh>
	ssd1306_command(0X00);
   d84d8:	4620      	mov	r0, r4
   d84da:	2100      	movs	r1, #0
   d84dc:	f7ff fe5a 	bl	d8194 <_ZN16Adafruit_SSD130615ssd1306_commandEh>
	ssd1306_command(start);
   d84e0:	4631      	mov	r1, r6
   d84e2:	4620      	mov	r0, r4
   d84e4:	f7ff fe56 	bl	d8194 <_ZN16Adafruit_SSD130615ssd1306_commandEh>
	ssd1306_command(0X00);
   d84e8:	4620      	mov	r0, r4
   d84ea:	2100      	movs	r1, #0
   d84ec:	f7ff fe52 	bl	d8194 <_ZN16Adafruit_SSD130615ssd1306_commandEh>
	ssd1306_command(stop);
   d84f0:	4629      	mov	r1, r5
   d84f2:	4620      	mov	r0, r4
   d84f4:	f7ff fe4e 	bl	d8194 <_ZN16Adafruit_SSD130615ssd1306_commandEh>
	ssd1306_command(0X01);
   d84f8:	4620      	mov	r0, r4
   d84fa:	2101      	movs	r1, #1
   d84fc:	f7ff fe4a 	bl	d8194 <_ZN16Adafruit_SSD130615ssd1306_commandEh>
	ssd1306_command(SSD1306_ACTIVATE_SCROLL);
   d8500:	4620      	mov	r0, r4
   d8502:	212f      	movs	r1, #47	; 0x2f
}
   d8504:	e8bd 4070 	ldmia.w	sp!, {r4, r5, r6, lr}
	ssd1306_command(0X00);
	ssd1306_command(start);
	ssd1306_command(0X00);
	ssd1306_command(stop);
	ssd1306_command(0X01);
	ssd1306_command(SSD1306_ACTIVATE_SCROLL);
   d8508:	f7ff be44 	b.w	d8194 <_ZN16Adafruit_SSD130615ssd1306_commandEh>

000d850c <_ZN16Adafruit_SSD130610stopscrollEv>:
}

void Adafruit_SSD1306::stopscroll(void){
	ssd1306_command(SSD1306_DEACTIVATE_SCROLL);
   d850c:	212e      	movs	r1, #46	; 0x2e
   d850e:	f7ff be41 	b.w	d8194 <_ZN16Adafruit_SSD130615ssd1306_commandEh>
	...

000d8514 <_ZN16Adafruit_SSD13067displayEv>:
    Wire.write(c);
    Wire.endTransmission();
  }
}

void Adafruit_SSD1306::display(void) {
   d8514:	e92d 41f0 	stmdb	sp!, {r4, r5, r6, r7, r8, lr}
  ssd1306_command(SSD1306_COLUMNADDR);
   d8518:	2121      	movs	r1, #33	; 0x21
    Wire.write(c);
    Wire.endTransmission();
  }
}

void Adafruit_SSD1306::display(void) {
   d851a:	4604      	mov	r4, r0
  ssd1306_command(SSD1306_COLUMNADDR);
   d851c:	f7ff fe3a 	bl	d8194 <_ZN16Adafruit_SSD130615ssd1306_commandEh>
  ssd1306_command(0);   // Column start address (0 = reset)
   d8520:	2100      	movs	r1, #0
   d8522:	4620      	mov	r0, r4
   d8524:	f7ff fe36 	bl	d8194 <_ZN16Adafruit_SSD130615ssd1306_commandEh>
  ssd1306_command(127); // Column end address (127 = reset)
   d8528:	217f      	movs	r1, #127	; 0x7f
   d852a:	4620      	mov	r0, r4
   d852c:	f7ff fe32 	bl	d8194 <_ZN16Adafruit_SSD130615ssd1306_commandEh>

  ssd1306_command(SSD1306_PAGEADDR);
   d8530:	2122      	movs	r1, #34	; 0x22
   d8532:	4620      	mov	r0, r4
   d8534:	f7ff fe2e 	bl	d8194 <_ZN16Adafruit_SSD130615ssd1306_commandEh>
  ssd1306_command(0); // Page start address (0 = reset)
   d8538:	2100      	movs	r1, #0
   d853a:	4620      	mov	r0, r4
   d853c:	f7ff fe2a 	bl	d8194 <_ZN16Adafruit_SSD130615ssd1306_commandEh>
  ssd1306_command((SSD1306_LCDHEIGHT == 64) ? 7 : 3); // Page end address
   d8540:	2107      	movs	r1, #7
   d8542:	4620      	mov	r0, r4
   d8544:	f7ff fe26 	bl	d8194 <_ZN16Adafruit_SSD130615ssd1306_commandEh>

  if (sid != -1)
   d8548:	f994 301d 	ldrsb.w	r3, [r4, #29]
   d854c:	f8df 80ac 	ldr.w	r8, [pc, #172]	; d85fc <_ZN16Adafruit_SSD13067displayEv+0xe8>
   d8550:	3301      	adds	r3, #1
   d8552:	d02e      	beq.n	d85b2 <_ZN16Adafruit_SSD13067displayEv+0x9e>
  {
    // SPI
    digitalWrite(cs, HIGH);
   d8554:	f994 0021 	ldrsb.w	r0, [r4, #33]	; 0x21
   d8558:	2101      	movs	r1, #1
   d855a:	b280      	uxth	r0, r0
   d855c:	f002 fd0f 	bl	daf7e <digitalWrite>
    digitalWrite(dc, HIGH);
   d8560:	f994 001f 	ldrsb.w	r0, [r4, #31]
   d8564:	2101      	movs	r1, #1
   d8566:	b280      	uxth	r0, r0
   d8568:	f002 fd09 	bl	daf7e <digitalWrite>
    digitalWrite(cs, LOW);
   d856c:	f994 0021 	ldrsb.w	r0, [r4, #33]	; 0x21
   d8570:	2100      	movs	r1, #0
   d8572:	b280      	uxth	r0, r0
   d8574:	f002 fd03 	bl	daf7e <digitalWrite>
inline unsigned long micros(void) { return HAL_Timer_Get_Micro_Seconds(); }
void delay(unsigned long ms);
inline void delayMicroseconds(unsigned int us) { HAL_Delay_Microseconds(us); }
   d8578:	2001      	movs	r0, #1
   d857a:	f000 fb99 	bl	d8cb0 <HAL_Delay_Microseconds>
   d857e:	2500      	movs	r5, #0
	delayMicroseconds(1);		// May not be necessary - needs testing

    for (uint16_t i=0; i<(SSD1306_LCDWIDTH*SSD1306_LCDHEIGHT/8); i++) {
      fastSPIwrite(buffer[i]);
   d8580:	f818 3005 	ldrb.w	r3, [r8, r5]
   d8584:	f894 2022 	ldrb.w	r2, [r4, #34]	; 0x22
   d8588:	f994 101e 	ldrsb.w	r1, [r4, #30]
   d858c:	f994 001d 	ldrsb.w	r0, [r4, #29]
   d8590:	3501      	adds	r5, #1
   d8592:	f7ff fd8d 	bl	d80b0 <_ZN16Adafruit_SSD130612fastSPIwriteEh.isra.1>
    digitalWrite(cs, HIGH);
    digitalWrite(dc, HIGH);
    digitalWrite(cs, LOW);
	delayMicroseconds(1);		// May not be necessary - needs testing

    for (uint16_t i=0; i<(SSD1306_LCDWIDTH*SSD1306_LCDHEIGHT/8); i++) {
   d8596:	f5b5 6f80 	cmp.w	r5, #1024	; 0x400
   d859a:	d1f1      	bne.n	d8580 <_ZN16Adafruit_SSD13067displayEv+0x6c>
   d859c:	2001      	movs	r0, #1
   d859e:	f000 fb87 	bl	d8cb0 <HAL_Delay_Microseconds>
      fastSPIwrite(buffer[i]);
      //ssd1306_data(buffer[i]);
    }
	delayMicroseconds(1);		// May not be necessary - needs testing
    digitalWrite(cs, HIGH);
   d85a2:	f994 0021 	ldrsb.w	r0, [r4, #33]	; 0x21
   d85a6:	2101      	movs	r1, #1
   d85a8:	b280      	uxth	r0, r0
		}
	i--;
	Wire.endTransmission();
	}
  }
}
   d85aa:	e8bd 41f0 	ldmia.w	sp!, {r4, r5, r6, r7, r8, lr}
    for (uint16_t i=0; i<(SSD1306_LCDWIDTH*SSD1306_LCDHEIGHT/8); i++) {
      fastSPIwrite(buffer[i]);
      //ssd1306_data(buffer[i]);
    }
	delayMicroseconds(1);		// May not be necessary - needs testing
    digitalWrite(cs, HIGH);
   d85ae:	f002 bce6 	b.w	daf7e <digitalWrite>
   d85b2:	2500      	movs	r5, #0
  else
  {
    // I2C
    for (uint16_t i=0; i<(SSD1306_LCDWIDTH*SSD1306_LCDHEIGHT/8); i++) {
      // send a bunch of data in one xmission
      Wire.beginTransmission(_i2caddr);
   d85b4:	f002 fd84 	bl	db0c0 <_Z19__fetch_global_Wirev>
   d85b8:	f994 101b 	ldrsb.w	r1, [r4, #27]
   d85bc:	f001 f9c4 	bl	d9948 <_ZN7TwoWire17beginTransmissionEi>
      Wire.write(0x40);
   d85c0:	f002 fd7e 	bl	db0c0 <_Z19__fetch_global_Wirev>
  bool unlock();

  inline size_t write(unsigned long n) { return write((uint8_t)n); }
  inline size_t write(long n) { return write((uint8_t)n); }
  inline size_t write(unsigned int n) { return write((uint8_t)n); }
  inline size_t write(int n) { return write((uint8_t)n); }
   d85c4:	6803      	ldr	r3, [r0, #0]
   d85c6:	2140      	movs	r1, #64	; 0x40
   d85c8:	689b      	ldr	r3, [r3, #8]
   d85ca:	4798      	blx	r3
   d85cc:	2600      	movs	r6, #0
      for (uint8_t x=0; x<16; x++) {
		Wire.write(buffer[i]);
   d85ce:	f002 fd77 	bl	db0c0 <_Z19__fetch_global_Wirev>
   d85d2:	19af      	adds	r7, r5, r6
   d85d4:	6803      	ldr	r3, [r0, #0]
   d85d6:	b2bf      	uxth	r7, r7
   d85d8:	689b      	ldr	r3, [r3, #8]
   d85da:	f818 1007 	ldrb.w	r1, [r8, r7]
   d85de:	3601      	adds	r6, #1
   d85e0:	4798      	blx	r3
    // I2C
    for (uint16_t i=0; i<(SSD1306_LCDWIDTH*SSD1306_LCDHEIGHT/8); i++) {
      // send a bunch of data in one xmission
      Wire.beginTransmission(_i2caddr);
      Wire.write(0x40);
      for (uint8_t x=0; x<16; x++) {
   d85e2:	2e10      	cmp	r6, #16
   d85e4:	d1f3      	bne.n	d85ce <_ZN16Adafruit_SSD13067displayEv+0xba>
   d85e6:	3510      	adds	r5, #16
		Wire.write(buffer[i]);
		i++;
		}
	i--;
	Wire.endTransmission();
   d85e8:	f002 fd6a 	bl	db0c0 <_Z19__fetch_global_Wirev>
   d85ec:	b2ad      	uxth	r5, r5
   d85ee:	f001 f9b2 	bl	d9956 <_ZN7TwoWire15endTransmissionEv>
    digitalWrite(cs, HIGH);
  }
  else
  {
    // I2C
    for (uint16_t i=0; i<(SSD1306_LCDWIDTH*SSD1306_LCDHEIGHT/8); i++) {
   d85f2:	f5b5 6f80 	cmp.w	r5, #1024	; 0x400
   d85f6:	d1dd      	bne.n	d85b4 <_ZN16Adafruit_SSD13067displayEv+0xa0>
		}
	i--;
	Wire.endTransmission();
	}
  }
}
   d85f8:	e8bd 81f0 	ldmia.w	sp!, {r4, r5, r6, r7, r8, pc}
   d85fc:	2003dcc4 	.word	0x2003dcc4

000d8600 <_ZN16Adafruit_SSD130612clearDisplayEv>:

// clear everything
void Adafruit_SSD1306::clearDisplay(void) {
  memset(buffer, 0, (SSD1306_LCDWIDTH*SSD1306_LCDHEIGHT/8));
   d8600:	f44f 6280 	mov.w	r2, #1024	; 0x400
   d8604:	2100      	movs	r1, #0
   d8606:	4801      	ldr	r0, [pc, #4]	; (d860c <_ZN16Adafruit_SSD130612clearDisplayEv+0xc>)
   d8608:	f003 bc12 	b.w	dbe30 <memset>
   d860c:	2003dcc4 	.word	0x2003dcc4

000d8610 <_ZN7TwoWire5writeEi>:
   d8610:	6803      	ldr	r3, [r0, #0]
   d8612:	b2c9      	uxtb	r1, r1
   d8614:	689b      	ldr	r3, [r3, #8]
   d8616:	4718      	bx	r3

000d8618 <_ZN15Adafruit_Si7021C1Ev>:


/**************************************************************************/

Adafruit_Si7021::Adafruit_Si7021(void) {
  _i2caddr = SI7021_DEFAULT_ADDRESS;
   d8618:	2240      	movs	r2, #64	; 0x40
   d861a:	7202      	strb	r2, [r0, #8]
  sernum_a = sernum_b = 0;
   d861c:	2200      	movs	r2, #0
   d861e:	6042      	str	r2, [r0, #4]
   d8620:	6002      	str	r2, [r0, #0]
}
   d8622:	4770      	bx	lr

000d8624 <_ZN15Adafruit_Si702112readHumidityEv>:
  //Serial.println(sernum_b, HEX);

  return true;
}

float Adafruit_Si7021::readHumidity(void) {
   d8624:	b510      	push	{r4, lr}
   d8626:	4604      	mov	r4, r0
  Wire.beginTransmission(_i2caddr);
   d8628:	f002 fd4a 	bl	db0c0 <_Z19__fetch_global_Wirev>
   d862c:	f994 1008 	ldrsb.w	r1, [r4, #8]
   d8630:	f001 f98a 	bl	d9948 <_ZN7TwoWire17beginTransmissionEi>
  Wire.write((uint8_t)SI7021_MEASRH_NOHOLD_CMD);
   d8634:	f002 fd44 	bl	db0c0 <_Z19__fetch_global_Wirev>
   d8638:	6803      	ldr	r3, [r0, #0]
   d863a:	21f5      	movs	r1, #245	; 0xf5
   d863c:	689b      	ldr	r3, [r3, #8]
   d863e:	4798      	blx	r3
  Wire.endTransmission(false);
   d8640:	f002 fd3e 	bl	db0c0 <_Z19__fetch_global_Wirev>
   d8644:	2100      	movs	r1, #0
   d8646:	f001 f982 	bl	d994e <_ZN7TwoWire15endTransmissionEh>
  delay(25);
   d864a:	2019      	movs	r0, #25
   d864c:	f000 fe40 	bl	d92d0 <delay>

  Wire.requestFrom(_i2caddr, 3);
   d8650:	f002 fd36 	bl	db0c0 <_Z19__fetch_global_Wirev>
   d8654:	f994 1008 	ldrsb.w	r1, [r4, #8]
   d8658:	2203      	movs	r2, #3
   d865a:	f001 f96c 	bl	d9936 <_ZN7TwoWire11requestFromEii>
  uint16_t hum = Wire.read();
   d865e:	f002 fd2f 	bl	db0c0 <_Z19__fetch_global_Wirev>
   d8662:	6803      	ldr	r3, [r0, #0]
   d8664:	695b      	ldr	r3, [r3, #20]
   d8666:	4798      	blx	r3
   d8668:	b284      	uxth	r4, r0
  hum <<= 8;
  hum |= Wire.read();
   d866a:	f002 fd29 	bl	db0c0 <_Z19__fetch_global_Wirev>
   d866e:	6803      	ldr	r3, [r0, #0]
   d8670:	695b      	ldr	r3, [r3, #20]
   d8672:	4798      	blx	r3
   d8674:	ea40 2004 	orr.w	r0, r0, r4, lsl #8
   d8678:	b204      	sxth	r4, r0
  uint8_t chxsum = Wire.read();
   d867a:	f002 fd21 	bl	db0c0 <_Z19__fetch_global_Wirev>
   d867e:	6803      	ldr	r3, [r0, #0]
   d8680:	695b      	ldr	r3, [r3, #20]
   d8682:	4798      	blx	r3

  float humidity = hum;
   d8684:	b2a3      	uxth	r3, r4
   d8686:	ee07 3a90 	vmov	s15, r3
  humidity *= 125;
   d868a:	ed9f 7a06 	vldr	s14, [pc, #24]	; d86a4 <_ZN15Adafruit_Si702112readHumidityEv+0x80>
  uint16_t hum = Wire.read();
  hum <<= 8;
  hum |= Wire.read();
  uint8_t chxsum = Wire.read();

  float humidity = hum;
   d868e:	eef8 7a67 	vcvt.f32.u32	s15, s15
  humidity *= 125;
  humidity /= 65536;
  humidity -= 6;

  return humidity;
}
   d8692:	eeb9 0a08 	vmov.f32	s0, #152	; 0xc0c00000 -6.0
  hum <<= 8;
  hum |= Wire.read();
  uint8_t chxsum = Wire.read();

  float humidity = hum;
  humidity *= 125;
   d8696:	ee67 7a87 	vmul.f32	s15, s15, s14
  humidity /= 65536;
  humidity -= 6;

  return humidity;
}
   d869a:	ed9f 7a03 	vldr	s14, [pc, #12]	; d86a8 <_ZN15Adafruit_Si702112readHumidityEv+0x84>
   d869e:	eea7 0a87 	vfma.f32	s0, s15, s14
   d86a2:	bd10      	pop	{r4, pc}
   d86a4:	42fa0000 	.word	0x42fa0000
   d86a8:	37800000 	.word	0x37800000
   d86ac:	00000000 	.word	0x00000000

000d86b0 <_ZN15Adafruit_Si702115readTemperatureEv>:

float Adafruit_Si7021::readTemperature(void) {
   d86b0:	b510      	push	{r4, lr}
   d86b2:	4604      	mov	r4, r0
  Wire.beginTransmission(_i2caddr);
   d86b4:	f002 fd04 	bl	db0c0 <_Z19__fetch_global_Wirev>
   d86b8:	f994 1008 	ldrsb.w	r1, [r4, #8]
   d86bc:	f001 f944 	bl	d9948 <_ZN7TwoWire17beginTransmissionEi>
  Wire.write((uint8_t)SI7021_MEASTEMP_NOHOLD_CMD);
   d86c0:	f002 fcfe 	bl	db0c0 <_Z19__fetch_global_Wirev>
   d86c4:	6803      	ldr	r3, [r0, #0]
   d86c6:	21f3      	movs	r1, #243	; 0xf3
   d86c8:	689b      	ldr	r3, [r3, #8]
   d86ca:	4798      	blx	r3
  Wire.endTransmission(false);
   d86cc:	f002 fcf8 	bl	db0c0 <_Z19__fetch_global_Wirev>
   d86d0:	2100      	movs	r1, #0
   d86d2:	f001 f93c 	bl	d994e <_ZN7TwoWire15endTransmissionEh>
  delay(25);
   d86d6:	2019      	movs	r0, #25
   d86d8:	f000 fdfa 	bl	d92d0 <delay>

  Wire.requestFrom(_i2caddr, 3);
   d86dc:	f002 fcf0 	bl	db0c0 <_Z19__fetch_global_Wirev>
   d86e0:	2203      	movs	r2, #3
   d86e2:	f994 1008 	ldrsb.w	r1, [r4, #8]
   d86e6:	f001 f926 	bl	d9936 <_ZN7TwoWire11requestFromEii>
  uint16_t temp = Wire.read();
   d86ea:	f002 fce9 	bl	db0c0 <_Z19__fetch_global_Wirev>
   d86ee:	6803      	ldr	r3, [r0, #0]
   d86f0:	695b      	ldr	r3, [r3, #20]
   d86f2:	4798      	blx	r3
   d86f4:	b284      	uxth	r4, r0
  temp <<= 8;
  temp |= Wire.read();
   d86f6:	f002 fce3 	bl	db0c0 <_Z19__fetch_global_Wirev>
   d86fa:	6803      	ldr	r3, [r0, #0]
   d86fc:	695b      	ldr	r3, [r3, #20]
   d86fe:	4798      	blx	r3
   d8700:	ea40 2004 	orr.w	r0, r0, r4, lsl #8
   d8704:	b204      	sxth	r4, r0
  uint8_t chxsum = Wire.read();
   d8706:	f002 fcdb 	bl	db0c0 <_Z19__fetch_global_Wirev>
   d870a:	6803      	ldr	r3, [r0, #0]
   d870c:	695b      	ldr	r3, [r3, #20]
   d870e:	4798      	blx	r3

  float temperature = temp;
  temperature *= 175.72;
   d8710:	b2a0      	uxth	r0, r4
   d8712:	ee07 0a90 	vmov	s15, r0
   d8716:	eef8 7a67 	vcvt.f32.u32	s15, s15
   d871a:	ee17 0a90 	vmov	r0, s15
   d871e:	f002 ffc5 	bl	db6ac <__aeabi_f2d>
   d8722:	a310      	add	r3, pc, #64	; (adr r3, d8764 <_ZN15Adafruit_Si702115readTemperatureEv+0xb4>)
   d8724:	e9d3 2300 	ldrd	r2, r3, [r3]
   d8728:	f003 f814 	bl	db754 <__aeabi_dmul>
   d872c:	f003 faf4 	bl	dbd18 <__aeabi_d2f>
  temperature /= 65536;
  temperature -= 46.85;
   d8730:	eddf 7a0b 	vldr	s15, [pc, #44]	; d8760 <_ZN15Adafruit_Si702115readTemperatureEv+0xb0>
   d8734:	ee07 0a10 	vmov	s14, r0
   d8738:	ee67 7a27 	vmul.f32	s15, s14, s15
   d873c:	ee17 0a90 	vmov	r0, s15
   d8740:	f002 ffb4 	bl	db6ac <__aeabi_f2d>
   d8744:	a304      	add	r3, pc, #16	; (adr r3, d8758 <_ZN15Adafruit_Si702115readTemperatureEv+0xa8>)
   d8746:	e9d3 2300 	ldrd	r2, r3, [r3]
   d874a:	f002 fe4f 	bl	db3ec <__aeabi_dsub>

  return temperature;
   d874e:	f003 fae3 	bl	dbd18 <__aeabi_d2f>
}
   d8752:	ee00 0a10 	vmov	s0, r0
   d8756:	bd10      	pop	{r4, pc}
   d8758:	cccccccd 	.word	0xcccccccd
   d875c:	40476ccc 	.word	0x40476ccc
   d8760:	37800000 	.word	0x37800000
   d8764:	3d70a3d7 	.word	0x3d70a3d7
   d8768:	4065f70a 	.word	0x4065f70a

000d876c <_ZN15Adafruit_Si70215resetEv>:

void Adafruit_Si7021::reset(void) {
   d876c:	b510      	push	{r4, lr}
   d876e:	4604      	mov	r4, r0
  Wire.beginTransmission(_i2caddr);
   d8770:	f002 fca6 	bl	db0c0 <_Z19__fetch_global_Wirev>
   d8774:	f994 1008 	ldrsb.w	r1, [r4, #8]
   d8778:	f001 f8e6 	bl	d9948 <_ZN7TwoWire17beginTransmissionEi>
  Wire.write((uint8_t)SI7021_RESET_CMD);
   d877c:	f002 fca0 	bl	db0c0 <_Z19__fetch_global_Wirev>
   d8780:	6803      	ldr	r3, [r0, #0]
   d8782:	21fe      	movs	r1, #254	; 0xfe
   d8784:	689b      	ldr	r3, [r3, #8]
   d8786:	4798      	blx	r3
  Wire.endTransmission();
   d8788:	f002 fc9a 	bl	db0c0 <_Z19__fetch_global_Wirev>
   d878c:	f001 f8e3 	bl	d9956 <_ZN7TwoWire15endTransmissionEv>
  delay(50);
   d8790:	2032      	movs	r0, #50	; 0x32
}
   d8792:	e8bd 4010 	ldmia.w	sp!, {r4, lr}

void Adafruit_Si7021::reset(void) {
  Wire.beginTransmission(_i2caddr);
  Wire.write((uint8_t)SI7021_RESET_CMD);
  Wire.endTransmission();
  delay(50);
   d8796:	f000 bd9b 	b.w	d92d0 <delay>

000d879a <_ZN15Adafruit_Si702116readSerialNumberEv>:
}

void Adafruit_Si7021::readSerialNumber(void) {
   d879a:	b510      	push	{r4, lr}
   d879c:	4604      	mov	r4, r0
  Wire.beginTransmission(_i2caddr);
   d879e:	f002 fc8f 	bl	db0c0 <_Z19__fetch_global_Wirev>
   d87a2:	f994 1008 	ldrsb.w	r1, [r4, #8]
   d87a6:	f001 f8cf 	bl	d9948 <_ZN7TwoWire17beginTransmissionEi>
  Wire.write((uint8_t)SI7021_ID1_CMD>>8);
   d87aa:	f002 fc89 	bl	db0c0 <_Z19__fetch_global_Wirev>
   d87ae:	2100      	movs	r1, #0
   d87b0:	f7ff ff2e 	bl	d8610 <_ZN7TwoWire5writeEi>
  Wire.write((uint8_t)SI7021_ID1_CMD&0xFF);
   d87b4:	f002 fc84 	bl	db0c0 <_Z19__fetch_global_Wirev>
   d87b8:	210f      	movs	r1, #15
   d87ba:	f7ff ff29 	bl	d8610 <_ZN7TwoWire5writeEi>
  Wire.endTransmission();
   d87be:	f002 fc7f 	bl	db0c0 <_Z19__fetch_global_Wirev>
   d87c2:	f001 f8c8 	bl	d9956 <_ZN7TwoWire15endTransmissionEv>

  Wire.requestFrom(_i2caddr, 8);
   d87c6:	f002 fc7b 	bl	db0c0 <_Z19__fetch_global_Wirev>
   d87ca:	2208      	movs	r2, #8
   d87cc:	f994 1008 	ldrsb.w	r1, [r4, #8]
   d87d0:	f001 f8b1 	bl	d9936 <_ZN7TwoWire11requestFromEii>
  sernum_a = Wire.read();
   d87d4:	f002 fc74 	bl	db0c0 <_Z19__fetch_global_Wirev>
   d87d8:	6803      	ldr	r3, [r0, #0]
   d87da:	695b      	ldr	r3, [r3, #20]
   d87dc:	4798      	blx	r3
   d87de:	6020      	str	r0, [r4, #0]
  Wire.read();
   d87e0:	f002 fc6e 	bl	db0c0 <_Z19__fetch_global_Wirev>
   d87e4:	6803      	ldr	r3, [r0, #0]
   d87e6:	695b      	ldr	r3, [r3, #20]
   d87e8:	4798      	blx	r3
  sernum_a <<= 8;
   d87ea:	6823      	ldr	r3, [r4, #0]
   d87ec:	021b      	lsls	r3, r3, #8
   d87ee:	6023      	str	r3, [r4, #0]
  sernum_a |= Wire.read();
   d87f0:	f002 fc66 	bl	db0c0 <_Z19__fetch_global_Wirev>
   d87f4:	6803      	ldr	r3, [r0, #0]
   d87f6:	695b      	ldr	r3, [r3, #20]
   d87f8:	4798      	blx	r3
   d87fa:	6823      	ldr	r3, [r4, #0]
   d87fc:	4318      	orrs	r0, r3
   d87fe:	6020      	str	r0, [r4, #0]
  Wire.read();
   d8800:	f002 fc5e 	bl	db0c0 <_Z19__fetch_global_Wirev>
   d8804:	6803      	ldr	r3, [r0, #0]
   d8806:	695b      	ldr	r3, [r3, #20]
   d8808:	4798      	blx	r3
  sernum_a <<= 8;
   d880a:	6823      	ldr	r3, [r4, #0]
   d880c:	021b      	lsls	r3, r3, #8
   d880e:	6023      	str	r3, [r4, #0]
  sernum_a |= Wire.read();
   d8810:	f002 fc56 	bl	db0c0 <_Z19__fetch_global_Wirev>
   d8814:	6803      	ldr	r3, [r0, #0]
   d8816:	695b      	ldr	r3, [r3, #20]
   d8818:	4798      	blx	r3
   d881a:	6823      	ldr	r3, [r4, #0]
   d881c:	4318      	orrs	r0, r3
   d881e:	6020      	str	r0, [r4, #0]
  Wire.read();
   d8820:	f002 fc4e 	bl	db0c0 <_Z19__fetch_global_Wirev>
   d8824:	6803      	ldr	r3, [r0, #0]
   d8826:	695b      	ldr	r3, [r3, #20]
   d8828:	4798      	blx	r3
  sernum_a <<= 8;
   d882a:	6823      	ldr	r3, [r4, #0]
   d882c:	021b      	lsls	r3, r3, #8
   d882e:	6023      	str	r3, [r4, #0]
  sernum_a |= Wire.read();
   d8830:	f002 fc46 	bl	db0c0 <_Z19__fetch_global_Wirev>
   d8834:	6803      	ldr	r3, [r0, #0]
   d8836:	695b      	ldr	r3, [r3, #20]
   d8838:	4798      	blx	r3
   d883a:	6823      	ldr	r3, [r4, #0]
   d883c:	4318      	orrs	r0, r3
   d883e:	6020      	str	r0, [r4, #0]
  Wire.read();
   d8840:	f002 fc3e 	bl	db0c0 <_Z19__fetch_global_Wirev>
   d8844:	6803      	ldr	r3, [r0, #0]
   d8846:	695b      	ldr	r3, [r3, #20]
   d8848:	4798      	blx	r3

  Wire.beginTransmission(_i2caddr);
   d884a:	f002 fc39 	bl	db0c0 <_Z19__fetch_global_Wirev>
   d884e:	f994 1008 	ldrsb.w	r1, [r4, #8]
   d8852:	f001 f879 	bl	d9948 <_ZN7TwoWire17beginTransmissionEi>
  Wire.write((uint8_t)SI7021_ID2_CMD>>8);
   d8856:	f002 fc33 	bl	db0c0 <_Z19__fetch_global_Wirev>
   d885a:	2100      	movs	r1, #0
   d885c:	f7ff fed8 	bl	d8610 <_ZN7TwoWire5writeEi>
  Wire.write((uint8_t)SI7021_ID2_CMD&0xFF);
   d8860:	f002 fc2e 	bl	db0c0 <_Z19__fetch_global_Wirev>
   d8864:	21c9      	movs	r1, #201	; 0xc9
   d8866:	f7ff fed3 	bl	d8610 <_ZN7TwoWire5writeEi>
  Wire.endTransmission();
   d886a:	f002 fc29 	bl	db0c0 <_Z19__fetch_global_Wirev>
   d886e:	f001 f872 	bl	d9956 <_ZN7TwoWire15endTransmissionEv>

  Wire.requestFrom(_i2caddr, 8);
   d8872:	f002 fc25 	bl	db0c0 <_Z19__fetch_global_Wirev>
   d8876:	f994 1008 	ldrsb.w	r1, [r4, #8]
   d887a:	2208      	movs	r2, #8
   d887c:	f001 f85b 	bl	d9936 <_ZN7TwoWire11requestFromEii>
  sernum_b = Wire.read();
   d8880:	f002 fc1e 	bl	db0c0 <_Z19__fetch_global_Wirev>
   d8884:	6803      	ldr	r3, [r0, #0]
   d8886:	695b      	ldr	r3, [r3, #20]
   d8888:	4798      	blx	r3
   d888a:	6060      	str	r0, [r4, #4]
  Wire.read();
   d888c:	f002 fc18 	bl	db0c0 <_Z19__fetch_global_Wirev>
   d8890:	6803      	ldr	r3, [r0, #0]
   d8892:	695b      	ldr	r3, [r3, #20]
   d8894:	4798      	blx	r3
  sernum_b <<= 8;
   d8896:	6863      	ldr	r3, [r4, #4]
   d8898:	021b      	lsls	r3, r3, #8
   d889a:	6063      	str	r3, [r4, #4]
  sernum_b |= Wire.read();
   d889c:	f002 fc10 	bl	db0c0 <_Z19__fetch_global_Wirev>
   d88a0:	6803      	ldr	r3, [r0, #0]
   d88a2:	695b      	ldr	r3, [r3, #20]
   d88a4:	4798      	blx	r3
   d88a6:	6863      	ldr	r3, [r4, #4]
   d88a8:	4318      	orrs	r0, r3
   d88aa:	6060      	str	r0, [r4, #4]
  Wire.read();
   d88ac:	f002 fc08 	bl	db0c0 <_Z19__fetch_global_Wirev>
   d88b0:	6803      	ldr	r3, [r0, #0]
   d88b2:	695b      	ldr	r3, [r3, #20]
   d88b4:	4798      	blx	r3
  sernum_b <<= 8;
   d88b6:	6863      	ldr	r3, [r4, #4]
   d88b8:	021b      	lsls	r3, r3, #8
   d88ba:	6063      	str	r3, [r4, #4]
  sernum_b |= Wire.read();
   d88bc:	f002 fc00 	bl	db0c0 <_Z19__fetch_global_Wirev>
   d88c0:	6803      	ldr	r3, [r0, #0]
   d88c2:	695b      	ldr	r3, [r3, #20]
   d88c4:	4798      	blx	r3
   d88c6:	6863      	ldr	r3, [r4, #4]
   d88c8:	4318      	orrs	r0, r3
   d88ca:	6060      	str	r0, [r4, #4]
  Wire.read();
   d88cc:	f002 fbf8 	bl	db0c0 <_Z19__fetch_global_Wirev>
   d88d0:	6803      	ldr	r3, [r0, #0]
   d88d2:	695b      	ldr	r3, [r3, #20]
   d88d4:	4798      	blx	r3
  sernum_b <<= 8;
   d88d6:	6863      	ldr	r3, [r4, #4]
   d88d8:	021b      	lsls	r3, r3, #8
   d88da:	6063      	str	r3, [r4, #4]
  sernum_b |= Wire.read();
   d88dc:	f002 fbf0 	bl	db0c0 <_Z19__fetch_global_Wirev>
   d88e0:	6803      	ldr	r3, [r0, #0]
   d88e2:	695b      	ldr	r3, [r3, #20]
   d88e4:	4798      	blx	r3
   d88e6:	6863      	ldr	r3, [r4, #4]
   d88e8:	4318      	orrs	r0, r3
   d88ea:	6060      	str	r0, [r4, #4]
  Wire.read();
   d88ec:	f002 fbe8 	bl	db0c0 <_Z19__fetch_global_Wirev>
   d88f0:	6803      	ldr	r3, [r0, #0]
}
   d88f2:	e8bd 4010 	ldmia.w	sp!, {r4, lr}
  sernum_b <<= 8;
  sernum_b |= Wire.read();
  Wire.read();
  sernum_b <<= 8;
  sernum_b |= Wire.read();
  Wire.read();
   d88f6:	695b      	ldr	r3, [r3, #20]
   d88f8:	4718      	bx	r3

000d88fa <_ZN15Adafruit_Si702113readRegister8Eh>:
  Wire.endTransmission();

  //Serial.print("Wrote $"); Serial.print(reg, HEX); Serial.print(": 0x"); Serial.println(value, HEX);
}

uint8_t Adafruit_Si7021::readRegister8(uint8_t reg) {
   d88fa:	b538      	push	{r3, r4, r5, lr}
   d88fc:	4604      	mov	r4, r0
   d88fe:	460d      	mov	r5, r1
  uint8_t value;
  Wire.beginTransmission(_i2caddr);
   d8900:	f002 fbde 	bl	db0c0 <_Z19__fetch_global_Wirev>
   d8904:	f994 1008 	ldrsb.w	r1, [r4, #8]
   d8908:	f001 f81e 	bl	d9948 <_ZN7TwoWire17beginTransmissionEi>
  Wire.write((uint8_t)reg);
   d890c:	f002 fbd8 	bl	db0c0 <_Z19__fetch_global_Wirev>
   d8910:	6803      	ldr	r3, [r0, #0]
   d8912:	4629      	mov	r1, r5
   d8914:	689b      	ldr	r3, [r3, #8]
   d8916:	4798      	blx	r3
  Wire.endTransmission(false);
   d8918:	f002 fbd2 	bl	db0c0 <_Z19__fetch_global_Wirev>
   d891c:	2100      	movs	r1, #0
   d891e:	f001 f816 	bl	d994e <_ZN7TwoWire15endTransmissionEh>

  Wire.requestFrom(_i2caddr, 1);
   d8922:	f002 fbcd 	bl	db0c0 <_Z19__fetch_global_Wirev>
   d8926:	2201      	movs	r2, #1
   d8928:	f994 1008 	ldrsb.w	r1, [r4, #8]
   d892c:	f001 f803 	bl	d9936 <_ZN7TwoWire11requestFromEii>
  value = Wire.read();
   d8930:	f002 fbc6 	bl	db0c0 <_Z19__fetch_global_Wirev>
   d8934:	6803      	ldr	r3, [r0, #0]
   d8936:	695b      	ldr	r3, [r3, #20]
   d8938:	4798      	blx	r3

  //Serial.print("Read $"); Serial.print(reg, HEX); Serial.print(": 0x"); Serial.println(value, HEX);
  return value;
}
   d893a:	b2c0      	uxtb	r0, r0
   d893c:	bd38      	pop	{r3, r4, r5, pc}

000d893e <_ZN15Adafruit_Si70215beginEv>:
Adafruit_Si7021::Adafruit_Si7021(void) {
  _i2caddr = SI7021_DEFAULT_ADDRESS;
  sernum_a = sernum_b = 0;
}

bool Adafruit_Si7021::begin(void) {
   d893e:	b510      	push	{r4, lr}
   d8940:	4604      	mov	r4, r0
  Wire.begin();
   d8942:	f002 fbbd 	bl	db0c0 <_Z19__fetch_global_Wirev>
   d8946:	f000 ffe7 	bl	d9918 <_ZN7TwoWire5beginEv>

  reset();
   d894a:	4620      	mov	r0, r4
   d894c:	f7ff ff0e 	bl	d876c <_ZN15Adafruit_Si70215resetEv>
  if (readRegister8(SI7021_READRHT_REG_CMD) != 0x3A) return false;
   d8950:	21e7      	movs	r1, #231	; 0xe7
   d8952:	4620      	mov	r0, r4
   d8954:	f7ff ffd1 	bl	d88fa <_ZN15Adafruit_Si702113readRegister8Eh>
   d8958:	283a      	cmp	r0, #58	; 0x3a
   d895a:	d104      	bne.n	d8966 <_ZN15Adafruit_Si70215beginEv+0x28>

  readSerialNumber();
   d895c:	4620      	mov	r0, r4
   d895e:	f7ff ff1c 	bl	d879a <_ZN15Adafruit_Si702116readSerialNumberEv>

  //Serial.println(sernum_a, HEX);
  //Serial.println(sernum_b, HEX);

  return true;
   d8962:	2001      	movs	r0, #1
   d8964:	bd10      	pop	{r4, pc}

bool Adafruit_Si7021::begin(void) {
  Wire.begin();

  reset();
  if (readRegister8(SI7021_READRHT_REG_CMD) != 0x3A) return false;
   d8966:	2000      	movs	r0, #0

  //Serial.println(sernum_a, HEX);
  //Serial.println(sernum_b, HEX);

  return true;
}
   d8968:	bd10      	pop	{r4, pc}

000d896a <_ZN8DebounceC1Ev>:

Debounce::Debounce()
    : previous_millis(0)
    , interval_millis(10)
    , state(0)
    , pin(0)
   d896a:	2200      	movs	r2, #0
   d896c:	210a      	movs	r1, #10
   d896e:	6002      	str	r2, [r0, #0]
   d8970:	8081      	strh	r1, [r0, #4]
   d8972:	7182      	strb	r2, [r0, #6]
   d8974:	71c2      	strb	r2, [r0, #7]
{}
   d8976:	4770      	bx	lr

000d8978 <_ZN8Debounce6attachEi>:

void Debounce::attach(int pin) {
    this->pin = pin;
    state = 0;
   d8978:	2300      	movs	r3, #0
    , interval_millis(10)
    , state(0)
    , pin(0)
{}

void Debounce::attach(int pin) {
   d897a:	b510      	push	{r4, lr}
   d897c:	4604      	mov	r4, r0
    this->pin = pin;
   d897e:	71c1      	strb	r1, [r0, #7]
    state = 0;
   d8980:	7183      	strb	r3, [r0, #6]
    if (digitalRead(pin)) {
   d8982:	b288      	uxth	r0, r1
   d8984:	f002 fb14 	bl	dafb0 <digitalRead>
   d8988:	b108      	cbz	r0, d898e <_ZN8Debounce6attachEi+0x16>
        state = _BV(DEBOUNCED_STATE) | _BV(UNSTABLE_STATE);
   d898a:	2303      	movs	r3, #3
   d898c:	71a3      	strb	r3, [r4, #6]
#endif

#include "timer_hal.h"
#include "delay_hal.h"

inline system_tick_t millis(void) { return HAL_Timer_Get_Milli_Seconds(); }
   d898e:	f000 f99f 	bl	d8cd0 <HAL_Timer_Get_Milli_Seconds>
    }
#ifdef BOUNCE_LOCK_OUT
    previous_millis = 0;
#else
    previous_millis = millis();
   d8992:	6020      	str	r0, [r4, #0]
   d8994:	bd10      	pop	{r4, pc}

000d8996 <_ZN8Debounce6attachEi7PinMode>:
#endif
}

void Debounce::attach(int pin, PinMode mode){
   d8996:	b538      	push	{r3, r4, r5, lr}
   d8998:	460c      	mov	r4, r1
   d899a:	4605      	mov	r5, r0
  pinMode(pin, mode);
   d899c:	4611      	mov	r1, r2
   d899e:	b2a0      	uxth	r0, r4
   d89a0:	f002 fadc 	bl	daf5c <pinMode>
  
  this->attach(pin);
   d89a4:	4621      	mov	r1, r4
   d89a6:	4628      	mov	r0, r5
}
   d89a8:	e8bd 4038 	ldmia.w	sp!, {r3, r4, r5, lr}
}

void Debounce::attach(int pin, PinMode mode){
  pinMode(pin, mode);
  
  this->attach(pin);
   d89ac:	f7ff bfe4 	b.w	d8978 <_ZN8Debounce6attachEi>

000d89b0 <_ZN8Debounce8intervalEt>:
}

void Debounce::interval(uint16_t interval_millis)
{
    this->interval_millis = interval_millis;
   d89b0:	8081      	strh	r1, [r0, #4]
   d89b2:	4770      	bx	lr

000d89b4 <_ZN8Debounce6updateEv>:
}

bool Debounce::update()
{
   d89b4:	b538      	push	{r3, r4, r5, lr}
   d89b6:	4604      	mov	r4, r0
    }
    // return just the sate changed bit
    return state & _BV(STATE_CHANGED);
#else
    // Read the state of the switch in a temporary variable.
    bool currentState = digitalRead(pin);
   d89b8:	79c0      	ldrb	r0, [r0, #7]
   d89ba:	f002 faf9 	bl	dafb0 <digitalRead>
    state &= ~_BV(STATE_CHANGED);
   d89be:	79a3      	ldrb	r3, [r4, #6]
    }
    // return just the sate changed bit
    return state & _BV(STATE_CHANGED);
#else
    // Read the state of the switch in a temporary variable.
    bool currentState = digitalRead(pin);
   d89c0:	1c05      	adds	r5, r0, #0
    state &= ~_BV(STATE_CHANGED);
   d89c2:	f023 0208 	bic.w	r2, r3, #8
    }
    // return just the sate changed bit
    return state & _BV(STATE_CHANGED);
#else
    // Read the state of the switch in a temporary variable.
    bool currentState = digitalRead(pin);
   d89c6:	bf18      	it	ne
   d89c8:	2501      	movne	r5, #1
    state &= ~_BV(STATE_CHANGED);

    // If the reading is different from last reading, reset the debounce counter
    if ( currentState != (bool)(state & _BV(UNSTABLE_STATE)) ) {
   d89ca:	f3c3 0340 	ubfx	r3, r3, #1, #1
   d89ce:	429d      	cmp	r5, r3
    // return just the sate changed bit
    return state & _BV(STATE_CHANGED);
#else
    // Read the state of the switch in a temporary variable.
    bool currentState = digitalRead(pin);
    state &= ~_BV(STATE_CHANGED);
   d89d0:	71a2      	strb	r2, [r4, #6]

    // If the reading is different from last reading, reset the debounce counter
    if ( currentState != (bool)(state & _BV(UNSTABLE_STATE)) ) {
   d89d2:	d006      	beq.n	d89e2 <_ZN8Debounce6updateEv+0x2e>
   d89d4:	f000 f97c 	bl	d8cd0 <HAL_Timer_Get_Milli_Seconds>
        previous_millis = millis();
        state ^= _BV(UNSTABLE_STATE);
   d89d8:	79a3      	ldrb	r3, [r4, #6]
    bool currentState = digitalRead(pin);
    state &= ~_BV(STATE_CHANGED);

    // If the reading is different from last reading, reset the debounce counter
    if ( currentState != (bool)(state & _BV(UNSTABLE_STATE)) ) {
        previous_millis = millis();
   d89da:	6020      	str	r0, [r4, #0]
        state ^= _BV(UNSTABLE_STATE);
   d89dc:	f083 0302 	eor.w	r3, r3, #2
   d89e0:	e013      	b.n	d8a0a <_ZN8Debounce6updateEv+0x56>
   d89e2:	f000 f975 	bl	d8cd0 <HAL_Timer_Get_Milli_Seconds>
    } else
        if ( millis() - previous_millis >= interval_millis ) {
   d89e6:	6823      	ldr	r3, [r4, #0]
   d89e8:	1ac0      	subs	r0, r0, r3
   d89ea:	88a3      	ldrh	r3, [r4, #4]
   d89ec:	4298      	cmp	r0, r3
   d89ee:	d30d      	bcc.n	d8a0c <_ZN8Debounce6updateEv+0x58>
            // We have passed the threshold time, so the input is now stable
            // If it is different from last state, set the STATE_CHANGED flag
            if ((bool)(state & _BV(DEBOUNCED_STATE)) != currentState) {
   d89f0:	79a3      	ldrb	r3, [r4, #6]
   d89f2:	f003 0301 	and.w	r3, r3, #1
   d89f6:	429d      	cmp	r5, r3
   d89f8:	d008      	beq.n	d8a0c <_ZN8Debounce6updateEv+0x58>
   d89fa:	f000 f969 	bl	d8cd0 <HAL_Timer_Get_Milli_Seconds>
                previous_millis = millis();
                state ^= _BV(DEBOUNCED_STATE);
                state |= _BV(STATE_CHANGED);
   d89fe:	79a3      	ldrb	r3, [r4, #6]
    } else
        if ( millis() - previous_millis >= interval_millis ) {
            // We have passed the threshold time, so the input is now stable
            // If it is different from last state, set the STATE_CHANGED flag
            if ((bool)(state & _BV(DEBOUNCED_STATE)) != currentState) {
                previous_millis = millis();
   d8a00:	6020      	str	r0, [r4, #0]
                state ^= _BV(DEBOUNCED_STATE);
                state |= _BV(STATE_CHANGED);
   d8a02:	f083 0301 	eor.w	r3, r3, #1
   d8a06:	f043 0308 	orr.w	r3, r3, #8
   d8a0a:	71a3      	strb	r3, [r4, #6]
            }
        }

    return state & _BV(STATE_CHANGED);
   d8a0c:	79a0      	ldrb	r0, [r4, #6]
#endif
}
   d8a0e:	f3c0 00c0 	ubfx	r0, r0, #3, #1
   d8a12:	bd38      	pop	{r3, r4, r5, pc}

000d8a14 <_ZN8Debounce4readEv>:

bool Debounce::read()
{
    return state & _BV(DEBOUNCED_STATE);
   d8a14:	7980      	ldrb	r0, [r0, #6]
}
   d8a16:	f000 0001 	and.w	r0, r0, #1
   d8a1a:	4770      	bx	lr

000d8a1c <_ZN12qMenuDisplayC1Ev>:
#include "qMenuDisplay.h"

qMenuDisplay::qMenuDisplay()
   d8a1c:	230c      	movs	r3, #12
   d8a1e:	6043      	str	r3, [r0, #4]
{
}
   d8a20:	4770      	bx	lr

000d8a22 <_ZN12qMenuDisplayC1EP16Adafruit_SSD1306>:

qMenuDisplay::qMenuDisplay(Adafruit_SSD1306 *disp)
   d8a22:	220c      	movs	r2, #12
{
  _disp = disp;
   d8a24:	e880 0006 	stmia.w	r0, {r1, r2}
}
   d8a28:	4770      	bx	lr

000d8a2a <_ZN12qMenuDisplay5BeginEv>:

void qMenuDisplay::Begin()
{
   d8a2a:	b510      	push	{r4, lr}
   d8a2c:	4604      	mov	r4, r0
  _disp->stopscroll();
   d8a2e:	6800      	ldr	r0, [r0, #0]
   d8a30:	f7ff fd6c 	bl	d850c <_ZN16Adafruit_SSD130610stopscrollEv>
  _disp->clearDisplay();
   d8a34:	6820      	ldr	r0, [r4, #0]
   d8a36:	f7ff fde3 	bl	d8600 <_ZN16Adafruit_SSD130612clearDisplayEv>
  _disp->setCursor(0, 0);
   d8a3a:	2200      	movs	r2, #0
   d8a3c:	4611      	mov	r1, r2
   d8a3e:	6820      	ldr	r0, [r4, #0]
   d8a40:	f7ff f9ab 	bl	d7d9a <_ZN12Adafruit_GFX9setCursorEss>
  _disp->setTextWrap(true);
   d8a44:	6820      	ldr	r0, [r4, #0]
   d8a46:	2101      	movs	r1, #1
   d8a48:	f7ff f9b2 	bl	d7db0 <_ZN12Adafruit_GFX11setTextWrapEb>
  _disp->setTextColor(WHITE);
   d8a4c:	6820      	ldr	r0, [r4, #0]
   d8a4e:	2101      	movs	r1, #1
   d8a50:	f7ff f9ab 	bl	d7daa <_ZN12Adafruit_GFX12setTextColorEt>
  _disp->setTextSize(1);
   d8a54:	6820      	ldr	r0, [r4, #0]
   d8a56:	2101      	movs	r1, #1
}
   d8a58:	e8bd 4010 	ldmia.w	sp!, {r4, lr}
  _disp->stopscroll();
  _disp->clearDisplay();
  _disp->setCursor(0, 0);
  _disp->setTextWrap(true);
  _disp->setTextColor(WHITE);
  _disp->setTextSize(1);
   d8a5c:	f7ff b9a0 	b.w	d7da0 <_ZN12Adafruit_GFX11setTextSizeEh>

000d8a60 <_ZN12qMenuDisplay5StartEv>:
}

void qMenuDisplay::Start()
{
   d8a60:	b510      	push	{r4, lr}
   d8a62:	4604      	mov	r4, r0
  _disp->stopscroll();
   d8a64:	6800      	ldr	r0, [r0, #0]
   d8a66:	f7ff fd51 	bl	d850c <_ZN16Adafruit_SSD130610stopscrollEv>
  _disp->clearDisplay();
   d8a6a:	6820      	ldr	r0, [r4, #0]
   d8a6c:	f7ff fdc8 	bl	d8600 <_ZN16Adafruit_SSD130612clearDisplayEv>
  _disp->setTextColor(WHITE);
   d8a70:	6820      	ldr	r0, [r4, #0]
   d8a72:	2101      	movs	r1, #1
}
   d8a74:	e8bd 4010 	ldmia.w	sp!, {r4, lr}

void qMenuDisplay::Start()
{
  _disp->stopscroll();
  _disp->clearDisplay();
  _disp->setTextColor(WHITE);
   d8a78:	f7ff b997 	b.w	d7daa <_ZN12Adafruit_GFX12setTextColorEt>

000d8a7c <_ZN12qMenuDisplay6FinishEv>:
}

void qMenuDisplay::Finish()
{
   d8a7c:	4770      	bx	lr

000d8a7e <_ZN12qMenuDisplay5TitleEPKc>:
  // _disp->display();
}

void qMenuDisplay::Title(const char text[])
{
   d8a7e:	b537      	push	{r0, r1, r2, r4, r5, lr}
   d8a80:	4604      	mov	r4, r0
  _disp->setCursor(0, 11 - textHeight / 2);
   d8a82:	6843      	ldr	r3, [r0, #4]
   d8a84:	6800      	ldr	r0, [r0, #0]
   d8a86:	2202      	movs	r2, #2
   d8a88:	fb93 f2f2 	sdiv	r2, r3, r2
   d8a8c:	f1c2 020b 	rsb	r2, r2, #11
   d8a90:	b212      	sxth	r2, r2
{
  // _disp->display();
}

void qMenuDisplay::Title(const char text[])
{
   d8a92:	460d      	mov	r5, r1
  _disp->setCursor(0, 11 - textHeight / 2);
   d8a94:	2100      	movs	r1, #0
   d8a96:	f7ff f980 	bl	d7d9a <_ZN12Adafruit_GFX9setCursorEss>
  _disp->setTextColor(WHITE);
   d8a9a:	6820      	ldr	r0, [r4, #0]
   d8a9c:	2101      	movs	r1, #1
   d8a9e:	f7ff f984 	bl	d7daa <_ZN12Adafruit_GFX12setTextColorEt>
  _disp->println(text);
   d8aa2:	4629      	mov	r1, r5
   d8aa4:	6820      	ldr	r0, [r4, #0]
   d8aa6:	f001 fa06 	bl	d9eb6 <_ZN5Print7printlnEPKc>
  _disp->drawFastHLine(0, 14, 128, WHITE);
   d8aaa:	6820      	ldr	r0, [r4, #0]
   d8aac:	2201      	movs	r2, #1
   d8aae:	6803      	ldr	r3, [r0, #0]
   d8ab0:	9200      	str	r2, [sp, #0]
   d8ab2:	69dd      	ldr	r5, [r3, #28]
   d8ab4:	220e      	movs	r2, #14
   d8ab6:	2380      	movs	r3, #128	; 0x80
   d8ab8:	2100      	movs	r1, #0
   d8aba:	47a8      	blx	r5
  _disp->display();
   d8abc:	6820      	ldr	r0, [r4, #0]
}
   d8abe:	b003      	add	sp, #12
   d8ac0:	e8bd 4030 	ldmia.w	sp!, {r4, r5, lr}
{
  _disp->setCursor(0, 11 - textHeight / 2);
  _disp->setTextColor(WHITE);
  _disp->println(text);
  _disp->drawFastHLine(0, 14, 128, WHITE);
  _disp->display();
   d8ac4:	f7ff bd26 	b.w	d8514 <_ZN16Adafruit_SSD13067displayEv>

000d8ac8 <_ZN12qMenuDisplay4ItemEiPKc>:
}

void qMenuDisplay::Item(int index, const char text[])
{
   d8ac8:	b538      	push	{r3, r4, r5, lr}
  _disp->setCursor(5, (index * 14) + 32 - textHeight / 2);
   d8aca:	ebc1 01c1 	rsb	r1, r1, r1, lsl #3
  _disp->drawFastHLine(0, 14, 128, WHITE);
  _disp->display();
}

void qMenuDisplay::Item(int index, const char text[])
{
   d8ace:	4615      	mov	r5, r2
  _disp->setCursor(5, (index * 14) + 32 - textHeight / 2);
   d8ad0:	6843      	ldr	r3, [r0, #4]
   d8ad2:	2202      	movs	r2, #2
   d8ad4:	fb93 f3f2 	sdiv	r3, r3, r2
   d8ad8:	f1c3 0320 	rsb	r3, r3, #32
   d8adc:	eb03 0241 	add.w	r2, r3, r1, lsl #1
  _disp->drawFastHLine(0, 14, 128, WHITE);
  _disp->display();
}

void qMenuDisplay::Item(int index, const char text[])
{
   d8ae0:	4604      	mov	r4, r0
  _disp->setCursor(5, (index * 14) + 32 - textHeight / 2);
   d8ae2:	b212      	sxth	r2, r2
   d8ae4:	2105      	movs	r1, #5
   d8ae6:	6800      	ldr	r0, [r0, #0]
   d8ae8:	f7ff f957 	bl	d7d9a <_ZN12Adafruit_GFX9setCursorEss>
  _disp->setTextColor(WHITE);
   d8aec:	6820      	ldr	r0, [r4, #0]
   d8aee:	2101      	movs	r1, #1
   d8af0:	f7ff f95b 	bl	d7daa <_ZN12Adafruit_GFX12setTextColorEt>
  _disp->println(text);
   d8af4:	4629      	mov	r1, r5
   d8af6:	6820      	ldr	r0, [r4, #0]
   d8af8:	f001 f9dd 	bl	d9eb6 <_ZN5Print7printlnEPKc>
  _disp->display();
   d8afc:	6820      	ldr	r0, [r4, #0]
}
   d8afe:	e8bd 4038 	ldmia.w	sp!, {r3, r4, r5, lr}
void qMenuDisplay::Item(int index, const char text[])
{
  _disp->setCursor(5, (index * 14) + 32 - textHeight / 2);
  _disp->setTextColor(WHITE);
  _disp->println(text);
  _disp->display();
   d8b02:	f7ff bd07 	b.w	d8514 <_ZN16Adafruit_SSD13067displayEv>

000d8b06 <_ZN12qMenuDisplay9HighlightEi>:
}

void qMenuDisplay::Highlight(int index)
{
   d8b06:	b537      	push	{r0, r1, r2, r4, r5, lr}
   d8b08:	4604      	mov	r4, r0
  _disp->drawRect(0, (index * 14) + 22, 95, 13, WHITE);
   d8b0a:	ebc1 01c1 	rsb	r1, r1, r1, lsl #3
   d8b0e:	6800      	ldr	r0, [r0, #0]
   d8b10:	004a      	lsls	r2, r1, #1
   d8b12:	2501      	movs	r5, #1
   d8b14:	210d      	movs	r1, #13
   d8b16:	6803      	ldr	r3, [r0, #0]
   d8b18:	e88d 0022 	stmia.w	sp, {r1, r5}
   d8b1c:	3216      	adds	r2, #22
   d8b1e:	6a1d      	ldr	r5, [r3, #32]
   d8b20:	b212      	sxth	r2, r2
   d8b22:	235f      	movs	r3, #95	; 0x5f
   d8b24:	2100      	movs	r1, #0
   d8b26:	47a8      	blx	r5
  _disp->display();
   d8b28:	6820      	ldr	r0, [r4, #0]
}
   d8b2a:	b003      	add	sp, #12
   d8b2c:	e8bd 4030 	ldmia.w	sp!, {r4, r5, lr}
}

void qMenuDisplay::Highlight(int index)
{
  _disp->drawRect(0, (index * 14) + 22, 95, 13, WHITE);
  _disp->display();
   d8b30:	f7ff bcf0 	b.w	d8514 <_ZN16Adafruit_SSD13067displayEv>

000d8b34 <_ZN12qMenuDisplay10MessageBoxEPKc>:
}

void qMenuDisplay::MessageBox(const char text[])
{
   d8b34:	b570      	push	{r4, r5, r6, lr}
   d8b36:	4605      	mov	r5, r0
  int textWidth = strlen(text) * 9;
   d8b38:	4608      	mov	r0, r1
  _disp->drawRect(0, (index * 14) + 22, 95, 13, WHITE);
  _disp->display();
}

void qMenuDisplay::MessageBox(const char text[])
{
   d8b3a:	460e      	mov	r6, r1
  int textWidth = strlen(text) * 9;
   d8b3c:	f003 f9dd 	bl	dbefa <strlen>
   d8b40:	4604      	mov	r4, r0
  int x = 64 - (textWidth / 2);
  int y = 32;
  _disp->clearDisplay();
   d8b42:	6828      	ldr	r0, [r5, #0]
   d8b44:	f7ff fd5c 	bl	d8600 <_ZN16Adafruit_SSD130612clearDisplayEv>

  _disp->setCursor(x + 10, y + 5 - textHeight / 2);
   d8b48:	eb04 04c4 	add.w	r4, r4, r4, lsl #3
   d8b4c:	686a      	ldr	r2, [r5, #4]
   d8b4e:	6828      	ldr	r0, [r5, #0]
   d8b50:	2102      	movs	r1, #2
   d8b52:	fb92 f2f1 	sdiv	r2, r2, r1
   d8b56:	fb94 f1f1 	sdiv	r1, r4, r1
   d8b5a:	f1c2 0225 	rsb	r2, r2, #37	; 0x25
   d8b5e:	f1c1 014a 	rsb	r1, r1, #74	; 0x4a
   d8b62:	b212      	sxth	r2, r2
   d8b64:	b209      	sxth	r1, r1
   d8b66:	f7ff f918 	bl	d7d9a <_ZN12Adafruit_GFX9setCursorEss>
  _disp->println(text);
   d8b6a:	4631      	mov	r1, r6
   d8b6c:	6828      	ldr	r0, [r5, #0]
   d8b6e:	f001 f9a2 	bl	d9eb6 <_ZN5Print7printlnEPKc>
  _disp->display();
   d8b72:	6828      	ldr	r0, [r5, #0]
}
   d8b74:	e8bd 4070 	ldmia.w	sp!, {r4, r5, r6, lr}
  int y = 32;
  _disp->clearDisplay();

  _disp->setCursor(x + 10, y + 5 - textHeight / 2);
  _disp->println(text);
  _disp->display();
   d8b78:	f7ff bccc 	b.w	d8514 <_ZN16Adafruit_SSD13067displayEv>

000d8b7c <_ZN11qMenuSystemC1EP16Adafruit_SSD1306>:
#include "qMenuSystem.h"
#include "qMenuDisplay.h"

qMenuSystem::qMenuSystem(Adafruit_SSD1306 *disp)
   d8b7c:	b5f7      	push	{r0, r1, r2, r4, r5, r6, r7, lr}
   d8b7e:	f100 0530 	add.w	r5, r0, #48	; 0x30
   d8b82:	4604      	mov	r4, r0
   d8b84:	460f      	mov	r7, r1
   d8b86:	4628      	mov	r0, r5
   d8b88:	f7ff ff48 	bl	d8a1c <_ZN12qMenuDisplayC1Ev>
{
  qmd = qMenuDisplay(disp);
   d8b8c:	4639      	mov	r1, r7
   d8b8e:	4668      	mov	r0, sp
   d8b90:	f7ff ff47 	bl	d8a22 <_ZN12qMenuDisplayC1EP16Adafruit_SSD1306>
   d8b94:	e89d 0003 	ldmia.w	sp, {r0, r1}
  _selectedIndex = 0;
   d8b98:	2300      	movs	r3, #0
#include "qMenuSystem.h"
#include "qMenuDisplay.h"

qMenuSystem::qMenuSystem(Adafruit_SSD1306 *disp)
{
  qmd = qMenuDisplay(disp);
   d8b9a:	e885 0003 	stmia.w	r5, {r0, r1}
  _selectedIndex = 0;
   d8b9e:	6063      	str	r3, [r4, #4]
  _itemCount = 0;
   d8ba0:	60a3      	str	r3, [r4, #8]
  _firstVisible = 1;
}
   d8ba2:	4620      	mov	r0, r4
qMenuSystem::qMenuSystem(Adafruit_SSD1306 *disp)
{
  qmd = qMenuDisplay(disp);
  _selectedIndex = 0;
  _itemCount = 0;
  _firstVisible = 1;
   d8ba4:	2301      	movs	r3, #1
   d8ba6:	60e3      	str	r3, [r4, #12]
}
   d8ba8:	b003      	add	sp, #12
   d8baa:	bdf0      	pop	{r4, r5, r6, r7, pc}

000d8bac <_ZN11qMenuSystem8ShowMenuEv>:

  return 0;
}

void qMenuSystem::ShowMenu()
{
   d8bac:	e92d 41f0 	stmdb	sp!, {r4, r5, r6, r7, r8, lr}
  if (_selectedIndex > _firstVisible + 2)
   d8bb0:	68c2      	ldr	r2, [r0, #12]
   d8bb2:	6843      	ldr	r3, [r0, #4]
   d8bb4:	1c91      	adds	r1, r2, #2
   d8bb6:	428b      	cmp	r3, r1

  return 0;
}

void qMenuSystem::ShowMenu()
{
   d8bb8:	4604      	mov	r4, r0
  if (_selectedIndex > _firstVisible + 2)
   d8bba:	dd01      	ble.n	d8bc0 <_ZN11qMenuSystem8ShowMenuEv+0x14>
    _firstVisible = _selectedIndex - 2;
   d8bbc:	3b02      	subs	r3, #2
   d8bbe:	e001      	b.n	d8bc4 <_ZN11qMenuSystem8ShowMenuEv+0x18>
  else if (_selectedIndex < _firstVisible)
   d8bc0:	4293      	cmp	r3, r2
   d8bc2:	da00      	bge.n	d8bc6 <_ZN11qMenuSystem8ShowMenuEv+0x1a>
    _firstVisible = _selectedIndex;
   d8bc4:	60e3      	str	r3, [r4, #12]

  qmd.Start();
   d8bc6:	f104 0630 	add.w	r6, r4, #48	; 0x30
   d8bca:	4630      	mov	r0, r6
   d8bcc:	f7ff ff48 	bl	d8a60 <_ZN12qMenuDisplay5StartEv>

  // display title
  strcpy_P(tempBuffer, (char *)(CurrentMenu[0]));
   d8bd0:	6823      	ldr	r3, [r4, #0]
   d8bd2:	f104 0810 	add.w	r8, r4, #16
   d8bd6:	6819      	ldr	r1, [r3, #0]
   d8bd8:	4640      	mov	r0, r8
   d8bda:	f003 f96b 	bl	dbeb4 <strcpy>
  qmd.Title(tempBuffer);
   d8bde:	4641      	mov	r1, r8
   d8be0:	4630      	mov	r0, r6
   d8be2:	f7ff ff4c 	bl	d8a7e <_ZN12qMenuDisplay5TitleEPKc>

  // display items
  int p = 3;
  if (p > (_itemCount - _firstVisible + 1))
   d8be6:	68a3      	ldr	r3, [r4, #8]
   d8be8:	68e5      	ldr	r5, [r4, #12]
   d8bea:	1b5d      	subs	r5, r3, r5
   d8bec:	2d01      	cmp	r5, #1
    p = _itemCount - _firstVisible + 1;
   d8bee:	bfd4      	ite	le
   d8bf0:	3501      	addle	r5, #1
  // display title
  strcpy_P(tempBuffer, (char *)(CurrentMenu[0]));
  qmd.Title(tempBuffer);

  // display items
  int p = 3;
   d8bf2:	2503      	movgt	r5, #3
  if (p > (_itemCount - _firstVisible + 1))
    p = _itemCount - _firstVisible + 1;
  for (int i = 0; i < p; i++)
   d8bf4:	2700      	movs	r7, #0
   d8bf6:	42bd      	cmp	r5, r7
   d8bf8:	68e3      	ldr	r3, [r4, #12]
   d8bfa:	dd0d      	ble.n	d8c18 <_ZN11qMenuSystem8ShowMenuEv+0x6c>
  {
    strcpy_P(tempBuffer, (char *)(CurrentMenu[i + _firstVisible]));
   d8bfc:	443b      	add	r3, r7
   d8bfe:	6822      	ldr	r2, [r4, #0]
   d8c00:	4640      	mov	r0, r8
   d8c02:	f852 1023 	ldr.w	r1, [r2, r3, lsl #2]
   d8c06:	f003 f955 	bl	dbeb4 <strcpy>
    qmd.Item(i, tempBuffer);
   d8c0a:	4639      	mov	r1, r7
   d8c0c:	4642      	mov	r2, r8
   d8c0e:	4630      	mov	r0, r6
   d8c10:	f7ff ff5a 	bl	d8ac8 <_ZN12qMenuDisplay4ItemEiPKc>

  // display items
  int p = 3;
  if (p > (_itemCount - _firstVisible + 1))
    p = _itemCount - _firstVisible + 1;
  for (int i = 0; i < p; i++)
   d8c14:	3701      	adds	r7, #1
   d8c16:	e7ee      	b.n	d8bf6 <_ZN11qMenuSystem8ShowMenuEv+0x4a>
    strcpy_P(tempBuffer, (char *)(CurrentMenu[i + _firstVisible]));
    qmd.Item(i, tempBuffer);
  }

  // display selection
  qmd.Highlight(_selectedIndex - _firstVisible);
   d8c18:	6861      	ldr	r1, [r4, #4]
   d8c1a:	4630      	mov	r0, r6
   d8c1c:	1ac9      	subs	r1, r1, r3
   d8c1e:	f7ff ff72 	bl	d8b06 <_ZN12qMenuDisplay9HighlightEi>

  qmd.Finish();
   d8c22:	4630      	mov	r0, r6
}
   d8c24:	e8bd 41f0 	ldmia.w	sp!, {r4, r5, r6, r7, r8, lr}
  }

  // display selection
  qmd.Highlight(_selectedIndex - _firstVisible);

  qmd.Finish();
   d8c28:	f7ff bf28 	b.w	d8a7c <_ZN12qMenuDisplay6FinishEv>

000d8c2c <_ZN11qMenuSystem8InitMenuEPPKcii>:
  _itemCount = 0;
  _firstVisible = 1;
}

void qMenuSystem::InitMenu(const char **page, int itemCount, int selectedIndex)
{
   d8c2c:	b5f8      	push	{r3, r4, r5, r6, r7, lr}
   d8c2e:	4604      	mov	r4, r0
   d8c30:	460f      	mov	r7, r1
   d8c32:	4615      	mov	r5, r2
   d8c34:	461e      	mov	r6, r3
  qmd.Begin();
   d8c36:	3030      	adds	r0, #48	; 0x30
   d8c38:	f7ff fef7 	bl	d8a2a <_ZN12qMenuDisplay5BeginEv>

  CurrentMenu = page;
   d8c3c:	6027      	str	r7, [r4, #0]
  _selectedIndex = selectedIndex;
   d8c3e:	6066      	str	r6, [r4, #4]
  _itemCount = itemCount;
   d8c40:	60a5      	str	r5, [r4, #8]
  //  ProcessMenu(ACTION_NONE);
  ShowMenu();
   d8c42:	4620      	mov	r0, r4
}
   d8c44:	e8bd 40f8 	ldmia.w	sp!, {r3, r4, r5, r6, r7, lr}

  CurrentMenu = page;
  _selectedIndex = selectedIndex;
  _itemCount = itemCount;
  //  ProcessMenu(ACTION_NONE);
  ShowMenu();
   d8c48:	f7ff bfb0 	b.w	d8bac <_ZN11qMenuSystem8ShowMenuEv>

000d8c4c <_ZN11qMenuSystem11ProcessMenuEi>:
}

int qMenuSystem::ProcessMenu(int action)
{
   d8c4c:	b508      	push	{r3, lr}
  if (action == ACTION_DOWN)
   d8c4e:	2902      	cmp	r1, #2
   d8c50:	6843      	ldr	r3, [r0, #4]
   d8c52:	d101      	bne.n	d8c58 <_ZN11qMenuSystem11ProcessMenuEi+0xc>
    _selectedIndex++;
   d8c54:	3301      	adds	r3, #1
   d8c56:	e002      	b.n	d8c5e <_ZN11qMenuSystem11ProcessMenuEi+0x12>
  if (action == ACTION_UP)
   d8c58:	2901      	cmp	r1, #1
   d8c5a:	d101      	bne.n	d8c60 <_ZN11qMenuSystem11ProcessMenuEi+0x14>
    _selectedIndex--;
   d8c5c:	3b01      	subs	r3, #1
   d8c5e:	6043      	str	r3, [r0, #4]

  if (_selectedIndex > _itemCount)
   d8c60:	6842      	ldr	r2, [r0, #4]
   d8c62:	6883      	ldr	r3, [r0, #8]
   d8c64:	429a      	cmp	r2, r3
    _selectedIndex = 1;
   d8c66:	bfc4      	itt	gt
   d8c68:	2201      	movgt	r2, #1
   d8c6a:	6042      	strgt	r2, [r0, #4]
  if (_selectedIndex < 1)
   d8c6c:	6842      	ldr	r2, [r0, #4]
   d8c6e:	2a00      	cmp	r2, #0
    _selectedIndex = _itemCount;
   d8c70:	bfd8      	it	le
   d8c72:	6043      	strle	r3, [r0, #4]

  if (action == ACTION_SELECT)
   d8c74:	2903      	cmp	r1, #3
   d8c76:	d101      	bne.n	d8c7c <_ZN11qMenuSystem11ProcessMenuEi+0x30>
    return _selectedIndex;
   d8c78:	6840      	ldr	r0, [r0, #4]
   d8c7a:	bd08      	pop	{r3, pc}

  if (action == ACTION_BACK)
   d8c7c:	2904      	cmp	r1, #4
   d8c7e:	d003      	beq.n	d8c88 <_ZN11qMenuSystem11ProcessMenuEi+0x3c>
    return -1;

  ShowMenu();
   d8c80:	f7ff ff94 	bl	d8bac <_ZN11qMenuSystem8ShowMenuEv>

  return 0;
   d8c84:	2000      	movs	r0, #0
   d8c86:	bd08      	pop	{r3, pc}

  if (action == ACTION_SELECT)
    return _selectedIndex;

  if (action == ACTION_BACK)
    return -1;
   d8c88:	f04f 30ff 	mov.w	r0, #4294967295	; 0xffffffff

  ShowMenu();

  return 0;
}
   d8c8c:	bd08      	pop	{r3, pc}
	...

000d8c90 <os_mutex_create>:
DYNALIB_FN(8, hal_concurrent, os_timer_create, int(os_timer_t*, unsigned, void(*)(os_timer_t), void*, bool, void*))
DYNALIB_FN(9, hal_concurrent, os_timer_destroy, int(os_timer_t, void*))
DYNALIB_FN(10, hal_concurrent, os_timer_get_id, int(os_timer_t, void**))
DYNALIB_FN(11, hal_concurrent, os_timer_change, int(os_timer_t, os_timer_change_t, bool, unsigned, unsigned, void*))

DYNALIB_FN(12, hal_concurrent, os_mutex_create, int(os_mutex_t*))
   d8c90:	b508      	push	{r3, lr}
   d8c92:	4b02      	ldr	r3, [pc, #8]	; (d8c9c <os_mutex_create+0xc>)
   d8c94:	681b      	ldr	r3, [r3, #0]
   d8c96:	6b1b      	ldr	r3, [r3, #48]	; 0x30
   d8c98:	9301      	str	r3, [sp, #4]
   d8c9a:	bd08      	pop	{r3, pc}
   d8c9c:	00030248 	.word	0x00030248

000d8ca0 <HAL_RNG_GetRandomNumber>:

DYNALIB_BEGIN(hal)

#if PLATFORM_ID > 3
DYNALIB_FN(0, hal, HAL_RNG_Configuration, void(void))
DYNALIB_FN(1, hal, HAL_RNG_GetRandomNumber, uint32_t(void))
   d8ca0:	b508      	push	{r3, lr}
   d8ca2:	4b02      	ldr	r3, [pc, #8]	; (d8cac <HAL_RNG_GetRandomNumber+0xc>)
   d8ca4:	681b      	ldr	r3, [r3, #0]
   d8ca6:	685b      	ldr	r3, [r3, #4]
   d8ca8:	9301      	str	r3, [sp, #4]
   d8caa:	bd08      	pop	{r3, pc}
   d8cac:	00030218 	.word	0x00030218

000d8cb0 <HAL_Delay_Microseconds>:
#else
#define BASE_IDX 0
#endif

DYNALIB_FN(BASE_IDX + 0, hal, HAL_Delay_Milliseconds, void(uint32_t))
DYNALIB_FN(BASE_IDX + 1, hal, HAL_Delay_Microseconds, void(uint32_t))
   d8cb0:	b508      	push	{r3, lr}
   d8cb2:	4b02      	ldr	r3, [pc, #8]	; (d8cbc <HAL_Delay_Microseconds+0xc>)
   d8cb4:	681b      	ldr	r3, [r3, #0]
   d8cb6:	68db      	ldr	r3, [r3, #12]
   d8cb8:	9301      	str	r3, [sp, #4]
   d8cba:	bd08      	pop	{r3, pc}
   d8cbc:	00030218 	.word	0x00030218

000d8cc0 <HAL_Timer_Get_Micro_Seconds>:
DYNALIB_FN(BASE_IDX + 2, hal, HAL_Timer_Get_Micro_Seconds, system_tick_t(void))
   d8cc0:	b508      	push	{r3, lr}
   d8cc2:	4b02      	ldr	r3, [pc, #8]	; (d8ccc <HAL_Timer_Get_Micro_Seconds+0xc>)
   d8cc4:	681b      	ldr	r3, [r3, #0]
   d8cc6:	691b      	ldr	r3, [r3, #16]
   d8cc8:	9301      	str	r3, [sp, #4]
   d8cca:	bd08      	pop	{r3, pc}
   d8ccc:	00030218 	.word	0x00030218

000d8cd0 <HAL_Timer_Get_Milli_Seconds>:
DYNALIB_FN(BASE_IDX + 3, hal, HAL_Timer_Get_Milli_Seconds, system_tick_t(void))
   d8cd0:	b508      	push	{r3, lr}
   d8cd2:	4b02      	ldr	r3, [pc, #8]	; (d8cdc <HAL_Timer_Get_Milli_Seconds+0xc>)
   d8cd4:	681b      	ldr	r3, [r3, #0]
   d8cd6:	695b      	ldr	r3, [r3, #20]
   d8cd8:	9301      	str	r3, [sp, #4]
   d8cda:	bd08      	pop	{r3, pc}
   d8cdc:	00030218 	.word	0x00030218

000d8ce0 <HAL_EEPROM_Init>:
DYNALIB_FN(BASE_IDX + 4, hal, HAL_RTC_Configuration, void(void))
DYNALIB_FN(BASE_IDX + 5, hal, HAL_RTC_Get_UnixTime, time_t(void))
DYNALIB_FN(BASE_IDX + 6, hal, HAL_RTC_Set_UnixTime, void(time_t))
DYNALIB_FN(BASE_IDX + 7, hal, HAL_RTC_Set_UnixAlarm, void(time_t))

DYNALIB_FN(BASE_IDX + 8, hal, HAL_EEPROM_Init, void(void))
   d8ce0:	b508      	push	{r3, lr}
   d8ce2:	4b02      	ldr	r3, [pc, #8]	; (d8cec <HAL_EEPROM_Init+0xc>)
   d8ce4:	681b      	ldr	r3, [r3, #0]
   d8ce6:	6a9b      	ldr	r3, [r3, #40]	; 0x28
   d8ce8:	9301      	str	r3, [sp, #4]
   d8cea:	bd08      	pop	{r3, pc}
   d8cec:	00030218 	.word	0x00030218

000d8cf0 <HAL_EEPROM_Get>:

DYNALIB_FN(BASE_IDX + 12, hal, HAL_disable_irq, int(void))
DYNALIB_FN(BASE_IDX + 13, hal, HAL_enable_irq, void(int))
DYNALIB_FN(BASE_IDX + 14, hal, HAL_RTC_Cancel_UnixAlarm, void(void))

DYNALIB_FN(BASE_IDX + 15, hal,HAL_EEPROM_Get, void(uint32_t, void *, size_t))
   d8cf0:	b508      	push	{r3, lr}
   d8cf2:	4b02      	ldr	r3, [pc, #8]	; (d8cfc <HAL_EEPROM_Get+0xc>)
   d8cf4:	681b      	ldr	r3, [r3, #0]
   d8cf6:	6c5b      	ldr	r3, [r3, #68]	; 0x44
   d8cf8:	9301      	str	r3, [sp, #4]
   d8cfa:	bd08      	pop	{r3, pc}
   d8cfc:	00030218 	.word	0x00030218

000d8d00 <HAL_EEPROM_Put>:
DYNALIB_FN(BASE_IDX + 16, hal,HAL_EEPROM_Put, void(uint32_t, const void *, size_t))
   d8d00:	b508      	push	{r3, lr}
   d8d02:	4b02      	ldr	r3, [pc, #8]	; (d8d0c <HAL_EEPROM_Put+0xc>)
   d8d04:	681b      	ldr	r3, [r3, #0]
   d8d06:	6c9b      	ldr	r3, [r3, #72]	; 0x48
   d8d08:	9301      	str	r3, [sp, #4]
   d8d0a:	bd08      	pop	{r3, pc}
   d8d0c:	00030218 	.word	0x00030218

000d8d10 <HAL_Validate_Pin_Function>:
// GNINRAW

DYNALIB_BEGIN(hal_gpio)

DYNALIB_FN(0, hal_gpio, HAL_Pin_Map, STM32_Pin_Info*(void))
DYNALIB_FN(1, hal_gpio, HAL_Validate_Pin_Function, PinFunction(pin_t, PinFunction))
   d8d10:	b508      	push	{r3, lr}
   d8d12:	4b02      	ldr	r3, [pc, #8]	; (d8d1c <HAL_Validate_Pin_Function+0xc>)
   d8d14:	681b      	ldr	r3, [r3, #0]
   d8d16:	685b      	ldr	r3, [r3, #4]
   d8d18:	9301      	str	r3, [sp, #4]
   d8d1a:	bd08      	pop	{r3, pc}
   d8d1c:	0003022c 	.word	0x0003022c

000d8d20 <HAL_Pin_Mode>:
DYNALIB_FN(2, hal_gpio, HAL_Pin_Mode, void(pin_t, PinMode))
   d8d20:	b508      	push	{r3, lr}
   d8d22:	4b02      	ldr	r3, [pc, #8]	; (d8d2c <HAL_Pin_Mode+0xc>)
   d8d24:	681b      	ldr	r3, [r3, #0]
   d8d26:	689b      	ldr	r3, [r3, #8]
   d8d28:	9301      	str	r3, [sp, #4]
   d8d2a:	bd08      	pop	{r3, pc}
   d8d2c:	0003022c 	.word	0x0003022c

000d8d30 <HAL_Get_Pin_Mode>:
DYNALIB_FN(3, hal_gpio, HAL_Get_Pin_Mode, PinMode(pin_t))
   d8d30:	b508      	push	{r3, lr}
   d8d32:	4b02      	ldr	r3, [pc, #8]	; (d8d3c <HAL_Get_Pin_Mode+0xc>)
   d8d34:	681b      	ldr	r3, [r3, #0]
   d8d36:	68db      	ldr	r3, [r3, #12]
   d8d38:	9301      	str	r3, [sp, #4]
   d8d3a:	bd08      	pop	{r3, pc}
   d8d3c:	0003022c 	.word	0x0003022c

000d8d40 <HAL_GPIO_Write>:
DYNALIB_FN(4, hal_gpio, HAL_GPIO_Write, void(pin_t, uint8_t))
   d8d40:	b508      	push	{r3, lr}
   d8d42:	4b02      	ldr	r3, [pc, #8]	; (d8d4c <HAL_GPIO_Write+0xc>)
   d8d44:	681b      	ldr	r3, [r3, #0]
   d8d46:	691b      	ldr	r3, [r3, #16]
   d8d48:	9301      	str	r3, [sp, #4]
   d8d4a:	bd08      	pop	{r3, pc}
   d8d4c:	0003022c 	.word	0x0003022c

000d8d50 <HAL_GPIO_Read>:
DYNALIB_FN(5, hal_gpio, HAL_GPIO_Read, int32_t(pin_t))
   d8d50:	b508      	push	{r3, lr}
   d8d52:	4b02      	ldr	r3, [pc, #8]	; (d8d5c <HAL_GPIO_Read+0xc>)
   d8d54:	681b      	ldr	r3, [r3, #0]
   d8d56:	695b      	ldr	r3, [r3, #20]
   d8d58:	9301      	str	r3, [sp, #4]
   d8d5a:	bd08      	pop	{r3, pc}
   d8d5c:	0003022c 	.word	0x0003022c

000d8d60 <HAL_Interrupts_Attach>:
DYNALIB_FN(6, hal_gpio, HAL_Interrupts_Attach, void(uint16_t, HAL_InterruptHandler, void*, InterruptMode, HAL_InterruptExtraConfiguration*))
   d8d60:	b508      	push	{r3, lr}
   d8d62:	4b02      	ldr	r3, [pc, #8]	; (d8d6c <HAL_Interrupts_Attach+0xc>)
   d8d64:	681b      	ldr	r3, [r3, #0]
   d8d66:	699b      	ldr	r3, [r3, #24]
   d8d68:	9301      	str	r3, [sp, #4]
   d8d6a:	bd08      	pop	{r3, pc}
   d8d6c:	0003022c 	.word	0x0003022c

000d8d70 <HAL_Interrupts_Detach>:
DYNALIB_FN(7, hal_gpio, HAL_Interrupts_Detach, void(uint16_t))
   d8d70:	b508      	push	{r3, lr}
   d8d72:	4b02      	ldr	r3, [pc, #8]	; (d8d7c <HAL_Interrupts_Detach+0xc>)
   d8d74:	681b      	ldr	r3, [r3, #0]
   d8d76:	69db      	ldr	r3, [r3, #28]
   d8d78:	9301      	str	r3, [sp, #4]
   d8d7a:	bd08      	pop	{r3, pc}
   d8d7c:	0003022c 	.word	0x0003022c

000d8d80 <HAL_DAC_Write>:
DYNALIB_FN(8, hal_gpio, HAL_Interrupts_Enable_All, void(void))
DYNALIB_FN(9, hal_gpio, HAL_Interrupts_Disable_All, void(void))

DYNALIB_FN(10, hal_gpio, HAL_DAC_Write, void(pin_t, uint16_t))
   d8d80:	b508      	push	{r3, lr}
   d8d82:	4b02      	ldr	r3, [pc, #8]	; (d8d8c <HAL_DAC_Write+0xc>)
   d8d84:	681b      	ldr	r3, [r3, #0]
   d8d86:	6a9b      	ldr	r3, [r3, #40]	; 0x28
   d8d88:	9301      	str	r3, [sp, #4]
   d8d8a:	bd08      	pop	{r3, pc}
   d8d8c:	0003022c 	.word	0x0003022c

000d8d90 <HAL_ADC_Read>:
DYNALIB_FN(11, hal_gpio, HAL_ADC_Set_Sample_Time, void(uint8_t))
DYNALIB_FN(12, hal_gpio, HAL_ADC_Read, int32_t(uint16_t))
   d8d90:	b508      	push	{r3, lr}
   d8d92:	4b02      	ldr	r3, [pc, #8]	; (d8d9c <HAL_ADC_Read+0xc>)
   d8d94:	681b      	ldr	r3, [r3, #0]
   d8d96:	6b1b      	ldr	r3, [r3, #48]	; 0x30
   d8d98:	9301      	str	r3, [sp, #4]
   d8d9a:	bd08      	pop	{r3, pc}
   d8d9c:	0003022c 	.word	0x0003022c

000d8da0 <HAL_PWM_Write_Ext>:
DYNALIB_FN(25, hal_gpio, HAL_DAC_Get_Resolution, uint8_t(pin_t))
DYNALIB_FN(26, hal_gpio, HAL_DAC_Set_Resolution, void(pin_t, uint8_t))
DYNALIB_FN(27, hal_gpio, HAL_DAC_Enable_Buffer, void(pin_t pin, uint8_t state))
DYNALIB_FN(28, hal_gpio, HAL_PWM_Get_Resolution, uint8_t(uint16_t))
DYNALIB_FN(29, hal_gpio, HAL_PWM_Set_Resolution, void(uint16_t, uint8_t))
DYNALIB_FN(30, hal_gpio, HAL_PWM_Write_Ext, void(uint16_t, uint32_t))
   d8da0:	b508      	push	{r3, lr}
   d8da2:	4b02      	ldr	r3, [pc, #8]	; (d8dac <HAL_PWM_Write_Ext+0xc>)
   d8da4:	681b      	ldr	r3, [r3, #0]
   d8da6:	6f9b      	ldr	r3, [r3, #120]	; 0x78
   d8da8:	9301      	str	r3, [sp, #4]
   d8daa:	bd08      	pop	{r3, pc}
   d8dac:	0003022c 	.word	0x0003022c

000d8db0 <HAL_I2C_Begin>:
#endif

DYNALIB_FN(BASE_IDX + 0, hal_i2c, HAL_I2C_Set_Speed, void(HAL_I2C_Interface, uint32_t, void*))
DYNALIB_FN(BASE_IDX + 1, hal_i2c, HAL_I2C_Enable_DMA_Mode, void(HAL_I2C_Interface, bool, void*))
DYNALIB_FN(BASE_IDX + 2, hal_i2c, HAL_I2C_Stretch_Clock, void(HAL_I2C_Interface, bool, void*))
DYNALIB_FN(BASE_IDX + 3, hal_i2c, HAL_I2C_Begin, void(HAL_I2C_Interface, I2C_Mode, uint8_t, void*))
   d8db0:	b508      	push	{r3, lr}
   d8db2:	4b02      	ldr	r3, [pc, #8]	; (d8dbc <HAL_I2C_Begin+0xc>)
   d8db4:	681b      	ldr	r3, [r3, #0]
   d8db6:	68db      	ldr	r3, [r3, #12]
   d8db8:	9301      	str	r3, [sp, #4]
   d8dba:	bd08      	pop	{r3, pc}
   d8dbc:	00030228 	.word	0x00030228

000d8dc0 <HAL_I2C_Request_Data>:
DYNALIB_FN(BASE_IDX + 4, hal_i2c, HAL_I2C_End, void(HAL_I2C_Interface, void*))
DYNALIB_FN(BASE_IDX + 5, hal_i2c, HAL_I2C_Request_Data, uint32_t(HAL_I2C_Interface, uint8_t, uint8_t, uint8_t, void*))
   d8dc0:	b508      	push	{r3, lr}
   d8dc2:	4b02      	ldr	r3, [pc, #8]	; (d8dcc <HAL_I2C_Request_Data+0xc>)
   d8dc4:	681b      	ldr	r3, [r3, #0]
   d8dc6:	695b      	ldr	r3, [r3, #20]
   d8dc8:	9301      	str	r3, [sp, #4]
   d8dca:	bd08      	pop	{r3, pc}
   d8dcc:	00030228 	.word	0x00030228

000d8dd0 <HAL_I2C_Begin_Transmission>:
DYNALIB_FN(BASE_IDX + 6, hal_i2c, HAL_I2C_Begin_Transmission, void(HAL_I2C_Interface, uint8_t, void*))
   d8dd0:	b508      	push	{r3, lr}
   d8dd2:	4b02      	ldr	r3, [pc, #8]	; (d8ddc <HAL_I2C_Begin_Transmission+0xc>)
   d8dd4:	681b      	ldr	r3, [r3, #0]
   d8dd6:	699b      	ldr	r3, [r3, #24]
   d8dd8:	9301      	str	r3, [sp, #4]
   d8dda:	bd08      	pop	{r3, pc}
   d8ddc:	00030228 	.word	0x00030228

000d8de0 <HAL_I2C_End_Transmission>:
DYNALIB_FN(BASE_IDX + 7, hal_i2c, HAL_I2C_End_Transmission, uint8_t(HAL_I2C_Interface, uint8_t, void*))
   d8de0:	b508      	push	{r3, lr}
   d8de2:	4b02      	ldr	r3, [pc, #8]	; (d8dec <HAL_I2C_End_Transmission+0xc>)
   d8de4:	681b      	ldr	r3, [r3, #0]
   d8de6:	69db      	ldr	r3, [r3, #28]
   d8de8:	9301      	str	r3, [sp, #4]
   d8dea:	bd08      	pop	{r3, pc}
   d8dec:	00030228 	.word	0x00030228

000d8df0 <HAL_I2C_Write_Data>:
DYNALIB_FN(BASE_IDX + 8, hal_i2c, HAL_I2C_Write_Data, uint32_t(HAL_I2C_Interface, uint8_t, void*))
   d8df0:	b508      	push	{r3, lr}
   d8df2:	4b02      	ldr	r3, [pc, #8]	; (d8dfc <HAL_I2C_Write_Data+0xc>)
   d8df4:	681b      	ldr	r3, [r3, #0]
   d8df6:	6a1b      	ldr	r3, [r3, #32]
   d8df8:	9301      	str	r3, [sp, #4]
   d8dfa:	bd08      	pop	{r3, pc}
   d8dfc:	00030228 	.word	0x00030228

000d8e00 <HAL_I2C_Available_Data>:
DYNALIB_FN(BASE_IDX + 9, hal_i2c, HAL_I2C_Available_Data, int32_t(HAL_I2C_Interface, void*))
   d8e00:	b508      	push	{r3, lr}
   d8e02:	4b02      	ldr	r3, [pc, #8]	; (d8e0c <HAL_I2C_Available_Data+0xc>)
   d8e04:	681b      	ldr	r3, [r3, #0]
   d8e06:	6a5b      	ldr	r3, [r3, #36]	; 0x24
   d8e08:	9301      	str	r3, [sp, #4]
   d8e0a:	bd08      	pop	{r3, pc}
   d8e0c:	00030228 	.word	0x00030228

000d8e10 <HAL_I2C_Read_Data>:
DYNALIB_FN(BASE_IDX + 10, hal_i2c, HAL_I2C_Read_Data, int32_t(HAL_I2C_Interface, void*))
   d8e10:	b508      	push	{r3, lr}
   d8e12:	4b02      	ldr	r3, [pc, #8]	; (d8e1c <HAL_I2C_Read_Data+0xc>)
   d8e14:	681b      	ldr	r3, [r3, #0]
   d8e16:	6a9b      	ldr	r3, [r3, #40]	; 0x28
   d8e18:	9301      	str	r3, [sp, #4]
   d8e1a:	bd08      	pop	{r3, pc}
   d8e1c:	00030228 	.word	0x00030228

000d8e20 <HAL_I2C_Peek_Data>:
DYNALIB_FN(BASE_IDX + 11, hal_i2c, HAL_I2C_Peek_Data, int32_t(HAL_I2C_Interface, void*))
   d8e20:	b508      	push	{r3, lr}
   d8e22:	4b02      	ldr	r3, [pc, #8]	; (d8e2c <HAL_I2C_Peek_Data+0xc>)
   d8e24:	681b      	ldr	r3, [r3, #0]
   d8e26:	6adb      	ldr	r3, [r3, #44]	; 0x2c
   d8e28:	9301      	str	r3, [sp, #4]
   d8e2a:	bd08      	pop	{r3, pc}
   d8e2c:	00030228 	.word	0x00030228

000d8e30 <HAL_I2C_Flush_Data>:
DYNALIB_FN(BASE_IDX + 12, hal_i2c, HAL_I2C_Flush_Data, void(HAL_I2C_Interface, void*))
   d8e30:	b508      	push	{r3, lr}
   d8e32:	4b02      	ldr	r3, [pc, #8]	; (d8e3c <HAL_I2C_Flush_Data+0xc>)
   d8e34:	681b      	ldr	r3, [r3, #0]
   d8e36:	6b1b      	ldr	r3, [r3, #48]	; 0x30
   d8e38:	9301      	str	r3, [sp, #4]
   d8e3a:	bd08      	pop	{r3, pc}
   d8e3c:	00030228 	.word	0x00030228

000d8e40 <HAL_I2C_Is_Enabled>:
DYNALIB_FN(BASE_IDX + 13, hal_i2c, HAL_I2C_Is_Enabled, bool(HAL_I2C_Interface, void*))
   d8e40:	b508      	push	{r3, lr}
   d8e42:	4b02      	ldr	r3, [pc, #8]	; (d8e4c <HAL_I2C_Is_Enabled+0xc>)
   d8e44:	681b      	ldr	r3, [r3, #0]
   d8e46:	6b5b      	ldr	r3, [r3, #52]	; 0x34
   d8e48:	9301      	str	r3, [sp, #4]
   d8e4a:	bd08      	pop	{r3, pc}
   d8e4c:	00030228 	.word	0x00030228

000d8e50 <HAL_I2C_Init>:
DYNALIB_FN(BASE_IDX + 14, hal_i2c, HAL_I2C_Set_Callback_On_Receive, void(HAL_I2C_Interface, void(*)(int), void*))
DYNALIB_FN(BASE_IDX + 15, hal_i2c, HAL_I2C_Set_Callback_On_Request, void(HAL_I2C_Interface, void(*)(void), void*))
DYNALIB_FN(BASE_IDX + 16, hal_i2c, HAL_I2C_Init, void(HAL_I2C_Interface, void*))
   d8e50:	b508      	push	{r3, lr}
   d8e52:	4b02      	ldr	r3, [pc, #8]	; (d8e5c <HAL_I2C_Init+0xc>)
   d8e54:	681b      	ldr	r3, [r3, #0]
   d8e56:	6c1b      	ldr	r3, [r3, #64]	; 0x40
   d8e58:	9301      	str	r3, [sp, #4]
   d8e5a:	bd08      	pop	{r3, pc}
   d8e5c:	00030228 	.word	0x00030228

000d8e60 <if_name_to_index>:

DYNALIB_FN(0, hal_ifapi, if_get_list, int(struct if_list**))
DYNALIB_FN(1, hal_ifapi, if_free_list, int(struct if_list*))
DYNALIB_FN(2, hal_ifapi, if_get_name_index, int(struct if_nameindex**))
DYNALIB_FN(3, hal_ifapi, if_free_name_index, int(struct if_nameindex*))
DYNALIB_FN(4, hal_ifapi, if_name_to_index, int(const char*, uint8_t*))
   d8e60:	b508      	push	{r3, lr}
   d8e62:	4b02      	ldr	r3, [pc, #8]	; (d8e6c <if_name_to_index+0xc>)
   d8e64:	681b      	ldr	r3, [r3, #0]
   d8e66:	691b      	ldr	r3, [r3, #16]
   d8e68:	9301      	str	r3, [sp, #4]
   d8e6a:	bd08      	pop	{r3, pc}
   d8e6c:	0003026c 	.word	0x0003026c

000d8e70 <if_index_to_name>:
DYNALIB_FN(5, hal_ifapi, if_index_to_name, int(uint8_t, char*))
   d8e70:	b508      	push	{r3, lr}
   d8e72:	4b02      	ldr	r3, [pc, #8]	; (d8e7c <if_index_to_name+0xc>)
   d8e74:	681b      	ldr	r3, [r3, #0]
   d8e76:	695b      	ldr	r3, [r3, #20]
   d8e78:	9301      	str	r3, [sp, #4]
   d8e7a:	bd08      	pop	{r3, pc}
   d8e7c:	0003026c 	.word	0x0003026c

000d8e80 <if_get_by_index>:
DYNALIB_FN(6, hal_ifapi, if_get_by_index, int(uint8_t, if_t*))
   d8e80:	b508      	push	{r3, lr}
   d8e82:	4b02      	ldr	r3, [pc, #8]	; (d8e8c <if_get_by_index+0xc>)
   d8e84:	681b      	ldr	r3, [r3, #0]
   d8e86:	699b      	ldr	r3, [r3, #24]
   d8e88:	9301      	str	r3, [sp, #4]
   d8e8a:	bd08      	pop	{r3, pc}
   d8e8c:	0003026c 	.word	0x0003026c

000d8e90 <if_get_addrs>:
DYNALIB_FN(16, hal_ifapi, if_get_mtu, int(if_t, unsigned int*))
DYNALIB_FN(17, hal_ifapi, if_set_mtu, int(if_t, unsigned int))
DYNALIB_FN(18, hal_ifapi, if_get_metric, int(if_t, unsigned int*))
DYNALIB_FN(19, hal_ifapi, if_set_metric, int(if_t, unsigned int))
DYNALIB_FN(20, hal_ifapi, if_get_if_addrs, int(struct if_addrs**))
DYNALIB_FN(21, hal_ifapi, if_get_addrs, int(if_t, struct if_addrs**))
   d8e90:	b508      	push	{r3, lr}
   d8e92:	4b02      	ldr	r3, [pc, #8]	; (d8e9c <if_get_addrs+0xc>)
   d8e94:	681b      	ldr	r3, [r3, #0]
   d8e96:	6d5b      	ldr	r3, [r3, #84]	; 0x54
   d8e98:	9301      	str	r3, [sp, #4]
   d8e9a:	bd08      	pop	{r3, pc}
   d8e9c:	0003026c 	.word	0x0003026c

000d8ea0 <if_free_if_addrs>:
DYNALIB_FN(22, hal_ifapi, if_free_if_addrs, int(struct if_addrs*))
   d8ea0:	b508      	push	{r3, lr}
   d8ea2:	4b02      	ldr	r3, [pc, #8]	; (d8eac <if_free_if_addrs+0xc>)
   d8ea4:	681b      	ldr	r3, [r3, #0]
   d8ea6:	6d9b      	ldr	r3, [r3, #88]	; 0x58
   d8ea8:	9301      	str	r3, [sp, #4]
   d8eaa:	bd08      	pop	{r3, pc}
   d8eac:	0003026c 	.word	0x0003026c

000d8eb0 <inet_inet_ntop>:
DYNALIB_FN(0, hal_inet, inet_inet_addr, in_addr_t(const char*))
DYNALIB_FN(1, hal_inet, inet_inet_aton, int(const char*, struct in_addr*))
DYNALIB_FN(2, hal_inet, inet_inet_network, in_addr_t(const char*))
DYNALIB_FN(3, hal_inet, inet_inet_ntoa, char*(struct in_addr))
DYNALIB_FN(4, hal_inet, inet_inet_ntoa_r, char*(struct in_addr, char*, socklen_t))
DYNALIB_FN(5, hal_inet, inet_inet_ntop, const char*(int, const void*, char*, socklen_t))
   d8eb0:	b508      	push	{r3, lr}
   d8eb2:	4b02      	ldr	r3, [pc, #8]	; (d8ebc <inet_inet_ntop+0xc>)
   d8eb4:	681b      	ldr	r3, [r3, #0]
   d8eb6:	695b      	ldr	r3, [r3, #20]
   d8eb8:	9301      	str	r3, [sp, #4]
   d8eba:	bd08      	pop	{r3, pc}
   d8ebc:	00030264 	.word	0x00030264

000d8ec0 <inet_inet_pton>:
DYNALIB_FN(6, hal_inet, inet_inet_pton, int(int, const char*, void*))
   d8ec0:	b508      	push	{r3, lr}
   d8ec2:	4b02      	ldr	r3, [pc, #8]	; (d8ecc <inet_inet_pton+0xc>)
   d8ec4:	681b      	ldr	r3, [r3, #0]
   d8ec6:	699b      	ldr	r3, [r3, #24]
   d8ec8:	9301      	str	r3, [sp, #4]
   d8eca:	bd08      	pop	{r3, pc}
   d8ecc:	00030264 	.word	0x00030264

000d8ed0 <inet_ntohs>:
DYNALIB_FN(7, hal_inet, inet_ntohl, uint32_t(uint32_t))
DYNALIB_FN(8, hal_inet, inet_htonl, uint32_t(uint32_t))
DYNALIB_FN(9, hal_inet, inet_ntohs, uint16_t(uint16_t))
   d8ed0:	b508      	push	{r3, lr}
   d8ed2:	4b02      	ldr	r3, [pc, #8]	; (d8edc <inet_ntohs+0xc>)
   d8ed4:	681b      	ldr	r3, [r3, #0]
   d8ed6:	6a5b      	ldr	r3, [r3, #36]	; 0x24
   d8ed8:	9301      	str	r3, [sp, #4]
   d8eda:	bd08      	pop	{r3, pc}
   d8edc:	00030264 	.word	0x00030264

000d8ee0 <inet_htons>:
DYNALIB_FN(10, hal_inet, inet_htons, uint16_t(uint16_t))
   d8ee0:	b508      	push	{r3, lr}
   d8ee2:	4b02      	ldr	r3, [pc, #8]	; (d8eec <inet_htons+0xc>)
   d8ee4:	681b      	ldr	r3, [r3, #0]
   d8ee6:	6a9b      	ldr	r3, [r3, #40]	; 0x28
   d8ee8:	9301      	str	r3, [sp, #4]
   d8eea:	bd08      	pop	{r3, pc}
   d8eec:	00030264 	.word	0x00030264

000d8ef0 <netdb_freeaddrinfo>:

DYNALIB_BEGIN(hal_netdb)

DYNALIB_FN(0, hal_netdb, netdb_gethostbyname, struct hostent*(const char*))
DYNALIB_FN(1, hal_netdb, netdb_gethostbyname_r, int(const char*, struct hostent*, char*, size_t, struct hostent**, int*))
DYNALIB_FN(2, hal_netdb, netdb_freeaddrinfo, void(struct addrinfo*))
   d8ef0:	b508      	push	{r3, lr}
   d8ef2:	4b02      	ldr	r3, [pc, #8]	; (d8efc <netdb_freeaddrinfo+0xc>)
   d8ef4:	681b      	ldr	r3, [r3, #0]
   d8ef6:	689b      	ldr	r3, [r3, #8]
   d8ef8:	9301      	str	r3, [sp, #4]
   d8efa:	bd08      	pop	{r3, pc}
   d8efc:	00030268 	.word	0x00030268

000d8f00 <netdb_getaddrinfo>:
DYNALIB_FN(3, hal_netdb, netdb_getaddrinfo, int(const char*, const char*, const struct addrinfo*, struct addrinfo**))
   d8f00:	b508      	push	{r3, lr}
   d8f02:	4b02      	ldr	r3, [pc, #8]	; (d8f0c <netdb_getaddrinfo+0xc>)
   d8f04:	681b      	ldr	r3, [r3, #0]
   d8f06:	68db      	ldr	r3, [r3, #12]
   d8f08:	9301      	str	r3, [sp, #4]
   d8f0a:	bd08      	pop	{r3, pc}
   d8f0c:	00030268 	.word	0x00030268

000d8f10 <HAL_Tone_Start>:
// New HAL functions must be added to the end of this list.
// GNINRAW

DYNALIB_BEGIN(hal_peripherals)

DYNALIB_FN(0, hal_peripherals, HAL_Tone_Start, void(uint8_t, uint32_t, uint32_t))
   d8f10:	b508      	push	{r3, lr}
   d8f12:	4b02      	ldr	r3, [pc, #8]	; (d8f1c <HAL_Tone_Start+0xc>)
   d8f14:	681b      	ldr	r3, [r3, #0]
   d8f16:	681b      	ldr	r3, [r3, #0]
   d8f18:	9301      	str	r3, [sp, #4]
   d8f1a:	bd08      	pop	{r3, pc}
   d8f1c:	00030224 	.word	0x00030224

000d8f20 <HAL_Tone_Stop>:
DYNALIB_FN(1, hal_peripherals, HAL_Tone_Stop, void(uint8_t))
   d8f20:	b508      	push	{r3, lr}
   d8f22:	4b02      	ldr	r3, [pc, #8]	; (d8f2c <HAL_Tone_Stop+0xc>)
   d8f24:	681b      	ldr	r3, [r3, #0]
   d8f26:	685b      	ldr	r3, [r3, #4]
   d8f28:	9301      	str	r3, [sp, #4]
   d8f2a:	bd08      	pop	{r3, pc}
   d8f2c:	00030224 	.word	0x00030224

000d8f30 <sock_bind>:
// GNINRAW

DYNALIB_BEGIN(hal_socket)

DYNALIB_FN(0, hal_socket, sock_accept, int(int, struct sockaddr*, socklen_t*))
DYNALIB_FN(1, hal_socket, sock_bind, int(int, const struct sockaddr*, socklen_t))
   d8f30:	b508      	push	{r3, lr}
   d8f32:	4b02      	ldr	r3, [pc, #8]	; (d8f3c <sock_bind+0xc>)
   d8f34:	681b      	ldr	r3, [r3, #0]
   d8f36:	685b      	ldr	r3, [r3, #4]
   d8f38:	9301      	str	r3, [sp, #4]
   d8f3a:	bd08      	pop	{r3, pc}
   d8f3c:	00030238 	.word	0x00030238

000d8f40 <sock_setsockopt>:
DYNALIB_FN(2, hal_socket, sock_shutdown, int(int, int))
DYNALIB_FN(3, hal_socket, sock_getpeername, int(int, struct sockaddr*, socklen_t*))
DYNALIB_FN(4, hal_socket, sock_getsockname, int(int, struct sockaddr*, socklen_t*))
DYNALIB_FN(5, hal_socket, sock_getsockopt, int(int, int, int, void*, socklen_t*))
DYNALIB_FN(6, hal_socket, sock_setsockopt, int(int, int, int, const void*, socklen_t))
   d8f40:	b508      	push	{r3, lr}
   d8f42:	4b02      	ldr	r3, [pc, #8]	; (d8f4c <sock_setsockopt+0xc>)
   d8f44:	681b      	ldr	r3, [r3, #0]
   d8f46:	699b      	ldr	r3, [r3, #24]
   d8f48:	9301      	str	r3, [sp, #4]
   d8f4a:	bd08      	pop	{r3, pc}
   d8f4c:	00030238 	.word	0x00030238

000d8f50 <sock_close>:
DYNALIB_FN(7, hal_socket, sock_close, int(int))
   d8f50:	b508      	push	{r3, lr}
   d8f52:	4b02      	ldr	r3, [pc, #8]	; (d8f5c <sock_close+0xc>)
   d8f54:	681b      	ldr	r3, [r3, #0]
   d8f56:	69db      	ldr	r3, [r3, #28]
   d8f58:	9301      	str	r3, [sp, #4]
   d8f5a:	bd08      	pop	{r3, pc}
   d8f5c:	00030238 	.word	0x00030238

000d8f60 <sock_recvfrom>:
DYNALIB_FN(8, hal_socket, sock_connect, int(int, const struct sockaddr*, socklen_t))
DYNALIB_FN(9, hal_socket, sock_listen, int(int, int))
DYNALIB_FN(10, hal_socket, sock_recv, int(int, void*, size_t, int))
DYNALIB_FN(11, hal_socket, sock_recvfrom, int(int, void*, size_t, int, struct sockaddr*, socklen_t*))
   d8f60:	b508      	push	{r3, lr}
   d8f62:	4b02      	ldr	r3, [pc, #8]	; (d8f6c <sock_recvfrom+0xc>)
   d8f64:	681b      	ldr	r3, [r3, #0]
   d8f66:	6adb      	ldr	r3, [r3, #44]	; 0x2c
   d8f68:	9301      	str	r3, [sp, #4]
   d8f6a:	bd08      	pop	{r3, pc}
   d8f6c:	00030238 	.word	0x00030238

000d8f70 <sock_sendto>:
DYNALIB_FN(12, hal_socket, sock_send, int(int, const void*, size_t, int))
DYNALIB_FN(13, hal_socket, sock_sendto, int(int, const void*, size_t, int, const struct sockaddr*, socklen_t))
   d8f70:	b508      	push	{r3, lr}
   d8f72:	4b02      	ldr	r3, [pc, #8]	; (d8f7c <sock_sendto+0xc>)
   d8f74:	681b      	ldr	r3, [r3, #0]
   d8f76:	6b5b      	ldr	r3, [r3, #52]	; 0x34
   d8f78:	9301      	str	r3, [sp, #4]
   d8f7a:	bd08      	pop	{r3, pc}
   d8f7c:	00030238 	.word	0x00030238

000d8f80 <sock_socket>:
DYNALIB_FN(14, hal_socket, sock_socket, int(int, int, int))
   d8f80:	b508      	push	{r3, lr}
   d8f82:	4b02      	ldr	r3, [pc, #8]	; (d8f8c <sock_socket+0xc>)
   d8f84:	681b      	ldr	r3, [r3, #0]
   d8f86:	6b9b      	ldr	r3, [r3, #56]	; 0x38
   d8f88:	9301      	str	r3, [sp, #4]
   d8f8a:	bd08      	pop	{r3, pc}
   d8f8c:	00030238 	.word	0x00030238

000d8f90 <HAL_SPI_Begin>:
// New HAL functions must be added to the end of this list.
// GNINRAW

DYNALIB_BEGIN(hal_spi)

DYNALIB_FN(0, hal_spi, HAL_SPI_Begin, void(HAL_SPI_Interface, uint16_t))
   d8f90:	b508      	push	{r3, lr}
   d8f92:	4b02      	ldr	r3, [pc, #8]	; (d8f9c <HAL_SPI_Begin+0xc>)
   d8f94:	681b      	ldr	r3, [r3, #0]
   d8f96:	681b      	ldr	r3, [r3, #0]
   d8f98:	9301      	str	r3, [sp, #4]
   d8f9a:	bd08      	pop	{r3, pc}
   d8f9c:	00030230 	.word	0x00030230

000d8fa0 <HAL_SPI_Set_Bit_Order>:
DYNALIB_FN(1, hal_spi, HAL_SPI_End, void(HAL_SPI_Interface))
DYNALIB_FN(2, hal_spi, HAL_SPI_Set_Bit_Order, void(HAL_SPI_Interface, uint8_t))
   d8fa0:	b508      	push	{r3, lr}
   d8fa2:	4b02      	ldr	r3, [pc, #8]	; (d8fac <HAL_SPI_Set_Bit_Order+0xc>)
   d8fa4:	681b      	ldr	r3, [r3, #0]
   d8fa6:	689b      	ldr	r3, [r3, #8]
   d8fa8:	9301      	str	r3, [sp, #4]
   d8faa:	bd08      	pop	{r3, pc}
   d8fac:	00030230 	.word	0x00030230

000d8fb0 <HAL_SPI_Set_Data_Mode>:
DYNALIB_FN(3, hal_spi, HAL_SPI_Set_Data_Mode, void(HAL_SPI_Interface, uint8_t))
   d8fb0:	b508      	push	{r3, lr}
   d8fb2:	4b02      	ldr	r3, [pc, #8]	; (d8fbc <HAL_SPI_Set_Data_Mode+0xc>)
   d8fb4:	681b      	ldr	r3, [r3, #0]
   d8fb6:	68db      	ldr	r3, [r3, #12]
   d8fb8:	9301      	str	r3, [sp, #4]
   d8fba:	bd08      	pop	{r3, pc}
   d8fbc:	00030230 	.word	0x00030230

000d8fc0 <HAL_SPI_Set_Clock_Divider>:
DYNALIB_FN(4, hal_spi, HAL_SPI_Set_Clock_Divider, void(HAL_SPI_Interface, uint8_t))
   d8fc0:	b508      	push	{r3, lr}
   d8fc2:	4b02      	ldr	r3, [pc, #8]	; (d8fcc <HAL_SPI_Set_Clock_Divider+0xc>)
   d8fc4:	681b      	ldr	r3, [r3, #0]
   d8fc6:	691b      	ldr	r3, [r3, #16]
   d8fc8:	9301      	str	r3, [sp, #4]
   d8fca:	bd08      	pop	{r3, pc}
   d8fcc:	00030230 	.word	0x00030230

000d8fd0 <HAL_SPI_Send_Receive_Data>:
DYNALIB_FN(5, hal_spi, HAL_SPI_Send_Receive_Data, uint16_t(HAL_SPI_Interface, uint16_t))
   d8fd0:	b508      	push	{r3, lr}
   d8fd2:	4b02      	ldr	r3, [pc, #8]	; (d8fdc <HAL_SPI_Send_Receive_Data+0xc>)
   d8fd4:	681b      	ldr	r3, [r3, #0]
   d8fd6:	695b      	ldr	r3, [r3, #20]
   d8fd8:	9301      	str	r3, [sp, #4]
   d8fda:	bd08      	pop	{r3, pc}
   d8fdc:	00030230 	.word	0x00030230

000d8fe0 <HAL_SPI_Init>:
DYNALIB_FN(6, hal_spi, HAL_SPI_Is_Enabled_Old, bool(void))
DYNALIB_FN(7, hal_spi, HAL_SPI_Init, void(HAL_SPI_Interface))
   d8fe0:	b508      	push	{r3, lr}
   d8fe2:	4b02      	ldr	r3, [pc, #8]	; (d8fec <HAL_SPI_Init+0xc>)
   d8fe4:	681b      	ldr	r3, [r3, #0]
   d8fe6:	69db      	ldr	r3, [r3, #28]
   d8fe8:	9301      	str	r3, [sp, #4]
   d8fea:	bd08      	pop	{r3, pc}
   d8fec:	00030230 	.word	0x00030230

000d8ff0 <HAL_SPI_Is_Enabled>:
DYNALIB_FN(8, hal_spi, HAL_SPI_Is_Enabled, bool(HAL_SPI_Interface))
   d8ff0:	b508      	push	{r3, lr}
   d8ff2:	4b02      	ldr	r3, [pc, #8]	; (d8ffc <HAL_SPI_Is_Enabled+0xc>)
   d8ff4:	681b      	ldr	r3, [r3, #0]
   d8ff6:	6a1b      	ldr	r3, [r3, #32]
   d8ff8:	9301      	str	r3, [sp, #4]
   d8ffa:	bd08      	pop	{r3, pc}
   d8ffc:	00030230 	.word	0x00030230

000d9000 <HAL_SPI_Info>:
DYNALIB_FN(9, hal_spi, HAL_SPI_Info, void(HAL_SPI_Interface, hal_spi_info_t*, void*))
   d9000:	b508      	push	{r3, lr}
   d9002:	4b02      	ldr	r3, [pc, #8]	; (d900c <HAL_SPI_Info+0xc>)
   d9004:	681b      	ldr	r3, [r3, #0]
   d9006:	6a5b      	ldr	r3, [r3, #36]	; 0x24
   d9008:	9301      	str	r3, [sp, #4]
   d900a:	bd08      	pop	{r3, pc}
   d900c:	00030230 	.word	0x00030230

000d9010 <HAL_USART_Init>:
#define BASE_IDX 6 // Base index for all subsequent functions
#else
#define BASE_IDX 0
#endif

DYNALIB_FN(BASE_IDX + 0, hal_usart, HAL_USART_Init, void(HAL_USART_Serial, Ring_Buffer*, Ring_Buffer*))
   d9010:	b508      	push	{r3, lr}
   d9012:	4b02      	ldr	r3, [pc, #8]	; (d901c <HAL_USART_Init+0xc>)
   d9014:	681b      	ldr	r3, [r3, #0]
   d9016:	681b      	ldr	r3, [r3, #0]
   d9018:	9301      	str	r3, [sp, #4]
   d901a:	bd08      	pop	{r3, pc}
   d901c:	0003023c 	.word	0x0003023c

000d9020 <HAL_USART_Write_Data>:
DYNALIB_FN(BASE_IDX + 1, hal_usart, HAL_USART_Begin, void(HAL_USART_Serial, uint32_t))
DYNALIB_FN(BASE_IDX + 2, hal_usart, HAL_USART_End, void(HAL_USART_Serial))
DYNALIB_FN(BASE_IDX + 3, hal_usart, HAL_USART_Write_Data, uint32_t(HAL_USART_Serial, uint8_t))
   d9020:	b508      	push	{r3, lr}
   d9022:	4b02      	ldr	r3, [pc, #8]	; (d902c <HAL_USART_Write_Data+0xc>)
   d9024:	681b      	ldr	r3, [r3, #0]
   d9026:	68db      	ldr	r3, [r3, #12]
   d9028:	9301      	str	r3, [sp, #4]
   d902a:	bd08      	pop	{r3, pc}
   d902c:	0003023c 	.word	0x0003023c

000d9030 <HAL_USART_Available_Data>:
DYNALIB_FN(BASE_IDX + 4, hal_usart, HAL_USART_Available_Data, int32_t(HAL_USART_Serial))
   d9030:	b508      	push	{r3, lr}
   d9032:	4b02      	ldr	r3, [pc, #8]	; (d903c <HAL_USART_Available_Data+0xc>)
   d9034:	681b      	ldr	r3, [r3, #0]
   d9036:	691b      	ldr	r3, [r3, #16]
   d9038:	9301      	str	r3, [sp, #4]
   d903a:	bd08      	pop	{r3, pc}
   d903c:	0003023c 	.word	0x0003023c

000d9040 <HAL_USART_Read_Data>:
DYNALIB_FN(BASE_IDX + 5, hal_usart, HAL_USART_Read_Data, int32_t(HAL_USART_Serial))
   d9040:	b508      	push	{r3, lr}
   d9042:	4b02      	ldr	r3, [pc, #8]	; (d904c <HAL_USART_Read_Data+0xc>)
   d9044:	681b      	ldr	r3, [r3, #0]
   d9046:	695b      	ldr	r3, [r3, #20]
   d9048:	9301      	str	r3, [sp, #4]
   d904a:	bd08      	pop	{r3, pc}
   d904c:	0003023c 	.word	0x0003023c

000d9050 <HAL_USART_Peek_Data>:
DYNALIB_FN(BASE_IDX + 6, hal_usart, HAL_USART_Peek_Data, int32_t(HAL_USART_Serial))
   d9050:	b508      	push	{r3, lr}
   d9052:	4b02      	ldr	r3, [pc, #8]	; (d905c <HAL_USART_Peek_Data+0xc>)
   d9054:	681b      	ldr	r3, [r3, #0]
   d9056:	699b      	ldr	r3, [r3, #24]
   d9058:	9301      	str	r3, [sp, #4]
   d905a:	bd08      	pop	{r3, pc}
   d905c:	0003023c 	.word	0x0003023c

000d9060 <HAL_USART_Flush_Data>:
DYNALIB_FN(BASE_IDX + 7, hal_usart, HAL_USART_Flush_Data, void(HAL_USART_Serial))
   d9060:	b508      	push	{r3, lr}
   d9062:	4b02      	ldr	r3, [pc, #8]	; (d906c <HAL_USART_Flush_Data+0xc>)
   d9064:	681b      	ldr	r3, [r3, #0]
   d9066:	69db      	ldr	r3, [r3, #28]
   d9068:	9301      	str	r3, [sp, #4]
   d906a:	bd08      	pop	{r3, pc}
   d906c:	0003023c 	.word	0x0003023c

000d9070 <HAL_USART_Is_Enabled>:
DYNALIB_FN(BASE_IDX + 8, hal_usart, HAL_USART_Is_Enabled, bool(HAL_USART_Serial))
   d9070:	b508      	push	{r3, lr}
   d9072:	4b02      	ldr	r3, [pc, #8]	; (d907c <HAL_USART_Is_Enabled+0xc>)
   d9074:	681b      	ldr	r3, [r3, #0]
   d9076:	6a1b      	ldr	r3, [r3, #32]
   d9078:	9301      	str	r3, [sp, #4]
   d907a:	bd08      	pop	{r3, pc}
   d907c:	0003023c 	.word	0x0003023c

000d9080 <HAL_USART_Available_Data_For_Write>:
DYNALIB_FN(BASE_IDX + 9, hal_usart, HAL_USART_Half_Duplex, void(HAL_USART_Serial, bool))
DYNALIB_FN(BASE_IDX + 10, hal_usart, HAL_USART_Available_Data_For_Write, int32_t(HAL_USART_Serial))
   d9080:	b508      	push	{r3, lr}
   d9082:	4b02      	ldr	r3, [pc, #8]	; (d908c <HAL_USART_Available_Data_For_Write+0xc>)
   d9084:	681b      	ldr	r3, [r3, #0]
   d9086:	6a9b      	ldr	r3, [r3, #40]	; 0x28
   d9088:	9301      	str	r3, [sp, #4]
   d908a:	bd08      	pop	{r3, pc}
   d908c:	0003023c 	.word	0x0003023c

000d9090 <HAL_USB_USART_Init>:
#endif

DYNALIB_BEGIN(hal_usb)

#ifdef USB_CDC_ENABLE
DYNALIB_FN(0, hal_usb, HAL_USB_USART_Init, void(HAL_USB_USART_Serial, const HAL_USB_USART_Config*))
   d9090:	b508      	push	{r3, lr}
   d9092:	4b02      	ldr	r3, [pc, #8]	; (d909c <HAL_USB_USART_Init+0xc>)
   d9094:	681b      	ldr	r3, [r3, #0]
   d9096:	681b      	ldr	r3, [r3, #0]
   d9098:	9301      	str	r3, [sp, #4]
   d909a:	bd08      	pop	{r3, pc}
   d909c:	0003024c 	.word	0x0003024c

000d90a0 <HAL_USB_USART_Begin>:
DYNALIB_FN(1, hal_usb, HAL_USB_USART_Begin, void(HAL_USB_USART_Serial, uint32_t, void *))
   d90a0:	b508      	push	{r3, lr}
   d90a2:	4b02      	ldr	r3, [pc, #8]	; (d90ac <HAL_USB_USART_Begin+0xc>)
   d90a4:	681b      	ldr	r3, [r3, #0]
   d90a6:	685b      	ldr	r3, [r3, #4]
   d90a8:	9301      	str	r3, [sp, #4]
   d90aa:	bd08      	pop	{r3, pc}
   d90ac:	0003024c 	.word	0x0003024c

000d90b0 <HAL_USB_USART_Available_Data>:
DYNALIB_FN(2, hal_usb, HAL_USB_USART_End, void(HAL_USB_USART_Serial))
DYNALIB_FN(3, hal_usb, HAL_USB_USART_Baud_Rate, unsigned int(HAL_USB_USART_Serial))
DYNALIB_FN(4, hal_usb, HAL_USB_USART_Available_Data, int32_t(HAL_USB_USART_Serial))
   d90b0:	b508      	push	{r3, lr}
   d90b2:	4b02      	ldr	r3, [pc, #8]	; (d90bc <HAL_USB_USART_Available_Data+0xc>)
   d90b4:	681b      	ldr	r3, [r3, #0]
   d90b6:	691b      	ldr	r3, [r3, #16]
   d90b8:	9301      	str	r3, [sp, #4]
   d90ba:	bd08      	pop	{r3, pc}
   d90bc:	0003024c 	.word	0x0003024c

000d90c0 <HAL_USB_USART_Available_Data_For_Write>:
DYNALIB_FN(5, hal_usb, HAL_USB_USART_Available_Data_For_Write, int32_t(HAL_USB_USART_Serial))
   d90c0:	b508      	push	{r3, lr}
   d90c2:	4b02      	ldr	r3, [pc, #8]	; (d90cc <HAL_USB_USART_Available_Data_For_Write+0xc>)
   d90c4:	681b      	ldr	r3, [r3, #0]
   d90c6:	695b      	ldr	r3, [r3, #20]
   d90c8:	9301      	str	r3, [sp, #4]
   d90ca:	bd08      	pop	{r3, pc}
   d90cc:	0003024c 	.word	0x0003024c

000d90d0 <HAL_USB_USART_Receive_Data>:
DYNALIB_FN(6, hal_usb, HAL_USB_USART_Receive_Data, int32_t(HAL_USB_USART_Serial, uint8_t))
   d90d0:	b508      	push	{r3, lr}
   d90d2:	4b02      	ldr	r3, [pc, #8]	; (d90dc <HAL_USB_USART_Receive_Data+0xc>)
   d90d4:	681b      	ldr	r3, [r3, #0]
   d90d6:	699b      	ldr	r3, [r3, #24]
   d90d8:	9301      	str	r3, [sp, #4]
   d90da:	bd08      	pop	{r3, pc}
   d90dc:	0003024c 	.word	0x0003024c

000d90e0 <HAL_USB_USART_Send_Data>:
DYNALIB_FN(7, hal_usb, HAL_USB_USART_Send_Data, int32_t(HAL_USB_USART_Serial, uint8_t))
   d90e0:	b508      	push	{r3, lr}
   d90e2:	4b02      	ldr	r3, [pc, #8]	; (d90ec <HAL_USB_USART_Send_Data+0xc>)
   d90e4:	681b      	ldr	r3, [r3, #0]
   d90e6:	69db      	ldr	r3, [r3, #28]
   d90e8:	9301      	str	r3, [sp, #4]
   d90ea:	bd08      	pop	{r3, pc}
   d90ec:	0003024c 	.word	0x0003024c

000d90f0 <HAL_USB_USART_Flush_Data>:
DYNALIB_FN(8, hal_usb, HAL_USB_USART_Flush_Data, void(HAL_USB_USART_Serial))
   d90f0:	b508      	push	{r3, lr}
   d90f2:	4b02      	ldr	r3, [pc, #8]	; (d90fc <HAL_USB_USART_Flush_Data+0xc>)
   d90f4:	681b      	ldr	r3, [r3, #0]
   d90f6:	6a1b      	ldr	r3, [r3, #32]
   d90f8:	9301      	str	r3, [sp, #4]
   d90fa:	bd08      	pop	{r3, pc}
   d90fc:	0003024c 	.word	0x0003024c

000d9100 <panic_>:
DYNALIB_FN(9, services, LED_Toggle, void(Led_TypeDef))
DYNALIB_FN(10, services, LED_Fade, void(Led_TypeDef))
DYNALIB_FN(11, services, Get_LED_Brightness, uint8_t(void))

DYNALIB_FN(12, services, set_logger_output, void(debug_output_fn, LoggerOutputLevel)) // Deprecated
DYNALIB_FN(13, services, panic_, void(ePanicCode, void*, void(*)(uint32_t)))
   d9100:	b508      	push	{r3, lr}
   d9102:	4b02      	ldr	r3, [pc, #8]	; (d910c <panic_+0xc>)
   d9104:	681b      	ldr	r3, [r3, #0]
   d9106:	6b5b      	ldr	r3, [r3, #52]	; 0x34
   d9108:	9301      	str	r3, [sp, #4]
   d910a:	bd08      	pop	{r3, pc}
   d910c:	00030260 	.word	0x00030260

000d9110 <log_message>:
DYNALIB_FN(16, services, log_print_, void(int, int, const char*, const char*, const char*, ...)) // Deprecated
DYNALIB_FN(17, services, LED_RGB_SetChangeHandler, void(led_update_handler_fn, void*))
DYNALIB_FN(18, services, log_print_direct_, void(int, void*, const char*, ...)) // Deprecated
DYNALIB_FN(19, services, LED_GetColor, uint32_t(uint32_t, void*))

DYNALIB_FN(20, services, log_message, void(int, const char*, LogAttributes*, void*, const char*, ...))
   d9110:	b508      	push	{r3, lr}
   d9112:	4b02      	ldr	r3, [pc, #8]	; (d911c <log_message+0xc>)
   d9114:	681b      	ldr	r3, [r3, #0]
   d9116:	6d1b      	ldr	r3, [r3, #80]	; 0x50
   d9118:	9301      	str	r3, [sp, #4]
   d911a:	bd08      	pop	{r3, pc}
   d911c:	00030260 	.word	0x00030260

000d9120 <set_system_mode>:
#endif

DYNALIB_BEGIN(system)

DYNALIB_FN(0, system, system_mode, System_Mode_TypeDef(void))
DYNALIB_FN(1, system, set_system_mode, void(System_Mode_TypeDef))
   d9120:	b508      	push	{r3, lr}
   d9122:	4b02      	ldr	r3, [pc, #8]	; (d912c <set_system_mode+0xc>)
   d9124:	681b      	ldr	r3, [r3, #0]
   d9126:	685b      	ldr	r3, [r3, #4]
   d9128:	9301      	str	r3, [sp, #4]
   d912a:	bd08      	pop	{r3, pc}
   d912c:	00030220 	.word	0x00030220

000d9130 <system_delay_ms>:

DYNALIB_FN(2, system, set_ymodem_serial_flash_update_handler, void(ymodem_serial_flash_update_handler))
DYNALIB_FN(3, system, system_firmwareUpdate, bool(Stream*, void*))
DYNALIB_FN(4, system, system_fileTransfer, bool(system_file_transfer_t*, void*))

DYNALIB_FN(5, system, system_delay_ms, void(unsigned long, bool))
   d9130:	b508      	push	{r3, lr}
   d9132:	4b02      	ldr	r3, [pc, #8]	; (d913c <system_delay_ms+0xc>)
   d9134:	681b      	ldr	r3, [r3, #0]
   d9136:	695b      	ldr	r3, [r3, #20]
   d9138:	9301      	str	r3, [sp, #4]
   d913a:	bd08      	pop	{r3, pc}
   d913c:	00030220 	.word	0x00030220

000d9140 <system_thread_set_state>:
DYNALIB_FN(6, system, system_sleep, void(Spark_Sleep_TypeDef, long, uint32_t, void*))
DYNALIB_FN(7, system, system_sleep_pin, void(uint16_t, uint16_t, long, uint32_t, void*))
DYNALIB_FN(8, system, system_subscribe_event, int(system_event_t, system_event_handler_t*, void*))
DYNALIB_FN(9, system, system_unsubscribe_event, void(system_event_t, system_event_handler_t*, void*))
DYNALIB_FN(10, system, system_button_pushed_duration, uint16_t(uint8_t, void*))
DYNALIB_FN(11, system, system_thread_set_state, void(spark::feature::State, void*))
   d9140:	b508      	push	{r3, lr}
   d9142:	4b02      	ldr	r3, [pc, #8]	; (d914c <system_thread_set_state+0xc>)
   d9144:	681b      	ldr	r3, [r3, #0]
   d9146:	6adb      	ldr	r3, [r3, #44]	; 0x2c
   d9148:	9301      	str	r3, [sp, #4]
   d914a:	bd08      	pop	{r3, pc}
   d914c:	00030220 	.word	0x00030220

000d9150 <application_thread_current>:
DYNALIB_FN(15, system, system_get_flag, int(system_flag_t, uint8_t*, void*))
DYNALIB_FN(16, system, Spark_Prepare_For_Firmware_Update, int(FileTransfer::Descriptor&, uint32_t, void*))
DYNALIB_FN(17, system, Spark_Save_Firmware_Chunk, int(FileTransfer::Descriptor&, const uint8_t*, void*))
DYNALIB_FN(18, system, Spark_Finish_Firmware_Update, int(FileTransfer::Descriptor&, uint32_t, void*))

DYNALIB_FN(19, system, application_thread_current, uint8_t(void*))
   d9150:	b508      	push	{r3, lr}
   d9152:	4b02      	ldr	r3, [pc, #8]	; (d915c <application_thread_current+0xc>)
   d9154:	681b      	ldr	r3, [r3, #0]
   d9156:	6cdb      	ldr	r3, [r3, #76]	; 0x4c
   d9158:	9301      	str	r3, [sp, #4]
   d915a:	bd08      	pop	{r3, pc}
   d915c:	00030220 	.word	0x00030220

000d9160 <application_thread_invoke>:
DYNALIB_FN(20, system, system_thread_current, uint8_t(void*))
DYNALIB_FN(21, system, application_thread_invoke, uint8_t(void(*)(void*), void*, void*))
   d9160:	b508      	push	{r3, lr}
   d9162:	4b02      	ldr	r3, [pc, #8]	; (d916c <application_thread_invoke+0xc>)
   d9164:	681b      	ldr	r3, [r3, #0]
   d9166:	6d5b      	ldr	r3, [r3, #84]	; 0x54
   d9168:	9301      	str	r3, [sp, #4]
   d916a:	bd08      	pop	{r3, pc}
   d916c:	00030220 	.word	0x00030220

000d9170 <system_ctrl_set_app_request_handler>:
DYNALIB_FN(BASE_IDX + 6, system, led_pattern_period, uint16_t(int, int, void*))
DYNALIB_FN(BASE_IDX + 7, system, system_set_tester_handlers, int(system_tester_handlers_t*, void*))
DYNALIB_FN(BASE_IDX + 8, system, system_format_diag_data, int(const uint16_t*, size_t, unsigned, appender_fn, void*, void*))

// Control requests
DYNALIB_FN(BASE_IDX + 9, system, system_ctrl_set_app_request_handler, int(ctrl_request_handler_fn, void*))
   d9170:	b508      	push	{r3, lr}
   d9172:	4b03      	ldr	r3, [pc, #12]	; (d9180 <system_ctrl_set_app_request_handler+0x10>)
   d9174:	681b      	ldr	r3, [r3, #0]
   d9176:	f8d3 3088 	ldr.w	r3, [r3, #136]	; 0x88
   d917a:	9301      	str	r3, [sp, #4]
   d917c:	bd08      	pop	{r3, pc}
   d917e:	0000      	.short	0x0000
   d9180:	00030220 	.word	0x00030220

000d9184 <system_ctrl_set_result>:
DYNALIB_FN(BASE_IDX + 10, system, system_ctrl_alloc_reply_data, int(ctrl_request*, size_t, void*))
DYNALIB_FN(BASE_IDX + 11, system, system_ctrl_free_request_data, void(ctrl_request*, void*))
DYNALIB_FN(BASE_IDX + 12, system, system_ctrl_set_result, void(ctrl_request*, int, ctrl_completion_handler_fn, void*, void*))
   d9184:	b508      	push	{r3, lr}
   d9186:	4b03      	ldr	r3, [pc, #12]	; (d9194 <system_ctrl_set_result+0x10>)
   d9188:	681b      	ldr	r3, [r3, #0]
   d918a:	f8d3 3094 	ldr.w	r3, [r3, #148]	; 0x94
   d918e:	9301      	str	r3, [sp, #4]
   d9190:	bd08      	pop	{r3, pc}
   d9192:	0000      	.short	0x0000
   d9194:	00030220 	.word	0x00030220

000d9198 <system_invoke_event_handler>:

DYNALIB_FN(BASE_IDX + 13, system, system_pool_alloc, void*(size_t, void*))
DYNALIB_FN(BASE_IDX + 14, system, system_pool_free, void(void*, void*))
DYNALIB_FN(BASE_IDX + 15, system, system_sleep_pins, int32_t(const uint16_t*, size_t, const InterruptMode*, size_t, long, uint32_t, void*))
DYNALIB_FN(BASE_IDX + 16, system, system_invoke_event_handler, int(uint16_t handlerInfoSize, FilteringEventHandler* handlerInfo, const char* event_name, const char* event_data, void* reserved))
   d9198:	b508      	push	{r3, lr}
   d919a:	4b03      	ldr	r3, [pc, #12]	; (d91a8 <system_invoke_event_handler+0x10>)
   d919c:	681b      	ldr	r3, [r3, #0]
   d919e:	f8d3 30a4 	ldr.w	r3, [r3, #164]	; 0xa4
   d91a2:	9301      	str	r3, [sp, #4]
   d91a4:	bd08      	pop	{r3, pc}
   d91a6:	0000      	.short	0x0000
   d91a8:	00030220 	.word	0x00030220

000d91ac <system_task_loop>:
DYNALIB_FN(BASE_IDX + 17, system, system_task_loop, int(system_task_fn fn, void*))
   d91ac:	b508      	push	{r3, lr}
   d91ae:	4b03      	ldr	r3, [pc, #12]	; (d91bc <system_task_loop+0x10>)
   d91b0:	681b      	ldr	r3, [r3, #0]
   d91b2:	f8d3 30a8 	ldr.w	r3, [r3, #168]	; 0xa8
   d91b6:	9301      	str	r3, [sp, #4]
   d91b8:	bd08      	pop	{r3, pc}
   d91ba:	0000      	.short	0x0000
   d91bc:	00030220 	.word	0x00030220

000d91c0 <spark_variable>:
#endif


DYNALIB_BEGIN(system_cloud)

DYNALIB_FN(0, system_cloud, spark_variable, bool(const char*, const void*, Spark_Data_TypeDef, spark_variable_t*))
   d91c0:	b508      	push	{r3, lr}
   d91c2:	4b02      	ldr	r3, [pc, #8]	; (d91cc <spark_variable+0xc>)
   d91c4:	681b      	ldr	r3, [r3, #0]
   d91c6:	681b      	ldr	r3, [r3, #0]
   d91c8:	9301      	str	r3, [sp, #4]
   d91ca:	bd08      	pop	{r3, pc}
   d91cc:	00030244 	.word	0x00030244

000d91d0 <spark_function>:
DYNALIB_FN(1, system_cloud, spark_function, bool(const char*, p_user_function_int_str_t, void*))
   d91d0:	b508      	push	{r3, lr}
   d91d2:	4b02      	ldr	r3, [pc, #8]	; (d91dc <spark_function+0xc>)
   d91d4:	681b      	ldr	r3, [r3, #0]
   d91d6:	685b      	ldr	r3, [r3, #4]
   d91d8:	9301      	str	r3, [sp, #4]
   d91da:	bd08      	pop	{r3, pc}
   d91dc:	00030244 	.word	0x00030244

000d91e0 <spark_cloud_flag_connect>:
DYNALIB_FN(2, system_cloud, spark_process, void(void))
DYNALIB_FN(3, system_cloud, spark_cloud_flag_connect, void(void))
   d91e0:	b508      	push	{r3, lr}
   d91e2:	4b02      	ldr	r3, [pc, #8]	; (d91ec <spark_cloud_flag_connect+0xc>)
   d91e4:	681b      	ldr	r3, [r3, #0]
   d91e6:	68db      	ldr	r3, [r3, #12]
   d91e8:	9301      	str	r3, [sp, #4]
   d91ea:	bd08      	pop	{r3, pc}
   d91ec:	00030244 	.word	0x00030244

000d91f0 <spark_deviceID>:
DYNALIB_FN(4, system_cloud, spark_cloud_flag_disconnect, void(void))
DYNALIB_FN(5, system_cloud, spark_cloud_flag_connected, bool(void))
DYNALIB_FN(6, system_cloud, system_cloud_protocol_instance, ProtocolFacade*(void))
DYNALIB_FN(7, system_cloud, spark_deviceID, String(void))
   d91f0:	b508      	push	{r3, lr}
   d91f2:	4b02      	ldr	r3, [pc, #8]	; (d91fc <spark_deviceID+0xc>)
   d91f4:	681b      	ldr	r3, [r3, #0]
   d91f6:	69db      	ldr	r3, [r3, #28]
   d91f8:	9301      	str	r3, [sp, #4]
   d91fa:	bd08      	pop	{r3, pc}
   d91fc:	00030244 	.word	0x00030244

000d9200 <spark_send_event>:
DYNALIB_FN(8, system_cloud, spark_send_event, bool(const char*, const char*, int, uint32_t, void*))
   d9200:	b508      	push	{r3, lr}
   d9202:	4b02      	ldr	r3, [pc, #8]	; (d920c <spark_send_event+0xc>)
   d9204:	681b      	ldr	r3, [r3, #0]
   d9206:	6a1b      	ldr	r3, [r3, #32]
   d9208:	9301      	str	r3, [sp, #4]
   d920a:	bd08      	pop	{r3, pc}
   d920c:	00030244 	.word	0x00030244

000d9210 <spark_set_random_seed_from_cloud_handler>:
DYNALIB_FN(10, system_cloud, spark_unsubscribe, void(void*))
DYNALIB_FN(11, system_cloud, spark_sync_time, bool(void*))
DYNALIB_FN(12, system_cloud, spark_sync_time_pending, bool(void*))
DYNALIB_FN(13, system_cloud, spark_sync_time_last, system_tick_t(time_t*, void*))
DYNALIB_FN(14, system_cloud, spark_set_connection_property, int(unsigned, unsigned, particle::protocol::connection_properties_t*, void*))
DYNALIB_FN(15, system_cloud, spark_set_random_seed_from_cloud_handler, int(void (*handler)(unsigned int), void*))
   d9210:	b508      	push	{r3, lr}
   d9212:	4b02      	ldr	r3, [pc, #8]	; (d921c <spark_set_random_seed_from_cloud_handler+0xc>)
   d9214:	681b      	ldr	r3, [r3, #0]
   d9216:	6bdb      	ldr	r3, [r3, #60]	; 0x3c
   d9218:	9301      	str	r3, [sp, #4]
   d921a:	bd08      	pop	{r3, pc}
   d921c:	00030244 	.word	0x00030244

000d9220 <network_connect>:
#endif

DYNALIB_BEGIN(system_net)

DYNALIB_FN(0, system_net, network_config, const void*(network_handle_t, uint32_t, void*))
DYNALIB_FN(1, system_net, network_connect, void(network_handle_t, uint32_t, uint32_t, void*))
   d9220:	b508      	push	{r3, lr}
   d9222:	4b02      	ldr	r3, [pc, #8]	; (d922c <network_connect+0xc>)
   d9224:	681b      	ldr	r3, [r3, #0]
   d9226:	685b      	ldr	r3, [r3, #4]
   d9228:	9301      	str	r3, [sp, #4]
   d922a:	bd08      	pop	{r3, pc}
   d922c:	00030240 	.word	0x00030240

000d9230 <network_connecting>:
DYNALIB_FN(2, system_net, network_connecting, bool(network_handle_t, uint32_t, void*))
   d9230:	b508      	push	{r3, lr}
   d9232:	4b02      	ldr	r3, [pc, #8]	; (d923c <network_connecting+0xc>)
   d9234:	681b      	ldr	r3, [r3, #0]
   d9236:	689b      	ldr	r3, [r3, #8]
   d9238:	9301      	str	r3, [sp, #4]
   d923a:	bd08      	pop	{r3, pc}
   d923c:	00030240 	.word	0x00030240

000d9240 <network_ready>:
DYNALIB_FN(3, system_net, network_disconnect, void(network_handle_t, uint32_t, void*))
DYNALIB_FN(4, system_net, network_ready, bool(network_handle_t, uint32_t, void*))
   d9240:	b508      	push	{r3, lr}
   d9242:	4b02      	ldr	r3, [pc, #8]	; (d924c <network_ready+0xc>)
   d9244:	681b      	ldr	r3, [r3, #0]
   d9246:	691b      	ldr	r3, [r3, #16]
   d9248:	9301      	str	r3, [sp, #4]
   d924a:	bd08      	pop	{r3, pc}
   d924c:	00030240 	.word	0x00030240

000d9250 <network_on>:
DYNALIB_FN(5, system_net, network_on, void(network_handle_t, uint32_t, uint32_t, void*))
   d9250:	b508      	push	{r3, lr}
   d9252:	4b02      	ldr	r3, [pc, #8]	; (d925c <network_on+0xc>)
   d9254:	681b      	ldr	r3, [r3, #0]
   d9256:	695b      	ldr	r3, [r3, #20]
   d9258:	9301      	str	r3, [sp, #4]
   d925a:	bd08      	pop	{r3, pc}
   d925c:	00030240 	.word	0x00030240

000d9260 <network_listening>:
DYNALIB_FN(6, system_net, network_off, void(network_handle_t, uint32_t, uint32_t, void*))
DYNALIB_FN(7, system_net, network_listen, void(network_handle_t, uint32_t, void*))
DYNALIB_FN(8, system_net, network_listening, bool(network_handle_t, uint32_t, void*))
   d9260:	b508      	push	{r3, lr}
   d9262:	4b02      	ldr	r3, [pc, #8]	; (d926c <network_listening+0xc>)
   d9264:	681b      	ldr	r3, [r3, #0]
   d9266:	6a1b      	ldr	r3, [r3, #32]
   d9268:	9301      	str	r3, [sp, #4]
   d926a:	bd08      	pop	{r3, pc}
   d926c:	00030240 	.word	0x00030240

000d9270 <malloc>:

#include "dynalib.h"

DYNALIB_BEGIN(rt)

DYNALIB_FN(0, rt, malloc, void*(size_t))
   d9270:	b508      	push	{r3, lr}
   d9272:	4b02      	ldr	r3, [pc, #8]	; (d927c <malloc+0xc>)
   d9274:	681b      	ldr	r3, [r3, #0]
   d9276:	681b      	ldr	r3, [r3, #0]
   d9278:	9301      	str	r3, [sp, #4]
   d927a:	bd08      	pop	{r3, pc}
   d927c:	0003021c 	.word	0x0003021c

000d9280 <free>:
DYNALIB_FN(1, rt, free, void(void*))
   d9280:	b508      	push	{r3, lr}
   d9282:	4b02      	ldr	r3, [pc, #8]	; (d928c <free+0xc>)
   d9284:	681b      	ldr	r3, [r3, #0]
   d9286:	685b      	ldr	r3, [r3, #4]
   d9288:	9301      	str	r3, [sp, #4]
   d928a:	bd08      	pop	{r3, pc}
   d928c:	0003021c 	.word	0x0003021c

000d9290 <realloc>:
DYNALIB_FN(2, rt, realloc, void*(void*, size_t))
   d9290:	b508      	push	{r3, lr}
   d9292:	4b02      	ldr	r3, [pc, #8]	; (d929c <realloc+0xc>)
   d9294:	681b      	ldr	r3, [r3, #0]
   d9296:	689b      	ldr	r3, [r3, #8]
   d9298:	9301      	str	r3, [sp, #4]
   d929a:	bd08      	pop	{r3, pc}
   d929c:	0003021c 	.word	0x0003021c

000d92a0 <vsnprintf>:
DYNALIB_FN(4, rt, siprintf, int(char*, const char*, ...))
DYNALIB_FN(5, rt, sscanf, int(const char*, const char*, ...))
DYNALIB_FN(6, rt, siscanf, int(const char*, const char*, ...))
DYNALIB_FN(7, rt, snprintf, int(char*, size_t, const char*, ...))
DYNALIB_FN(8, rt, sniprintf, int(char*, size_t, const char*, ...))
DYNALIB_FN(9, rt, vsnprintf, int(char*, size_t, const char*, va_list))
   d92a0:	b508      	push	{r3, lr}
   d92a2:	4b02      	ldr	r3, [pc, #8]	; (d92ac <vsnprintf+0xc>)
   d92a4:	681b      	ldr	r3, [r3, #0]
   d92a6:	6a5b      	ldr	r3, [r3, #36]	; 0x24
   d92a8:	9301      	str	r3, [sp, #4]
   d92aa:	bd08      	pop	{r3, pc}
   d92ac:	0003021c 	.word	0x0003021c

000d92b0 <abort>:
DYNALIB_FN(10, rt, vsniprintf, int(char*, size_t, const char*, va_list))
DYNALIB_FN(11, rt, abort, void(void))
   d92b0:	b508      	push	{r3, lr}
   d92b2:	4b02      	ldr	r3, [pc, #8]	; (d92bc <abort+0xc>)
   d92b4:	681b      	ldr	r3, [r3, #0]
   d92b6:	6adb      	ldr	r3, [r3, #44]	; 0x2c
   d92b8:	9301      	str	r3, [sp, #4]
   d92ba:	bd08      	pop	{r3, pc}
   d92bc:	0003021c 	.word	0x0003021c

000d92c0 <_malloc_r>:
DYNALIB_FN(12, rt, _malloc_r, void*(struct _reent*, size_t))
   d92c0:	b508      	push	{r3, lr}
   d92c2:	4b02      	ldr	r3, [pc, #8]	; (d92cc <_malloc_r+0xc>)
   d92c4:	681b      	ldr	r3, [r3, #0]
   d92c6:	6b1b      	ldr	r3, [r3, #48]	; 0x30
   d92c8:	9301      	str	r3, [sp, #4]
   d92ca:	bd08      	pop	{r3, pc}
   d92cc:	0003021c 	.word	0x0003021c

000d92d0 <delay>:
    return (value - fromStart) * (toEnd - toStart) / (fromEnd - fromStart) + toStart;
}

void delay(unsigned long ms)
{
    system_delay_ms(ms, false);
   d92d0:	2100      	movs	r1, #0
   d92d2:	f7ff bf2d 	b.w	d9130 <system_delay_ms>

000d92d6 <_ZN8particle6detail21futureCallbackWrapperEPv>:
 * License along with this library; if not, see <http://www.gnu.org/licenses/>.
 */

#include "spark_wiring_async.h"

void particle::detail::futureCallbackWrapper(void* data) {
   d92d6:	b510      	push	{r4, lr}
  template<typename _Res, typename... _ArgTypes>
    _Res
    function<_Res(_ArgTypes...)>::
    operator()(_ArgTypes... __args) const
    {
      if (_M_empty())
   d92d8:	6883      	ldr	r3, [r0, #8]
   d92da:	4604      	mov	r4, r0
   d92dc:	b90b      	cbnz	r3, d92e2 <_ZN8particle6detail21futureCallbackWrapperEPv+0xc>
	__throw_bad_function_call();
   d92de:	f001 ff36 	bl	db14e <_ZSt25__throw_bad_function_callv>
      return _M_invoker(_M_functor, std::forward<_ArgTypes>(__args)...);
   d92e2:	68c3      	ldr	r3, [r0, #12]
   d92e4:	4798      	blx	r3

    _Function_base() : _M_manager(nullptr) { }

    ~_Function_base()
    {
      if (_M_manager)
   d92e6:	68a3      	ldr	r3, [r4, #8]
   d92e8:	b11b      	cbz	r3, d92f2 <_ZN8particle6detail21futureCallbackWrapperEPv+0x1c>
	_M_manager(_M_functor, _M_functor, __destroy_functor);
   d92ea:	2203      	movs	r2, #3
   d92ec:	4621      	mov	r1, r4
   d92ee:	4620      	mov	r0, r4
   d92f0:	4798      	blx	r3
    auto callbackPtr = static_cast<const std::function<void()>*>(data);
    (*callbackPtr)();
    delete callbackPtr;
   d92f2:	4620      	mov	r0, r4
}
   d92f4:	e8bd 4010 	ldmia.w	sp!, {r4, lr}
#include "spark_wiring_async.h"

void particle::detail::futureCallbackWrapper(void* data) {
    auto callbackPtr = static_cast<const std::function<void()>*>(data);
    (*callbackPtr)();
    delete callbackPtr;
   d92f8:	f7fa bed1 	b.w	d409e <_ZdlPv>

000d92fc <_ZNSt15_Sp_counted_ptrIPN8particle6detail10FutureImplIbNS1_13FutureContextEEELN9__gnu_cxx12_Lock_policyE0EED1Ev>:
    class __shared_count;


  // Counted ptr with no deleter or allocator support
  template<typename _Ptr, _Lock_policy _Lp>
    class _Sp_counted_ptr final : public _Sp_counted_base<_Lp>
   d92fc:	4770      	bx	lr

000d92fe <_ZNSt15_Sp_counted_ptrIPN8particle6detail10FutureImplIbNS1_13FutureContextEEELN9__gnu_cxx12_Lock_policyE0EE14_M_get_deleterERKSt9type_info>:
      _M_destroy() noexcept
      { delete this; }

      virtual void*
      _M_get_deleter(const std::type_info&) noexcept
      { return nullptr; }
   d92fe:	2000      	movs	r0, #0
   d9300:	4770      	bx	lr

000d9302 <_ZNSt15_Sp_counted_ptrIPN8particle6detail10FutureImplIbNS1_13FutureContextEEELN9__gnu_cxx12_Lock_policyE0EED0Ev>:
    class __shared_count;


  // Counted ptr with no deleter or allocator support
  template<typename _Ptr, _Lock_policy _Lp>
    class _Sp_counted_ptr final : public _Sp_counted_base<_Lp>
   d9302:	b510      	push	{r4, lr}
   d9304:	4604      	mov	r4, r0
   d9306:	f7fa feca 	bl	d409e <_ZdlPv>
   d930a:	4620      	mov	r0, r4
   d930c:	bd10      	pop	{r4, pc}

000d930e <_ZNSt15_Sp_counted_ptrIPN8particle6detail10FutureImplIbNS1_13FutureContextEEELN9__gnu_cxx12_Lock_policyE0EE10_M_destroyEv>:
      virtual void
      _M_dispose() noexcept
      { delete _M_ptr; }

      virtual void
      _M_destroy() noexcept
   d930e:	b508      	push	{r3, lr}
      { delete this; }
   d9310:	b108      	cbz	r0, d9316 <_ZNSt15_Sp_counted_ptrIPN8particle6detail10FutureImplIbNS1_13FutureContextEEELN9__gnu_cxx12_Lock_policyE0EE10_M_destroyEv+0x8>
   d9312:	f7ff fff6 	bl	d9302 <_ZNSt15_Sp_counted_ptrIPN8particle6detail10FutureImplIbNS1_13FutureContextEEELN9__gnu_cxx12_Lock_policyE0EED0Ev>
   d9316:	bd08      	pop	{r3, pc}

000d9318 <_ZNSt14_Function_baseD1Ev>:
	}
      };

    _Function_base() : _M_manager(nullptr) { }

    ~_Function_base()
   d9318:	b510      	push	{r4, lr}
    {
      if (_M_manager)
   d931a:	6883      	ldr	r3, [r0, #8]
	}
      };

    _Function_base() : _M_manager(nullptr) { }

    ~_Function_base()
   d931c:	4604      	mov	r4, r0
    {
      if (_M_manager)
   d931e:	b113      	cbz	r3, d9326 <_ZNSt14_Function_baseD1Ev+0xe>
	_M_manager(_M_functor, _M_functor, __destroy_functor);
   d9320:	2203      	movs	r2, #3
   d9322:	4601      	mov	r1, r0
   d9324:	4798      	blx	r3
    }
   d9326:	4620      	mov	r0, r4
   d9328:	bd10      	pop	{r4, pc}

000d932a <_ZNSt15_Sp_counted_ptrIPN8particle6detail10FutureImplIbNS1_13FutureContextEEELN9__gnu_cxx12_Lock_policyE0EE10_M_disposeEv>:
      explicit
      _Sp_counted_ptr(_Ptr __p) noexcept
      : _M_ptr(__p) { }

      virtual void
      _M_dispose() noexcept
   d932a:	b538      	push	{r3, r4, r5, lr}
      { delete _M_ptr; }
   d932c:	68c4      	ldr	r4, [r0, #12]
   d932e:	b1d4      	cbz	r4, d9366 <_ZNSt15_Sp_counted_ptrIPN8particle6detail10FutureImplIbNS1_13FutureContextEEELN9__gnu_cxx12_Lock_policyE0EE10_M_disposeEv+0x3c>

      _Tp
      load(memory_order __m = memory_order_seq_cst) const noexcept
      { 
        _Tp tmp;
	__atomic_load(&_M_i, &tmp, __m);
   d9330:	7823      	ldrb	r3, [r4, #0]
    ~FutureImpl() {
        // Call destructor of the appropriate unnamed enum's field
        const State s = this->state();
        if (s == State::SUCCEEDED) {
            result_.~ResultT();
        } else if (s == State::FAILED) {
   d9332:	2b02      	cmp	r3, #2
   d9334:	d102      	bne.n	d933c <_ZNSt15_Sp_counted_ptrIPN8particle6detail10FutureImplIbNS1_13FutureContextEEELN9__gnu_cxx12_Lock_policyE0EE10_M_disposeEv+0x12>
        Error() {
    swap(*this, error);
}

inline particle::Error::~Error() {
    free((void*)msg_);
   d9336:	68e0      	ldr	r0, [r4, #12]
   d9338:	f7ff ffa2 	bl	d9280 <free>
      {
        memory_order __b = __m & __memory_order_mask;
	__glibcxx_assert(__b != memory_order_release);
	__glibcxx_assert(__b != memory_order_acq_rel);

	return __atomic_load_n(&_M_p, __m);
   d933c:	6865      	ldr	r5, [r4, #4]
    // Completion callback types
    typedef typename detail::FutureCallbackTypes<ResultT>::OnSuccess OnSuccessCallback;
    typedef typename detail::FutureCallbackTypes<ResultT>::OnError OnErrorCallback;

    ~FutureImplBase() {
        delete onSuccess_.load(std::memory_order_relaxed);
   d933e:	b12d      	cbz	r5, d934c <_ZNSt15_Sp_counted_ptrIPN8particle6detail10FutureImplIbNS1_13FutureContextEEELN9__gnu_cxx12_Lock_policyE0EE10_M_disposeEv+0x22>
   *  @ingroup functors
   *
   *  Polymorphic function wrapper.
   */
  template<typename _Res, typename... _ArgTypes>
    class function<_Res(_ArgTypes...)>
   d9340:	4628      	mov	r0, r5
   d9342:	f7ff ffe9 	bl	d9318 <_ZNSt14_Function_baseD1Ev>
   d9346:	4628      	mov	r0, r5
   d9348:	f7fa fea9 	bl	d409e <_ZdlPv>
   d934c:	68a5      	ldr	r5, [r4, #8]
        delete onError_.load(std::memory_order_relaxed);
   d934e:	b12d      	cbz	r5, d935c <_ZNSt15_Sp_counted_ptrIPN8particle6detail10FutureImplIbNS1_13FutureContextEEELN9__gnu_cxx12_Lock_policyE0EE10_M_disposeEv+0x32>
   d9350:	4628      	mov	r0, r5
   d9352:	f7ff ffe1 	bl	d9318 <_ZNSt14_Function_baseD1Ev>
   d9356:	4628      	mov	r0, r5
   d9358:	f7fa fea1 	bl	d409e <_ZdlPv>
   d935c:	4620      	mov	r0, r4
   d935e:	e8bd 4038 	ldmia.w	sp!, {r3, r4, r5, lr}
   d9362:	f7fa be9c 	b.w	d409e <_ZdlPv>
   d9366:	bd38      	pop	{r3, r4, r5, pc}

000d9368 <_ZN10CloudClass22call_raw_user_functionEPvPKcS0_>:
}
#endif
} // namespace

int CloudClass::call_raw_user_function(void* data, const char* param, void* reserved)
{
   d9368:	b510      	push	{r4, lr}
   d936a:	b088      	sub	sp, #32
   d936c:	4604      	mov	r4, r0
    user_function_int_str_t* fn = (user_function_int_str_t*)(data);
    String p(param);
   d936e:	4668      	mov	r0, sp
   d9370:	f000 ff3b 	bl	da1ea <_ZN6StringC1EPK19__FlashStringHelper>
    return (*fn)(p);
   d9374:	4669      	mov	r1, sp
   d9376:	a804      	add	r0, sp, #16
   d9378:	f000 ff76 	bl	da268 <_ZN6StringC1ERKS_>
   d937c:	a804      	add	r0, sp, #16
   d937e:	47a0      	blx	r4
   d9380:	4604      	mov	r4, r0
   d9382:	a804      	add	r0, sp, #16
   d9384:	f000 feea 	bl	da15c <_ZN6StringD1Ev>
} // namespace

int CloudClass::call_raw_user_function(void* data, const char* param, void* reserved)
{
    user_function_int_str_t* fn = (user_function_int_str_t*)(data);
    String p(param);
   d9388:	4668      	mov	r0, sp
   d938a:	f000 fee7 	bl	da15c <_ZN6StringD1Ev>
    return (*fn)(p);
}
   d938e:	4620      	mov	r0, r4
   d9390:	b008      	add	sp, #32
   d9392:	bd10      	pop	{r4, pc}

000d9394 <_ZN10CloudClass17register_functionEPFiPvPKcS0_ES0_S2_>:
    wiring_event_handler_t* fn = (wiring_event_handler_t*)(handler_data);
    (*fn)(event_name, data);
}

bool CloudClass::register_function(cloud_function_t fn, void* data, const char* funcKey)
{
   d9394:	b5f0      	push	{r4, r5, r6, r7, lr}
    cloud_function_descriptor desc;
    memset(&desc, 0, sizeof(desc));
   d9396:	2410      	movs	r4, #16
    wiring_event_handler_t* fn = (wiring_event_handler_t*)(handler_data);
    (*fn)(event_name, data);
}

bool CloudClass::register_function(cloud_function_t fn, void* data, const char* funcKey)
{
   d9398:	b085      	sub	sp, #20
   d939a:	4607      	mov	r7, r0
   d939c:	460e      	mov	r6, r1
   d939e:	4615      	mov	r5, r2
    cloud_function_descriptor desc;
    memset(&desc, 0, sizeof(desc));
   d93a0:	2100      	movs	r1, #0
   d93a2:	4622      	mov	r2, r4
   d93a4:	4668      	mov	r0, sp
   d93a6:	f002 fd43 	bl	dbe30 <memset>
    desc.size = sizeof(desc);
    desc.fn = fn;
    desc.data = (void*)data;
    desc.funcKey = funcKey;
    return spark_function(NULL, (user_function_int_str_t*)&desc, NULL);
   d93aa:	2200      	movs	r2, #0
   d93ac:	4669      	mov	r1, sp
   d93ae:	4610      	mov	r0, r2

bool CloudClass::register_function(cloud_function_t fn, void* data, const char* funcKey)
{
    cloud_function_descriptor desc;
    memset(&desc, 0, sizeof(desc));
    desc.size = sizeof(desc);
   d93b0:	f8ad 4000 	strh.w	r4, [sp]
    desc.fn = fn;
   d93b4:	9702      	str	r7, [sp, #8]
    desc.data = (void*)data;
   d93b6:	9603      	str	r6, [sp, #12]
    desc.funcKey = funcKey;
   d93b8:	9501      	str	r5, [sp, #4]
    return spark_function(NULL, (user_function_int_str_t*)&desc, NULL);
   d93ba:	f7ff ff09 	bl	d91d0 <spark_function>
}
   d93be:	b005      	add	sp, #20
   d93c0:	bdf0      	pop	{r4, r5, r6, r7, pc}

000d93c2 <_ZN8particle6FutureIbNS_6detail13FutureContextEEC1ESt10shared_ptrINS1_10FutureImplIbS2_EEE>:
};

template<typename ResultT, typename ContextT = detail::FutureContext>
class Future: public FutureBase<ResultT, ContextT> {
public:
    using FutureBase<ResultT, ContextT>::FutureBase;
   d93c2:	b513      	push	{r0, r1, r4, lr}
   d93c4:	4604      	mov	r4, r0
      }

      void
      _M_swap(__shared_count& __r) noexcept
      {
	_Sp_counted_base<_Lp>* __tmp = __r._M_pi;
   d93c6:	e891 0005 	ldmia.w	r1, {r0, r2}
	__r._M_pi = _M_pi;
   d93ca:	2300      	movs	r3, #0
   d93cc:	604b      	str	r3, [r1, #4]

      __shared_ptr(__shared_ptr&& __r) noexcept
      : _M_ptr(__r._M_ptr), _M_refcount()
      {
	_M_refcount._M_swap(__r._M_refcount);
	__r._M_ptr = 0;
   d93ce:	600b      	str	r3, [r1, #0]
	__shared_ptr(const __shared_ptr<_Tp1, _Lp>& __r) noexcept
	: _M_ptr(__r._M_ptr), _M_refcount(__r._M_refcount)
	{ }

      __shared_ptr(__shared_ptr&& __r) noexcept
      : _M_ptr(__r._M_ptr), _M_refcount()
   d93d0:	6020      	str	r0, [r4, #0]
      void
      _M_swap(__shared_count& __r) noexcept
      {
	_Sp_counted_base<_Lp>* __tmp = __r._M_pi;
	__r._M_pi = _M_pi;
	_M_pi = __tmp;
   d93d2:	6062      	str	r2, [r4, #4]
	: _M_ptr(__p), _M_refcount(__r._M_refcount) // never throws
	{ }

      __shared_ptr(const __shared_ptr&) noexcept = default;
      __shared_ptr& operator=(const __shared_ptr&) noexcept = default;
      ~__shared_ptr() = default;
   d93d4:	a801      	add	r0, sp, #4

      void
      _M_swap(__shared_count& __r) noexcept
      {
	_Sp_counted_base<_Lp>* __tmp = __r._M_pi;
	__r._M_pi = _M_pi;
   d93d6:	9301      	str	r3, [sp, #4]

      __shared_ptr(__shared_ptr&& __r) noexcept
      : _M_ptr(__r._M_ptr), _M_refcount()
      {
	_M_refcount._M_swap(__r._M_refcount);
	__r._M_ptr = 0;
   d93d8:	9300      	str	r3, [sp, #0]
	: _M_ptr(__p), _M_refcount(__r._M_refcount) // never throws
	{ }

      __shared_ptr(const __shared_ptr&) noexcept = default;
      __shared_ptr& operator=(const __shared_ptr&) noexcept = default;
      ~__shared_ptr() = default;
   d93da:	f7fc fb89 	bl	d5af0 <_ZNSt14__shared_countILN9__gnu_cxx12_Lock_policyE0EED1Ev>
   d93de:	4620      	mov	r0, r4
   d93e0:	b002      	add	sp, #8
   d93e2:	bd10      	pop	{r4, pc}

000d93e4 <_ZNSt14__shared_countILN9__gnu_cxx12_Lock_policyE0EEC1ERKS2_>:
	if (_M_pi != nullptr)
	  _M_pi->_M_release();
      }

      __shared_count(const __shared_count& __r) noexcept
      : _M_pi(__r._M_pi)
   d93e4:	680b      	ldr	r3, [r1, #0]
   d93e6:	6003      	str	r3, [r0, #0]
      {
	if (_M_pi != 0)
   d93e8:	b113      	cbz	r3, d93f0 <_ZNSt14__shared_countILN9__gnu_cxx12_Lock_policyE0EEC1ERKS2_+0xc>
    }

  template<>
    inline void
    _Sp_counted_base<_S_single>::_M_add_ref_copy()
    { ++_M_use_count; }
   d93ea:	685a      	ldr	r2, [r3, #4]
   d93ec:	3201      	adds	r2, #1
   d93ee:	605a      	str	r2, [r3, #4]
      __shared_count(const __shared_count& __r) noexcept
      : _M_pi(__r._M_pi)
      {
	if (_M_pi != 0)
	  _M_pi->_M_add_ref_copy();
      }
   d93f0:	4770      	bx	lr

000d93f2 <_ZN8particle11PromiseBaseIbNS_6detail13FutureContextEE11fromDataPtrEPv>:
        // TODO: Use custom reference counting object to avoid unnecessary memory allocation
        return new detail::FutureImplPtr<ResultT, ContextT>(p_);
    }

    // Unwraps promise from an object pointer created via dataPtr() method
    static Promise<ResultT, ContextT> fromDataPtr(void* data) {
   d93f2:	b5f7      	push	{r0, r1, r2, r4, r5, r6, r7, lr}
      template<typename _Tp1>
	__shared_ptr(const __shared_ptr<_Tp1, _Lp>& __r, _Tp* __p) noexcept
	: _M_ptr(__p), _M_refcount(__r._M_refcount) // never throws
	{ }

      __shared_ptr(const __shared_ptr&) noexcept = default;
   d93f4:	460c      	mov	r4, r1
   d93f6:	ad02      	add	r5, sp, #8
   d93f8:	f854 3b04 	ldr.w	r3, [r4], #4
   d93fc:	f845 3d08 	str.w	r3, [r5, #-8]!
   d9400:	4606      	mov	r6, r0
   d9402:	460f      	mov	r7, r1
   d9404:	a801      	add	r0, sp, #4
   d9406:	4621      	mov	r1, r4
   d9408:	f7ff ffec 	bl	d93e4 <_ZNSt14__shared_countILN9__gnu_cxx12_Lock_policyE0EEC1ERKS2_>
        auto d = static_cast<detail::FutureImplPtr<ResultT, ContextT>*>(data);
        const Promise<ResultT, ContextT> p(*d);
   d940c:	4629      	mov	r1, r5
   d940e:	4630      	mov	r0, r6
   d9410:	f7ff ffd7 	bl	d93c2 <_ZN8particle6FutureIbNS_6detail13FutureContextEEC1ESt10shared_ptrINS1_10FutureImplIbS2_EEE>
      __shared_ptr& operator=(const __shared_ptr&) noexcept = default;
      ~__shared_ptr() = default;
   d9414:	a801      	add	r0, sp, #4
   d9416:	f7fc fb6b 	bl	d5af0 <_ZNSt14__shared_countILN9__gnu_cxx12_Lock_policyE0EED1Ev>
   d941a:	4620      	mov	r0, r4
   d941c:	f7fc fb68 	bl	d5af0 <_ZNSt14__shared_countILN9__gnu_cxx12_Lock_policyE0EED1Ev>
        delete d;
   d9420:	4638      	mov	r0, r7
   d9422:	f7fa fe3c 	bl	d409e <_ZdlPv>
        return p;
    }
   d9426:	4630      	mov	r0, r6
   d9428:	b003      	add	sp, #12
   d942a:	bdf0      	pop	{r4, r5, r6, r7, pc}

000d942c <_ZSt4swapISt9_Any_dataEvRT_S2_>:
   *  @param  __b  Another thing of arbitrary type.
   *  @return   Nothing.
  */
  template<typename _Tp>
    inline void
    swap(_Tp& __a, _Tp& __b)
   d942c:	b513      	push	{r0, r1, r4, lr}
   d942e:	460b      	mov	r3, r1
   d9430:	4604      	mov	r4, r0
#endif
    {
      // concept requirements
      __glibcxx_function_requires(_SGIAssignableConcept<_Tp>)

      _Tp __tmp = _GLIBCXX_MOVE(__a);
   d9432:	c803      	ldmia	r0, {r0, r1}
   d9434:	e88d 0003 	stmia.w	sp, {r0, r1}
      __a = _GLIBCXX_MOVE(__b);
   d9438:	e893 0003 	ldmia.w	r3, {r0, r1}
   d943c:	e884 0003 	stmia.w	r4, {r0, r1}
      __b = _GLIBCXX_MOVE(__tmp);
   d9440:	e89d 0003 	ldmia.w	sp, {r0, r1}
   d9444:	e883 0003 	stmia.w	r3, {r0, r1}
    }
   d9448:	b002      	add	sp, #8
   d944a:	bd10      	pop	{r4, pc}

000d944c <_ZNKSt8functionIFvRKN8particle5ErrorEEEclES3_>:
  template<typename _Res, typename... _ArgTypes>
    _Res
    function<_Res(_ArgTypes...)>::
    operator()(_ArgTypes... __args) const
    {
      if (_M_empty())
   d944c:	6882      	ldr	r2, [r0, #8]
	  }
      }

  template<typename _Res, typename... _ArgTypes>
    _Res
    function<_Res(_ArgTypes...)>::
   d944e:	b510      	push	{r4, lr}
    operator()(_ArgTypes... __args) const
    {
      if (_M_empty())
   d9450:	b90a      	cbnz	r2, d9456 <_ZNKSt8functionIFvRKN8particle5ErrorEEEclES3_+0xa>
	__throw_bad_function_call();
   d9452:	f001 fe7c 	bl	db14e <_ZSt25__throw_bad_function_callv>
      return _M_invoker(_M_functor, std::forward<_ArgTypes>(__args)...);
   d9456:	68c3      	ldr	r3, [r0, #12]
    }
   d9458:	e8bd 4010 	ldmia.w	sp!, {r4, lr}
    function<_Res(_ArgTypes...)>::
    operator()(_ArgTypes... __args) const
    {
      if (_M_empty())
	__throw_bad_function_call();
      return _M_invoker(_M_functor, std::forward<_ArgTypes>(__args)...);
   d945c:	4718      	bx	r3

000d945e <_ZNSt17_Function_handlerIFvvESt5_BindIFSt8functionIFvRKN8particle5ErrorEEES4_EEE9_M_invokeERKSt9_Any_data>:
    {
      typedef _Function_base::_Base_manager<_Functor> _Base;

     public:
      static void
      _M_invoke(const _Any_data& __functor, _ArgTypes&&... __args)
   d945e:	b508      	push	{r3, lr}
	static _Functor*
	_M_get_pointer(const _Any_data& __source)
	{
	  const _Functor* __ptr =
	    __stored_locally? std::__addressof(__source._M_access<_Functor>())
	    /* have stored a pointer */ : __source._M_access<_Functor*>();
   d9460:	6800      	ldr	r0, [r0, #0]
      template<typename _Result, typename... _Args, std::size_t... _Indexes>
	_Result
	__call(tuple<_Args...>&& __args, _Index_tuple<_Indexes...>)
	{
	  return _M_f(_Mu<_Bound_args>()
		      (std::get<_Indexes>(_M_bound_args), __args)...);
   d9462:	f100 0110 	add.w	r1, r0, #16
   d9466:	f7ff fff1 	bl	d944c <_ZNKSt8functionIFvRKN8particle5ErrorEEEclES3_>
   d946a:	bd08      	pop	{r3, pc}

000d946c <_ZNKSt8functionIFvRKbEEclES1_>:
  template<typename _Res, typename... _ArgTypes>
    _Res
    function<_Res(_ArgTypes...)>::
    operator()(_ArgTypes... __args) const
    {
      if (_M_empty())
   d946c:	6882      	ldr	r2, [r0, #8]
	  }
      }

  template<typename _Res, typename... _ArgTypes>
    _Res
    function<_Res(_ArgTypes...)>::
   d946e:	b510      	push	{r4, lr}
    operator()(_ArgTypes... __args) const
    {
      if (_M_empty())
   d9470:	b90a      	cbnz	r2, d9476 <_ZNKSt8functionIFvRKbEEclES1_+0xa>
	__throw_bad_function_call();
   d9472:	f001 fe6c 	bl	db14e <_ZSt25__throw_bad_function_callv>
      return _M_invoker(_M_functor, std::forward<_ArgTypes>(__args)...);
   d9476:	68c3      	ldr	r3, [r0, #12]
    }
   d9478:	e8bd 4010 	ldmia.w	sp!, {r4, lr}
    function<_Res(_ArgTypes...)>::
    operator()(_ArgTypes... __args) const
    {
      if (_M_empty())
	__throw_bad_function_call();
      return _M_invoker(_M_functor, std::forward<_ArgTypes>(__args)...);
   d947c:	4718      	bx	r3

000d947e <_ZNSt17_Function_handlerIFvvESt5_BindIFSt8functionIFvRKbEEbEEE9_M_invokeERKSt9_Any_data>:
    {
      typedef _Function_base::_Base_manager<_Functor> _Base;

     public:
      static void
      _M_invoke(const _Any_data& __functor, _ArgTypes&&... __args)
   d947e:	b508      	push	{r3, lr}
	static _Functor*
	_M_get_pointer(const _Any_data& __source)
	{
	  const _Functor* __ptr =
	    __stored_locally? std::__addressof(__source._M_access<_Functor>())
	    /* have stored a pointer */ : __source._M_access<_Functor*>();
   d9480:	6800      	ldr	r0, [r0, #0]
      template<typename _Result, typename... _Args, std::size_t... _Indexes>
	_Result
	__call(tuple<_Args...>&& __args, _Index_tuple<_Indexes...>)
	{
	  return _M_f(_Mu<_Bound_args>()
		      (std::get<_Indexes>(_M_bound_args), __args)...);
   d9482:	f100 0110 	add.w	r1, r0, #16
   d9486:	f7ff fff1 	bl	d946c <_ZNKSt8functionIFvRKbEEclES1_>
   d948a:	bd08      	pop	{r3, pc}

000d948c <_ZNSt8functionIFvRKN8particle5ErrorEEEC1ERKS5_>:
      _Invoker_type _M_invoker;
  };

  // Out-of-line member definitions.
  template<typename _Res, typename... _ArgTypes>
    function<_Res(_ArgTypes...)>::
   d948c:	b538      	push	{r3, r4, r5, lr}
	{
	  _Base::_M_init_functor(__functor, std::__addressof(__f.get()));
	}
      };

    _Function_base() : _M_manager(nullptr) { }
   d948e:	2300      	movs	r3, #0
   d9490:	6083      	str	r3, [r0, #8]
   d9492:	688b      	ldr	r3, [r1, #8]
      _Invoker_type _M_invoker;
  };

  // Out-of-line member definitions.
  template<typename _Res, typename... _ArgTypes>
    function<_Res(_ArgTypes...)>::
   d9494:	4604      	mov	r4, r0
   d9496:	460d      	mov	r5, r1
    function(const function& __x)
    : _Function_base()
    {
      if (static_cast<bool>(__x))
   d9498:	b12b      	cbz	r3, d94a6 <_ZNSt8functionIFvRKN8particle5ErrorEEEC1ERKS5_+0x1a>
	{
	  __x._M_manager(_M_functor, __x._M_functor, __clone_functor);
   d949a:	2202      	movs	r2, #2
   d949c:	4798      	blx	r3
	  _M_invoker = __x._M_invoker;
   d949e:	68eb      	ldr	r3, [r5, #12]
   d94a0:	60e3      	str	r3, [r4, #12]
	  _M_manager = __x._M_manager;
   d94a2:	68ab      	ldr	r3, [r5, #8]
   d94a4:	60a3      	str	r3, [r4, #8]
	}
    }
   d94a6:	4620      	mov	r0, r4
   d94a8:	bd38      	pop	{r3, r4, r5, pc}
	...

000d94ac <_ZN8particle11PromiseBaseIbNS_6detail13FutureContextEE8setErrorENS_5ErrorE>:

    explicit PromiseBase(detail::FutureImplPtr<ResultT, ContextT> ptr) :
            p_(std::move(ptr)) {
    }

    void setError(Error error) {
   d94ac:	e92d 41f0 	stmdb	sp!, {r4, r5, r6, r7, r8, lr}
      // concept requirements
      __glibcxx_function_requires(_SGIAssignableConcept<_Tp>)

      _Tp __tmp = _GLIBCXX_MOVE(__a);
      __a = _GLIBCXX_MOVE(__b);
      __b = _GLIBCXX_MOVE(__tmp);
   d94b0:	f64f 739c 	movw	r3, #65436	; 0xff9c
   d94b4:	b086      	sub	sp, #24
   d94b6:	6804      	ldr	r4, [r0, #0]
    {
      // concept requirements
      __glibcxx_function_requires(_SGIAssignableConcept<_Tp>)

      _Tp __tmp = _GLIBCXX_MOVE(__a);
      __a = _GLIBCXX_MOVE(__b);
   d94b8:	f9b1 2004 	ldrsh.w	r2, [r1, #4]
      __b = _GLIBCXX_MOVE(__tmp);
   d94bc:	808b      	strh	r3, [r1, #4]
   d94be:	2300      	movs	r3, #0
    {
      // concept requirements
      __glibcxx_function_requires(_SGIAssignableConcept<_Tp>)

      _Tp __tmp = _GLIBCXX_MOVE(__a);
      __a = _GLIBCXX_MOVE(__b);
   d94c0:	680f      	ldr	r7, [r1, #0]
            onSuccess_(nullptr),
            onError_(nullptr) {
    }

    bool changeState(State state) {
        State s = State::RUNNING; // Expected state
   d94c2:	f88d 3000 	strb.w	r3, [sp]
      __b = _GLIBCXX_MOVE(__tmp);
   d94c6:	600b      	str	r3, [r1, #0]

      bool
      compare_exchange_strong(_Tp& __e, _Tp __i, memory_order __s, 
			      memory_order __f) noexcept
      {
	return __atomic_compare_exchange(&_M_i, &__e, &__i, false, __s, __f);
   d94c8:	f04f 0002 	mov.w	r0, #2
   d94cc:	e8d4 1f4f 	ldrexb	r1, [r4]
   d94d0:	4299      	cmp	r1, r3
   d94d2:	d103      	bne.n	d94dc <_ZN8particle11PromiseBaseIbNS_6detail13FutureContextEE8setErrorENS_5ErrorE+0x30>
   d94d4:	e8c4 0f45 	strexb	r5, r0, [r4]
   d94d8:	2d00      	cmp	r5, #0
   d94da:	d1f7      	bne.n	d94cc <_ZN8particle11PromiseBaseIbNS_6detail13FutureContextEE8setErrorENS_5ErrorE+0x20>
   d94dc:	d002      	beq.n	d94e4 <_ZN8particle11PromiseBaseIbNS_6detail13FutureContextEE8setErrorENS_5ErrorE+0x38>
   d94de:	f88d 1000 	strb.w	r1, [sp]
   d94e2:	e06a      	b.n	d95ba <_ZN8particle11PromiseBaseIbNS_6detail13FutureContextEE8setErrorENS_5ErrorE+0x10e>
        return std::move(defaultValue);
    }

    void setError(Error error) {
        if (this->changeState(State::FAILED)) {
            new(&error_) Error(std::move(error));
   d94e4:	f114 050c 	adds.w	r5, r4, #12
    {
      // concept requirements
      __glibcxx_function_requires(_SGIAssignableConcept<_Tp>)

      _Tp __tmp = _GLIBCXX_MOVE(__a);
      __a = _GLIBCXX_MOVE(__b);
   d94e8:	bf1e      	ittt	ne
   d94ea:	60e7      	strne	r7, [r4, #12]
   d94ec:	8222      	strhne	r2, [r4, #16]
      __b = _GLIBCXX_MOVE(__tmp);
   d94ee:	461f      	movne	r7, r3
        memory_order __b = __m & __memory_order_mask;
	__glibcxx_assert(__b != memory_order_acquire);
	__glibcxx_assert(__b != memory_order_acq_rel);
	__glibcxx_assert(__b != memory_order_consume);

	__atomic_store_n(&_M_i, __i, __m);
   d94f0:	2301      	movs	r3, #1
   d94f2:	f3bf 8f5f 	dmb	sy

      _GLIBCXX_ALWAYS_INLINE __pointer_type
      exchange(__pointer_type __p,
	       memory_order __m = memory_order_seq_cst) noexcept
      {
	return __atomic_exchange_n(&_M_p, __p, __m);
   d94f6:	2000      	movs	r0, #0
        memory_order __b = __m & __memory_order_mask;
	__glibcxx_assert(__b != memory_order_acquire);
	__glibcxx_assert(__b != memory_order_acq_rel);
	__glibcxx_assert(__b != memory_order_consume);

	__atomic_store_n(&_M_i, __i, __m);
   d94f8:	7063      	strb	r3, [r4, #1]

      _GLIBCXX_ALWAYS_INLINE __pointer_type
      exchange(__pointer_type __p,
	       memory_order __m = memory_order_seq_cst) noexcept
      {
	return __atomic_exchange_n(&_M_p, __p, __m);
   d94fa:	f104 0308 	add.w	r3, r4, #8
   d94fe:	f3bf 8f5f 	dmb	sy
   d9502:	e853 6f00 	ldrex	r6, [r3]
   d9506:	e843 0200 	strex	r2, r0, [r3]
   d950a:	2a00      	cmp	r2, #0
   d950c:	d1f9      	bne.n	d9502 <_ZN8particle11PromiseBaseIbNS_6detail13FutureContextEE8setErrorENS_5ErrorE+0x56>
   d950e:	f3bf 8f5f 	dmb	sy

    // Takes a callback from its atomic wrapper and invokes it
    template<typename FunctionT, typename... ArgsT>
    static void invokeCallback(std::atomic<std::function<FunctionT>*>& wrapper, ArgsT&&... args) {
        std::function<FunctionT>* callbackPtr = wrapper.exchange(nullptr, std::memory_order_acq_rel);
        if (callbackPtr) {
   d9512:	2e00      	cmp	r6, #0
   d9514:	d051      	beq.n	d95ba <_ZN8particle11PromiseBaseIbNS_6detail13FutureContextEE8setErrorENS_5ErrorE+0x10e>
        return (application_thread_invoke(callback, data, nullptr) == 0);
    }

    // Returns true if current thread is the application thread
    static bool isApplicationThreadCurrent() {
        return (application_thread_current(nullptr) != 0);
   d9516:	f7ff fe1b 	bl	d9150 <application_thread_current>
    }

    // Invokes std::function in the application context
    template<typename FunctionT, typename... ArgsT>
    static void invokeCallback(const std::function<FunctionT>& callback, ArgsT&&... args) {
        if (ContextT::isApplicationThreadCurrent()) {
   d951a:	b120      	cbz	r0, d9526 <_ZN8particle11PromiseBaseIbNS_6detail13FutureContextEE8setErrorENS_5ErrorE+0x7a>
            callback(std::forward<ArgsT>(args)...); // Synchronous call
   d951c:	4629      	mov	r1, r5
   d951e:	4630      	mov	r0, r6
   d9520:	f7ff ff94 	bl	d944c <_ZNKSt8functionIFvRKN8particle5ErrorEEEclES3_>
   d9524:	e043      	b.n	d95ae <_ZN8particle11PromiseBaseIbNS_6detail13FutureContextEE8setErrorENS_5ErrorE+0x102>
	}

     public:
      template<typename... _Args>
	explicit _Bind(const _Functor& __f, _Args&&... __args)
	: _M_f(__f), _M_bound_args(std::forward<_Args>(__args)...)
   d9526:	4631      	mov	r1, r6
   d9528:	4668      	mov	r0, sp
   d952a:	f7ff ffaf 	bl	d948c <_ZNSt8functionIFvRKN8particle5ErrorEEEC1ERKS5_>
inline particle::Error::Error(const char* msg) :
        Error(UNKNOWN, msg) {
}

inline particle::Error::Error(const Error& error) :
        Error(error.type_, error.msg_) {
   d952e:	68e0      	ldr	r0, [r4, #12]
   d9530:	f9b4 5010 	ldrsh.w	r5, [r4, #16]
        type_(type) {
}

inline particle::Error::Error(Type type, const char* msg) :
        msg_(msg ? (const char*)strdup(msg) : nullptr),
        type_(type) {
   d9534:	b108      	cbz	r0, d953a <_ZN8particle11PromiseBaseIbNS_6detail13FutureContextEE8setErrorENS_5ErrorE+0x8e>
   d9536:	f002 fcc5 	bl	dbec4 <strdup>
   d953a:	9004      	str	r0, [sp, #16]
        } else {
            // Bind all arguments and wrap resulting function into a pointer
            auto callbackPtr = new std::function<void()>(std::bind(callback, std::forward<ArgsT>(args)...));
   d953c:	2010      	movs	r0, #16
   d953e:	f8ad 5014 	strh.w	r5, [sp, #20]
   d9542:	f7fa fda8 	bl	d4096 <_Znwj>
   d9546:	4605      	mov	r5, r0
   d9548:	b330      	cbz	r0, d9598 <_ZN8particle11PromiseBaseIbNS_6detail13FutureContextEE8setErrorENS_5ErrorE+0xec>
	{
	  _Base::_M_init_functor(__functor, std::__addressof(__f.get()));
	}
      };

    _Function_base() : _M_manager(nullptr) { }
   d954a:	f04f 0800 	mov.w	r8, #0
   d954e:	f8c0 8008 	str.w	r8, [r0, #8]
	_M_init_functor(_Any_data& __functor, _Functor&& __f, true_type)
	{ new (__functor._M_access()) _Functor(std::move(__f)); }

	static void
	_M_init_functor(_Any_data& __functor, _Functor&& __f, false_type)
	{ __functor._M_access<_Functor*>() = new _Functor(std::move(__f)); }
   d9552:	2018      	movs	r0, #24
   d9554:	f7fa fd9f 	bl	d4096 <_Znwj>
   d9558:	4604      	mov	r4, r0
   d955a:	b1c0      	cbz	r0, d958e <_ZN8particle11PromiseBaseIbNS_6detail13FutureContextEE8setErrorENS_5ErrorE+0xe2>
	{
	  _Base::_M_init_functor(__functor, std::__addressof(__f.get()));
	}
      };

    _Function_base() : _M_manager(nullptr) { }
   d955c:	f8c0 8008 	str.w	r8, [r0, #8]
       *  Swap the targets of @c this function object and @a __f. This
       *  function will not throw an %exception.
       */
      void swap(function& __x)
      {
	std::swap(_M_functor, __x._M_functor);
   d9560:	4601      	mov	r1, r0
   d9562:	4668      	mov	r0, sp
   d9564:	f7ff ff62 	bl	d942c <_ZSt4swapISt9_Any_dataEvRT_S2_>
#endif
    {
      // concept requirements
      __glibcxx_function_requires(_SGIAssignableConcept<_Tp>)

      _Tp __tmp = _GLIBCXX_MOVE(__a);
   d9568:	9b02      	ldr	r3, [sp, #8]
      __a = _GLIBCXX_MOVE(__b);
   d956a:	68a2      	ldr	r2, [r4, #8]
      __b = _GLIBCXX_MOVE(__tmp);
   d956c:	60a3      	str	r3, [r4, #8]
#endif
    {
      // concept requirements
      __glibcxx_function_requires(_SGIAssignableConcept<_Tp>)

      _Tp __tmp = _GLIBCXX_MOVE(__a);
   d956e:	9b03      	ldr	r3, [sp, #12]
      __a = _GLIBCXX_MOVE(__b);
   d9570:	9202      	str	r2, [sp, #8]
   d9572:	68e2      	ldr	r2, [r4, #12]
      __b = _GLIBCXX_MOVE(__tmp);
   d9574:	60e3      	str	r3, [r4, #12]
    {
      // concept requirements
      __glibcxx_function_requires(_SGIAssignableConcept<_Tp>)

      _Tp __tmp = _GLIBCXX_MOVE(__a);
      __a = _GLIBCXX_MOVE(__b);
   d9576:	f8bd 3014 	ldrh.w	r3, [sp, #20]
   d957a:	82a3      	strh	r3, [r4, #20]
      __b = _GLIBCXX_MOVE(__tmp);
   d957c:	f64f 739c 	movw	r3, #65436	; 0xff9c
   d9580:	f8ad 3014 	strh.w	r3, [sp, #20]
    {
      // concept requirements
      __glibcxx_function_requires(_SGIAssignableConcept<_Tp>)

      _Tp __tmp = _GLIBCXX_MOVE(__a);
      __a = _GLIBCXX_MOVE(__b);
   d9584:	9b04      	ldr	r3, [sp, #16]
   d9586:	9203      	str	r2, [sp, #12]
   d9588:	6123      	str	r3, [r4, #16]
      __b = _GLIBCXX_MOVE(__tmp);
   d958a:	f8cd 8010 	str.w	r8, [sp, #16]
	typedef _Function_handler<_Signature_type, _Functor> _My_handler;

	if (_My_handler::_M_not_empty_function(__f))
	  {
	    _My_handler::_M_init_functor(_M_functor, std::move(__f));
	    _M_invoker = &_My_handler::_M_invoke;
   d958e:	4b0e      	ldr	r3, [pc, #56]	; (d95c8 <_ZN8particle11PromiseBaseIbNS_6detail13FutureContextEE8setErrorENS_5ErrorE+0x11c>)
   d9590:	60eb      	str	r3, [r5, #12]
	    _M_manager = &_My_handler::_M_manager;
   d9592:	4b0e      	ldr	r3, [pc, #56]	; (d95cc <_ZN8particle11PromiseBaseIbNS_6detail13FutureContextEE8setErrorENS_5ErrorE+0x120>)
	_M_init_functor(_Any_data& __functor, _Functor&& __f, true_type)
	{ new (__functor._M_access()) _Functor(std::move(__f)); }

	static void
	_M_init_functor(_Any_data& __functor, _Functor&& __f, false_type)
	{ __functor._M_access<_Functor*>() = new _Functor(std::move(__f)); }
   d9594:	602c      	str	r4, [r5, #0]

	if (_My_handler::_M_not_empty_function(__f))
	  {
	    _My_handler::_M_init_functor(_M_functor, std::move(__f));
	    _M_invoker = &_My_handler::_M_invoke;
	    _M_manager = &_My_handler::_M_manager;
   d9596:	60ab      	str	r3, [r5, #8]
        Error() {
    swap(*this, error);
}

inline particle::Error::~Error() {
    free((void*)msg_);
   d9598:	9804      	ldr	r0, [sp, #16]
   d959a:	f7ff fe71 	bl	d9280 <free>
   *  @ingroup functors
   *
   *  Polymorphic function wrapper.
   */
  template<typename _Res, typename... _ArgTypes>
    class function<_Res(_ArgTypes...)>
   d959e:	4668      	mov	r0, sp
   d95a0:	f7ff feba 	bl	d9318 <_ZNSt14_Function_baseD1Ev>
        spark_process();
    }

    // Asynchronously invokes a callback in the application context
    static bool invokeApplicationCallback(void (*callback)(void* data), void* data) {
        return (application_thread_invoke(callback, data, nullptr) == 0);
   d95a4:	2200      	movs	r2, #0
   d95a6:	4629      	mov	r1, r5
   d95a8:	4809      	ldr	r0, [pc, #36]	; (d95d0 <_ZN8particle11PromiseBaseIbNS_6detail13FutureContextEE8setErrorENS_5ErrorE+0x124>)
   d95aa:	f7ff fdd9 	bl	d9160 <application_thread_invoke>
   d95ae:	4630      	mov	r0, r6
   d95b0:	f7ff feb2 	bl	d9318 <_ZNSt14_Function_baseD1Ev>
    template<typename FunctionT, typename... ArgsT>
    static void invokeCallback(std::atomic<std::function<FunctionT>*>& wrapper, ArgsT&&... args) {
        std::function<FunctionT>* callbackPtr = wrapper.exchange(nullptr, std::memory_order_acq_rel);
        if (callbackPtr) {
            invokeCallback(*callbackPtr, std::forward<ArgsT>(args)...);
            delete callbackPtr;
   d95b4:	4630      	mov	r0, r6
   d95b6:	f7fa fd72 	bl	d409e <_ZdlPv>
   d95ba:	4638      	mov	r0, r7
   d95bc:	f7ff fe60 	bl	d9280 <free>
            p_(std::move(ptr)) {
    }

    void setError(Error error) {
        p_->setError(std::move(error));
    }
   d95c0:	b006      	add	sp, #24
   d95c2:	e8bd 81f0 	ldmia.w	sp!, {r4, r5, r6, r7, r8, pc}
   d95c6:	bf00      	nop
   d95c8:	000d945f 	.word	0x000d945f
   d95cc:	000d96bd 	.word	0x000d96bd
   d95d0:	000d92d7 	.word	0x000d92d7

000d95d4 <_ZN10CloudClass13publish_eventEPKcS1_iN8particle5FlagsI15PublishFlagTypehEE>:

Future<bool> CloudClass::publish_event(const char *eventName, const char *eventData, int ttl, PublishFlags flags) {
   d95d4:	e92d 4ff0 	stmdb	sp!, {r4, r5, r6, r7, r8, r9, sl, fp, lr}
   d95d8:	b08b      	sub	sp, #44	; 0x2c
#ifndef SPARK_NO_CLOUD
    spark_send_event_data d = { sizeof(spark_send_event_data) };
   d95da:	ad07      	add	r5, sp, #28
   d95dc:	f04f 0b00 	mov.w	fp, #0
    desc.data = (void*)data;
    desc.funcKey = funcKey;
    return spark_function(NULL, (user_function_int_str_t*)&desc, NULL);
}

Future<bool> CloudClass::publish_event(const char *eventName, const char *eventData, int ttl, PublishFlags flags) {
   d95e0:	4606      	mov	r6, r0
   d95e2:	4699      	mov	r9, r3
// can be acquired via Future
template<typename ResultT, typename ContextT>
class PromiseBase {
public:
    PromiseBase() :
            p_(new detail::FutureImpl<ResultT, ContextT>(State::RUNNING)) {
   d95e4:	2014      	movs	r0, #20
#ifndef SPARK_NO_CLOUD
    spark_send_event_data d = { sizeof(spark_send_event_data) };
   d95e6:	230c      	movs	r3, #12
    desc.data = (void*)data;
    desc.funcKey = funcKey;
    return spark_function(NULL, (user_function_int_str_t*)&desc, NULL);
}

Future<bool> CloudClass::publish_event(const char *eventName, const char *eventData, int ttl, PublishFlags flags) {
   d95e8:	460f      	mov	r7, r1
   d95ea:	4690      	mov	r8, r2
   d95ec:	f89d a050 	ldrb.w	sl, [sp, #80]	; 0x50
#ifndef SPARK_NO_CLOUD
    spark_send_event_data d = { sizeof(spark_send_event_data) };
   d95f0:	f8c5 b004 	str.w	fp, [r5, #4]
   d95f4:	f8c5 b008 	str.w	fp, [r5, #8]
   d95f8:	9307      	str	r3, [sp, #28]
   d95fa:	f7fa fd4c 	bl	d4096 <_Znwj>
   d95fe:	4604      	mov	r4, r0
   d9600:	b138      	cbz	r0, d9612 <_ZN10CloudClass13publish_eventEPKcS1_iN8particle5FlagsI15PublishFlagTypehEE+0x3e>
      ~atomic() noexcept = default;
      atomic(const atomic&) = delete;
      atomic& operator=(const atomic&) = delete;
      atomic& operator=(const atomic&) volatile = delete;

      constexpr atomic(_Tp __i) noexcept : _M_i(__i) { }
   d9602:	f880 b000 	strb.w	fp, [r0]
      __atomic_base(const __atomic_base&) = delete;
      __atomic_base& operator=(const __atomic_base&) = delete;
      __atomic_base& operator=(const __atomic_base&) volatile = delete;

      // Requires __int_type convertible to _M_i.
      constexpr __atomic_base(__int_type __i) noexcept : _M_i (__i) { }
   d9606:	f880 b001 	strb.w	fp, [r0, #1]
      __atomic_base(const __atomic_base&) = delete;
      __atomic_base& operator=(const __atomic_base&) = delete;
      __atomic_base& operator=(const __atomic_base&) volatile = delete;

      // Requires __pointer_type convertible to _M_p.
      constexpr __atomic_base(__pointer_type __p) noexcept : _M_p (__p) { }
   d960a:	f8c0 b004 	str.w	fp, [r0, #4]
   d960e:	f8c0 b008 	str.w	fp, [r0, #8]
      constexpr __shared_count() noexcept : _M_pi(0)
      { }

      template<typename _Ptr>
        explicit
	__shared_count(_Ptr __p) : _M_pi(0)
   d9612:	2300      	movs	r3, #0
	{
	  __try
	    {
	      _M_pi = new _Sp_counted_ptr<_Ptr, _Lp>(__p);
   d9614:	2010      	movs	r0, #16
      : _M_ptr(0), _M_refcount()
      { }

      template<typename _Tp1>
	explicit __shared_ptr(_Tp1* __p)
        : _M_ptr(__p), _M_refcount(__p)
   d9616:	9403      	str	r4, [sp, #12]
      constexpr __shared_count() noexcept : _M_pi(0)
      { }

      template<typename _Ptr>
        explicit
	__shared_count(_Ptr __p) : _M_pi(0)
   d9618:	9304      	str	r3, [sp, #16]
	{
	  __try
	    {
	      _M_pi = new _Sp_counted_ptr<_Ptr, _Lp>(__p);
   d961a:	f7fa fd3c 	bl	d4096 <_Znwj>
   d961e:	b128      	cbz	r0, d962c <_ZN10CloudClass13publish_eventEPKcS1_iN8particle5FlagsI15PublishFlagTypehEE+0x58>
    class _Sp_counted_base
    : public _Mutex_base<_Lp>
    {
    public:  
      _Sp_counted_base() noexcept
      : _M_use_count(1), _M_weak_count(1) { }
   d9620:	2301      	movs	r3, #1
   d9622:	6043      	str	r3, [r0, #4]
   d9624:	6083      	str	r3, [r0, #8]
    class _Sp_counted_ptr final : public _Sp_counted_base<_Lp>
    {
    public:
      explicit
      _Sp_counted_ptr(_Ptr __p) noexcept
      : _M_ptr(__p) { }
   d9626:	4b23      	ldr	r3, [pc, #140]	; (d96b4 <_ZN10CloudClass13publish_eventEPKcS1_iN8particle5FlagsI15PublishFlagTypehEE+0xe0>)
   d9628:	6003      	str	r3, [r0, #0]
   d962a:	60c4      	str	r4, [r0, #12]
        explicit
	__shared_count(_Ptr __p) : _M_pi(0)
	{
	  __try
	    {
	      _M_pi = new _Sp_counted_ptr<_Ptr, _Lp>(__p);
   d962c:	9004      	str	r0, [sp, #16]

    // Completion handler
    Promise<bool> p;
    d.handler_callback = publishCompletionCallback;
   d962e:	4b22      	ldr	r3, [pc, #136]	; (d96b8 <_ZN10CloudClass13publish_eventEPKcS1_iN8particle5FlagsI15PublishFlagTypehEE+0xe4>)
   d9630:	9308      	str	r3, [sp, #32]
    }

    // Wraps this promise into an object pointer that can be passed to a C function
    void* dataPtr() const {
        // TODO: Use custom reference counting object to avoid unnecessary memory allocation
        return new detail::FutureImplPtr<ResultT, ContextT>(p_);
   d9632:	2008      	movs	r0, #8
   d9634:	f7fa fd2f 	bl	d4096 <_Znwj>
   d9638:	4604      	mov	r4, r0
   d963a:	b128      	cbz	r0, d9648 <_ZN10CloudClass13publish_eventEPKcS1_iN8particle5FlagsI15PublishFlagTypehEE+0x74>
      template<typename _Tp1>
	__shared_ptr(const __shared_ptr<_Tp1, _Lp>& __r, _Tp* __p) noexcept
	: _M_ptr(__p), _M_refcount(__r._M_refcount) // never throws
	{ }

      __shared_ptr(const __shared_ptr&) noexcept = default;
   d963c:	9b03      	ldr	r3, [sp, #12]
   d963e:	f840 3b04 	str.w	r3, [r0], #4
   d9642:	a904      	add	r1, sp, #16
   d9644:	f7ff fece 	bl	d93e4 <_ZNSt14__shared_countILN9__gnu_cxx12_Lock_policyE0EEC1ERKS2_>
    d.handler_data = p.dataPtr();

    if (!spark_send_event(eventName, eventData, ttl, flags.value(), &d) && !p.isDone()) {
   d9648:	9500      	str	r5, [sp, #0]
   d964a:	fa5f f38a 	uxtb.w	r3, sl
   d964e:	464a      	mov	r2, r9
   d9650:	4641      	mov	r1, r8
   d9652:	4638      	mov	r0, r7
    spark_send_event_data d = { sizeof(spark_send_event_data) };

    // Completion handler
    Promise<bool> p;
    d.handler_callback = publishCompletionCallback;
    d.handler_data = p.dataPtr();
   d9654:	9409      	str	r4, [sp, #36]	; 0x24

    if (!spark_send_event(eventName, eventData, ttl, flags.value(), &d) && !p.isDone()) {
   d9656:	f7ff fdd3 	bl	d9200 <spark_send_event>
   d965a:	b9b8      	cbnz	r0, d968c <_ZN10CloudClass13publish_eventEPKcS1_iN8particle5FlagsI15PublishFlagTypehEE+0xb8>
      {
       memory_order __b = __m & __memory_order_mask;
	__glibcxx_assert(__b != memory_order_release);
	__glibcxx_assert(__b != memory_order_acq_rel);

	return __atomic_load_n(&_M_i, __m);
   d965c:	9b03      	ldr	r3, [sp, #12]
   d965e:	785b      	ldrb	r3, [r3, #1]
   d9660:	f003 02ff 	and.w	r2, r3, #255	; 0xff
   d9664:	b993      	cbnz	r3, d968c <_ZN10CloudClass13publish_eventEPKcS1_iN8particle5FlagsI15PublishFlagTypehEE+0xb8>

} // namespace particle

inline particle::Error::Error(Type type) :
        msg_(nullptr),
        type_(type) {
   d9666:	f64f 739c 	movw	r3, #65436	; 0xff9c
        // Set generic error code in case completion callback wasn't invoked for some reason
        p.setError(Error::UNKNOWN);
   d966a:	a905      	add	r1, sp, #20
   d966c:	a803      	add	r0, sp, #12
   d966e:	9205      	str	r2, [sp, #20]
   d9670:	f8ad 3018 	strh.w	r3, [sp, #24]
   d9674:	f7ff ff1a 	bl	d94ac <_ZN8particle11PromiseBaseIbNS_6detail13FutureContextEE8setErrorENS_5ErrorE>
        Error() {
    swap(*this, error);
}

inline particle::Error::~Error() {
    free((void*)msg_);
   d9678:	9805      	ldr	r0, [sp, #20]
   d967a:	f7ff fe01 	bl	d9280 <free>
        p.fromDataPtr(d.handler_data); // Free wrapper object
   d967e:	a805      	add	r0, sp, #20
   d9680:	9909      	ldr	r1, [sp, #36]	; 0x24
   d9682:	f7ff feb6 	bl	d93f2 <_ZN8particle11PromiseBaseIbNS_6detail13FutureContextEE11fromDataPtrEPv>
      __shared_ptr& operator=(const __shared_ptr&) noexcept = default;
      ~__shared_ptr() = default;
   d9686:	a806      	add	r0, sp, #24
   d9688:	f7fc fa32 	bl	d5af0 <_ZNSt14__shared_countILN9__gnu_cxx12_Lock_policyE0EED1Ev>
      template<typename _Tp1>
	__shared_ptr(const __shared_ptr<_Tp1, _Lp>& __r, _Tp* __p) noexcept
	: _M_ptr(__p), _M_refcount(__r._M_refcount) // never throws
	{ }

      __shared_ptr(const __shared_ptr&) noexcept = default;
   d968c:	9b03      	ldr	r3, [sp, #12]
   d968e:	9305      	str	r3, [sp, #20]
   d9690:	a904      	add	r1, sp, #16
   d9692:	a806      	add	r0, sp, #24
   d9694:	f7ff fea6 	bl	d93e4 <_ZNSt14__shared_countILN9__gnu_cxx12_Lock_policyE0EEC1ERKS2_>
    bool isDone() const {
        return p_->isDone();
    }

    Future<ResultT, ContextT> future() const {
        return Future<ResultT, ContextT>(p_);
   d9698:	a905      	add	r1, sp, #20
   d969a:	4630      	mov	r0, r6
   d969c:	f7ff fe91 	bl	d93c2 <_ZN8particle6FutureIbNS_6detail13FutureContextEEC1ESt10shared_ptrINS1_10FutureImplIbS2_EEE>
      __shared_ptr& operator=(const __shared_ptr&) noexcept = default;
      ~__shared_ptr() = default;
   d96a0:	a806      	add	r0, sp, #24
   d96a2:	f7fc fa25 	bl	d5af0 <_ZNSt14__shared_countILN9__gnu_cxx12_Lock_policyE0EED1Ev>
   d96a6:	a804      	add	r0, sp, #16
   d96a8:	f7fc fa22 	bl	d5af0 <_ZNSt14__shared_countILN9__gnu_cxx12_Lock_policyE0EED1Ev>

    return p.future();
#else
    return Future<bool>(Error::NOT_SUPPORTED);
#endif
}
   d96ac:	4630      	mov	r0, r6
   d96ae:	b00b      	add	sp, #44	; 0x2c
   d96b0:	e8bd 8ff0 	ldmia.w	sp!, {r4, r5, r6, r7, r8, r9, sl, fp, pc}
   d96b4:	000de05c 	.word	0x000de05c
   d96b8:	000d9825 	.word	0x000d9825

000d96bc <_ZNSt14_Function_base13_Base_managerISt5_BindIFSt8functionIFvRKN8particle5ErrorEEES4_EEE10_M_managerERSt9_Any_dataRKSC_St18_Manager_operation>:
      public:
	static bool
	_M_manager(_Any_data& __dest, const _Any_data& __source,
		   _Manager_operation __op)
	{
	  switch (__op)
   d96bc:	2a02      	cmp	r2, #2
	  delete __victim._M_access<_Functor*>();
	}

      public:
	static bool
	_M_manager(_Any_data& __dest, const _Any_data& __source,
   d96be:	b5f8      	push	{r3, r4, r5, r6, r7, lr}
   d96c0:	4604      	mov	r4, r0
		   _Manager_operation __op)
	{
	  switch (__op)
   d96c2:	d006      	beq.n	d96d2 <_ZNSt14_Function_base13_Base_managerISt5_BindIFSt8functionIFvRKN8particle5ErrorEEES4_EEE10_M_managerERSt9_Any_dataRKSC_St18_Manager_operation+0x16>
   d96c4:	2a03      	cmp	r2, #3
   d96c6:	d017      	beq.n	d96f8 <_ZNSt14_Function_base13_Base_managerISt5_BindIFSt8functionIFvRKN8particle5ErrorEEES4_EEE10_M_managerERSt9_Any_dataRKSC_St18_Manager_operation+0x3c>
   d96c8:	2a01      	cmp	r2, #1
   d96ca:	d120      	bne.n	d970e <_ZNSt14_Function_base13_Base_managerISt5_BindIFSt8functionIFvRKN8particle5ErrorEEES4_EEE10_M_managerERSt9_Any_dataRKSC_St18_Manager_operation+0x52>
	static _Functor*
	_M_get_pointer(const _Any_data& __source)
	{
	  const _Functor* __ptr =
	    __stored_locally? std::__addressof(__source._M_access<_Functor>())
	    /* have stored a pointer */ : __source._M_access<_Functor*>();
   d96cc:	680b      	ldr	r3, [r1, #0]
	    case __get_type_info:
	      __dest._M_access<const type_info*>() = &typeid(_Functor);
	      break;
#endif
	    case __get_functor_ptr:
	      __dest._M_access<_Functor*>() = _M_get_pointer(__source);
   d96ce:	6003      	str	r3, [r0, #0]
	      break;
   d96d0:	e01d      	b.n	d970e <_ZNSt14_Function_base13_Base_managerISt5_BindIFSt8functionIFvRKN8particle5ErrorEEES4_EEE10_M_managerERSt9_Any_dataRKSC_St18_Manager_operation+0x52>
	// Clone a function object that is not location-invariant or
	// that cannot fit into an _Any_data structure.
	static void
	_M_clone(_Any_data& __dest, const _Any_data& __source, false_type)
	{
	  __dest._M_access<_Functor*>() =
   d96d2:	2018      	movs	r0, #24
   d96d4:	680e      	ldr	r6, [r1, #0]
   d96d6:	f7fa fcde 	bl	d4096 <_Znwj>
   d96da:	4605      	mov	r5, r0
   d96dc:	b150      	cbz	r0, d96f4 <_ZNSt14_Function_base13_Base_managerISt5_BindIFSt8functionIFvRKN8particle5ErrorEEES4_EEE10_M_managerERSt9_Any_dataRKSC_St18_Manager_operation+0x38>
      template<typename... _Args>
	explicit _Bind(_Functor&& __f, _Args&&... __args)
	: _M_f(std::move(__f)), _M_bound_args(std::forward<_Args>(__args)...)
	{ }

      _Bind(const _Bind&) = default;
   d96de:	4631      	mov	r1, r6
   d96e0:	f7ff fed4 	bl	d948c <_ZNSt8functionIFvRKN8particle5ErrorEEEC1ERKS5_>
inline particle::Error::Error(const char* msg) :
        Error(UNKNOWN, msg) {
}

inline particle::Error::Error(const Error& error) :
        Error(error.type_, error.msg_) {
   d96e4:	6930      	ldr	r0, [r6, #16]
   d96e6:	f9b6 7014 	ldrsh.w	r7, [r6, #20]
        type_(type) {
}

inline particle::Error::Error(Type type, const char* msg) :
        msg_(msg ? (const char*)strdup(msg) : nullptr),
        type_(type) {
   d96ea:	b108      	cbz	r0, d96f0 <_ZNSt14_Function_base13_Base_managerISt5_BindIFSt8functionIFvRKN8particle5ErrorEEES4_EEE10_M_managerERSt9_Any_dataRKSC_St18_Manager_operation+0x34>
   d96ec:	f002 fbea 	bl	dbec4 <strdup>
   d96f0:	6128      	str	r0, [r5, #16]
   d96f2:	82af      	strh	r7, [r5, #20]
	// Clone a function object that is not location-invariant or
	// that cannot fit into an _Any_data structure.
	static void
	_M_clone(_Any_data& __dest, const _Any_data& __source, false_type)
	{
	  __dest._M_access<_Functor*>() =
   d96f4:	6025      	str	r5, [r4, #0]
   d96f6:	e00a      	b.n	d970e <_ZNSt14_Function_base13_Base_managerISt5_BindIFSt8functionIFvRKN8particle5ErrorEEES4_EEE10_M_managerERSt9_Any_dataRKSC_St18_Manager_operation+0x52>

	// Destroying an object located on the heap.
	static void
	_M_destroy(_Any_data& __victim, false_type)
	{
	  delete __victim._M_access<_Functor*>();
   d96f8:	6804      	ldr	r4, [r0, #0]
   d96fa:	b144      	cbz	r4, d970e <_ZNSt14_Function_base13_Base_managerISt5_BindIFSt8functionIFvRKN8particle5ErrorEEES4_EEE10_M_managerERSt9_Any_dataRKSC_St18_Manager_operation+0x52>
        Error() {
    swap(*this, error);
}

inline particle::Error::~Error() {
    free((void*)msg_);
   d96fc:	6920      	ldr	r0, [r4, #16]
   d96fe:	f7ff fdbf 	bl	d9280 <free>
   *  @ingroup functors
   *
   *  Polymorphic function wrapper.
   */
  template<typename _Res, typename... _ArgTypes>
    class function<_Res(_ArgTypes...)>
   d9702:	4620      	mov	r0, r4
   d9704:	f7ff fe08 	bl	d9318 <_ZNSt14_Function_baseD1Ev>

	// Destroying an object located on the heap.
	static void
	_M_destroy(_Any_data& __victim, false_type)
	{
	  delete __victim._M_access<_Functor*>();
   d9708:	4620      	mov	r0, r4
   d970a:	f7fa fcc8 	bl	d409e <_ZdlPv>
	    case __destroy_functor:
	      _M_destroy(__dest, _Local_storage());
	      break;
	    }
	  return false;
	}
   d970e:	2000      	movs	r0, #0
   d9710:	bdf8      	pop	{r3, r4, r5, r6, r7, pc}

000d9712 <_ZNSt8functionIFvRKbEEC1ERKS3_>:
      _Invoker_type _M_invoker;
  };

  // Out-of-line member definitions.
  template<typename _Res, typename... _ArgTypes>
    function<_Res(_ArgTypes...)>::
   d9712:	b538      	push	{r3, r4, r5, lr}
	{
	  _Base::_M_init_functor(__functor, std::__addressof(__f.get()));
	}
      };

    _Function_base() : _M_manager(nullptr) { }
   d9714:	2300      	movs	r3, #0
   d9716:	6083      	str	r3, [r0, #8]
   d9718:	688b      	ldr	r3, [r1, #8]
      _Invoker_type _M_invoker;
  };

  // Out-of-line member definitions.
  template<typename _Res, typename... _ArgTypes>
    function<_Res(_ArgTypes...)>::
   d971a:	4604      	mov	r4, r0
   d971c:	460d      	mov	r5, r1
    function(const function& __x)
    : _Function_base()
    {
      if (static_cast<bool>(__x))
   d971e:	b12b      	cbz	r3, d972c <_ZNSt8functionIFvRKbEEC1ERKS3_+0x1a>
	{
	  __x._M_manager(_M_functor, __x._M_functor, __clone_functor);
   d9720:	2202      	movs	r2, #2
   d9722:	4798      	blx	r3
	  _M_invoker = __x._M_invoker;
   d9724:	68eb      	ldr	r3, [r5, #12]
   d9726:	60e3      	str	r3, [r4, #12]
	  _M_manager = __x._M_manager;
   d9728:	68ab      	ldr	r3, [r5, #8]
   d972a:	60a3      	str	r3, [r4, #8]
	}
    }
   d972c:	4620      	mov	r0, r4
   d972e:	bd38      	pop	{r3, r4, r5, pc}

000d9730 <_ZNSt14_Function_base13_Base_managerISt5_BindIFSt8functionIFvRKbEEbEEE10_M_managerERSt9_Any_dataRKSA_St18_Manager_operation>:
      public:
	static bool
	_M_manager(_Any_data& __dest, const _Any_data& __source,
		   _Manager_operation __op)
	{
	  switch (__op)
   d9730:	2a02      	cmp	r2, #2
	  delete __victim._M_access<_Functor*>();
	}

      public:
	static bool
	_M_manager(_Any_data& __dest, const _Any_data& __source,
   d9732:	b570      	push	{r4, r5, r6, lr}
   d9734:	4604      	mov	r4, r0
		   _Manager_operation __op)
	{
	  switch (__op)
   d9736:	d006      	beq.n	d9746 <_ZNSt14_Function_base13_Base_managerISt5_BindIFSt8functionIFvRKbEEbEEE10_M_managerERSt9_Any_dataRKSA_St18_Manager_operation+0x16>
   d9738:	2a03      	cmp	r2, #3
   d973a:	d011      	beq.n	d9760 <_ZNSt14_Function_base13_Base_managerISt5_BindIFSt8functionIFvRKbEEbEEE10_M_managerERSt9_Any_dataRKSA_St18_Manager_operation+0x30>
   d973c:	2a01      	cmp	r2, #1
   d973e:	d117      	bne.n	d9770 <_ZNSt14_Function_base13_Base_managerISt5_BindIFSt8functionIFvRKbEEbEEE10_M_managerERSt9_Any_dataRKSA_St18_Manager_operation+0x40>
	static _Functor*
	_M_get_pointer(const _Any_data& __source)
	{
	  const _Functor* __ptr =
	    __stored_locally? std::__addressof(__source._M_access<_Functor>())
	    /* have stored a pointer */ : __source._M_access<_Functor*>();
   d9740:	680b      	ldr	r3, [r1, #0]
	    case __get_type_info:
	      __dest._M_access<const type_info*>() = &typeid(_Functor);
	      break;
#endif
	    case __get_functor_ptr:
	      __dest._M_access<_Functor*>() = _M_get_pointer(__source);
   d9742:	6003      	str	r3, [r0, #0]
	      break;
   d9744:	e014      	b.n	d9770 <_ZNSt14_Function_base13_Base_managerISt5_BindIFSt8functionIFvRKbEEbEEE10_M_managerERSt9_Any_dataRKSA_St18_Manager_operation+0x40>
	// Clone a function object that is not location-invariant or
	// that cannot fit into an _Any_data structure.
	static void
	_M_clone(_Any_data& __dest, const _Any_data& __source, false_type)
	{
	  __dest._M_access<_Functor*>() =
   d9746:	2014      	movs	r0, #20
   d9748:	680e      	ldr	r6, [r1, #0]
   d974a:	f7fa fca4 	bl	d4096 <_Znwj>
   d974e:	4605      	mov	r5, r0
   d9750:	b120      	cbz	r0, d975c <_ZNSt14_Function_base13_Base_managerISt5_BindIFSt8functionIFvRKbEEbEEE10_M_managerERSt9_Any_dataRKSA_St18_Manager_operation+0x2c>
      template<typename... _Args>
	explicit _Bind(_Functor&& __f, _Args&&... __args)
	: _M_f(std::move(__f)), _M_bound_args(std::forward<_Args>(__args)...)
	{ }

      _Bind(const _Bind&) = default;
   d9752:	4631      	mov	r1, r6
   d9754:	f7ff ffdd 	bl	d9712 <_ZNSt8functionIFvRKbEEC1ERKS3_>
   d9758:	7c33      	ldrb	r3, [r6, #16]
   d975a:	742b      	strb	r3, [r5, #16]
	// Clone a function object that is not location-invariant or
	// that cannot fit into an _Any_data structure.
	static void
	_M_clone(_Any_data& __dest, const _Any_data& __source, false_type)
	{
	  __dest._M_access<_Functor*>() =
   d975c:	6025      	str	r5, [r4, #0]
   d975e:	e007      	b.n	d9770 <_ZNSt14_Function_base13_Base_managerISt5_BindIFSt8functionIFvRKbEEbEEE10_M_managerERSt9_Any_dataRKSA_St18_Manager_operation+0x40>

	// Destroying an object located on the heap.
	static void
	_M_destroy(_Any_data& __victim, false_type)
	{
	  delete __victim._M_access<_Functor*>();
   d9760:	6804      	ldr	r4, [r0, #0]
   d9762:	b12c      	cbz	r4, d9770 <_ZNSt14_Function_base13_Base_managerISt5_BindIFSt8functionIFvRKbEEbEEE10_M_managerERSt9_Any_dataRKSA_St18_Manager_operation+0x40>
   *  @ingroup functors
   *
   *  Polymorphic function wrapper.
   */
  template<typename _Res, typename... _ArgTypes>
    class function<_Res(_ArgTypes...)>
   d9764:	4620      	mov	r0, r4
   d9766:	f7ff fdd7 	bl	d9318 <_ZNSt14_Function_baseD1Ev>

	// Destroying an object located on the heap.
	static void
	_M_destroy(_Any_data& __victim, false_type)
	{
	  delete __victim._M_access<_Functor*>();
   d976a:	4620      	mov	r0, r4
   d976c:	f7fa fc97 	bl	d409e <_ZdlPv>
	    case __destroy_functor:
	      _M_destroy(__dest, _Local_storage());
	      break;
	    }
	  return false;
	}
   d9770:	2000      	movs	r0, #0
   d9772:	bd70      	pop	{r4, r5, r6, pc}

000d9774 <_ZN8particle6detail14FutureImplBaseIbNS0_13FutureContextEE14invokeCallbackIFvRKbEIRbEEEvRSt6atomicIPSt8functionIT_EEDpOT0_>:
        delete callbackPtr; // Delete old callback
    }

    // Takes a callback from its atomic wrapper and invokes it
    template<typename FunctionT, typename... ArgsT>
    static void invokeCallback(std::atomic<std::function<FunctionT>*>& wrapper, ArgsT&&... args) {
   d9774:	b5f0      	push	{r4, r5, r6, r7, lr}

      _GLIBCXX_ALWAYS_INLINE __pointer_type
      exchange(__pointer_type __p,
	       memory_order __m = memory_order_seq_cst) noexcept
      {
	return __atomic_exchange_n(&_M_p, __p, __m);
   d9776:	2300      	movs	r3, #0
   d9778:	b087      	sub	sp, #28
   d977a:	460c      	mov	r4, r1
   d977c:	f3bf 8f5f 	dmb	sy
   d9780:	e850 6f00 	ldrex	r6, [r0]
   d9784:	e840 3200 	strex	r2, r3, [r0]
   d9788:	2a00      	cmp	r2, #0
   d978a:	d1f9      	bne.n	d9780 <_ZN8particle6detail14FutureImplBaseIbNS0_13FutureContextEE14invokeCallbackIFvRKbEIRbEEEvRSt6atomicIPSt8functionIT_EEDpOT0_+0xc>
   d978c:	f3bf 8f5f 	dmb	sy
        std::function<FunctionT>* callbackPtr = wrapper.exchange(nullptr, std::memory_order_acq_rel);
        if (callbackPtr) {
   d9790:	2e00      	cmp	r6, #0
   d9792:	d03e      	beq.n	d9812 <_ZN8particle6detail14FutureImplBaseIbNS0_13FutureContextEE14invokeCallbackIFvRKbEIRbEEEvRSt6atomicIPSt8functionIT_EEDpOT0_+0x9e>
        return (application_thread_invoke(callback, data, nullptr) == 0);
    }

    // Returns true if current thread is the application thread
    static bool isApplicationThreadCurrent() {
        return (application_thread_current(nullptr) != 0);
   d9794:	4618      	mov	r0, r3
   d9796:	f7ff fcdb 	bl	d9150 <application_thread_current>
    }

    // Invokes std::function in the application context
    template<typename FunctionT, typename... ArgsT>
    static void invokeCallback(const std::function<FunctionT>& callback, ArgsT&&... args) {
        if (ContextT::isApplicationThreadCurrent()) {
   d979a:	4607      	mov	r7, r0
   d979c:	b120      	cbz	r0, d97a8 <_ZN8particle6detail14FutureImplBaseIbNS0_13FutureContextEE14invokeCallbackIFvRKbEIRbEEEvRSt6atomicIPSt8functionIT_EEDpOT0_+0x34>
            callback(std::forward<ArgsT>(args)...); // Synchronous call
   d979e:	4621      	mov	r1, r4
   d97a0:	4630      	mov	r0, r6
   d97a2:	f7ff fe63 	bl	d946c <_ZNKSt8functionIFvRKbEEclES1_>
   d97a6:	e02e      	b.n	d9806 <_ZN8particle6detail14FutureImplBaseIbNS0_13FutureContextEE14invokeCallbackIFvRKbEIRbEEEvRSt6atomicIPSt8functionIT_EEDpOT0_+0x92>
	}

     public:
      template<typename... _Args>
	explicit _Bind(const _Functor& __f, _Args&&... __args)
	: _M_f(__f), _M_bound_args(std::forward<_Args>(__args)...)
   d97a8:	4631      	mov	r1, r6
   d97aa:	a801      	add	r0, sp, #4
   d97ac:	f7ff ffb1 	bl	d9712 <_ZNSt8functionIFvRKbEEC1ERKS3_>
      constexpr _Head_base(const _Head_base&) = default;
      constexpr _Head_base(_Head_base&&) = default;

      template<typename _UHead>
        constexpr _Head_base(_UHead&& __h)
	: _M_head_impl(std::forward<_UHead>(__h)) { }
   d97b0:	7823      	ldrb	r3, [r4, #0]
   d97b2:	f88d 3014 	strb.w	r3, [sp, #20]
        } else {
            // Bind all arguments and wrap resulting function into a pointer
            auto callbackPtr = new std::function<void()>(std::bind(callback, std::forward<ArgsT>(args)...));
   d97b6:	2010      	movs	r0, #16
   d97b8:	f7fa fc6d 	bl	d4096 <_Znwj>
   d97bc:	4605      	mov	r5, r0
   d97be:	b1d0      	cbz	r0, d97f6 <_ZN8particle6detail14FutureImplBaseIbNS0_13FutureContextEE14invokeCallbackIFvRKbEIRbEEEvRSt6atomicIPSt8functionIT_EEDpOT0_+0x82>
	{
	  _Base::_M_init_functor(__functor, std::__addressof(__f.get()));
	}
      };

    _Function_base() : _M_manager(nullptr) { }
   d97c0:	6087      	str	r7, [r0, #8]
	_M_init_functor(_Any_data& __functor, _Functor&& __f, true_type)
	{ new (__functor._M_access()) _Functor(std::move(__f)); }

	static void
	_M_init_functor(_Any_data& __functor, _Functor&& __f, false_type)
	{ __functor._M_access<_Functor*>() = new _Functor(std::move(__f)); }
   d97c2:	2014      	movs	r0, #20
   d97c4:	f7fa fc67 	bl	d4096 <_Znwj>
   d97c8:	4604      	mov	r4, r0
   d97ca:	b178      	cbz	r0, d97ec <_ZN8particle6detail14FutureImplBaseIbNS0_13FutureContextEE14invokeCallbackIFvRKbEIRbEEEvRSt6atomicIPSt8functionIT_EEDpOT0_+0x78>
	{
	  _Base::_M_init_functor(__functor, std::__addressof(__f.get()));
	}
      };

    _Function_base() : _M_manager(nullptr) { }
   d97cc:	6087      	str	r7, [r0, #8]
       *  Swap the targets of @c this function object and @a __f. This
       *  function will not throw an %exception.
       */
      void swap(function& __x)
      {
	std::swap(_M_functor, __x._M_functor);
   d97ce:	4601      	mov	r1, r0
   d97d0:	a801      	add	r0, sp, #4
   d97d2:	f7ff fe2b 	bl	d942c <_ZSt4swapISt9_Any_dataEvRT_S2_>
#endif
    {
      // concept requirements
      __glibcxx_function_requires(_SGIAssignableConcept<_Tp>)

      _Tp __tmp = _GLIBCXX_MOVE(__a);
   d97d6:	9b03      	ldr	r3, [sp, #12]
      __a = _GLIBCXX_MOVE(__b);
   d97d8:	68a2      	ldr	r2, [r4, #8]
      __b = _GLIBCXX_MOVE(__tmp);
   d97da:	60a3      	str	r3, [r4, #8]
#endif
    {
      // concept requirements
      __glibcxx_function_requires(_SGIAssignableConcept<_Tp>)

      _Tp __tmp = _GLIBCXX_MOVE(__a);
   d97dc:	9b04      	ldr	r3, [sp, #16]
      __a = _GLIBCXX_MOVE(__b);
   d97de:	9203      	str	r2, [sp, #12]
   d97e0:	68e2      	ldr	r2, [r4, #12]
      __b = _GLIBCXX_MOVE(__tmp);
   d97e2:	60e3      	str	r3, [r4, #12]
   d97e4:	f89d 3014 	ldrb.w	r3, [sp, #20]
    {
      // concept requirements
      __glibcxx_function_requires(_SGIAssignableConcept<_Tp>)

      _Tp __tmp = _GLIBCXX_MOVE(__a);
      __a = _GLIBCXX_MOVE(__b);
   d97e8:	9204      	str	r2, [sp, #16]
   d97ea:	7423      	strb	r3, [r4, #16]
	typedef _Function_handler<_Signature_type, _Functor> _My_handler;

	if (_My_handler::_M_not_empty_function(__f))
	  {
	    _My_handler::_M_init_functor(_M_functor, std::move(__f));
	    _M_invoker = &_My_handler::_M_invoke;
   d97ec:	4b0a      	ldr	r3, [pc, #40]	; (d9818 <_ZN8particle6detail14FutureImplBaseIbNS0_13FutureContextEE14invokeCallbackIFvRKbEIRbEEEvRSt6atomicIPSt8functionIT_EEDpOT0_+0xa4>)
   d97ee:	60eb      	str	r3, [r5, #12]
	    _M_manager = &_My_handler::_M_manager;
   d97f0:	4b0a      	ldr	r3, [pc, #40]	; (d981c <_ZN8particle6detail14FutureImplBaseIbNS0_13FutureContextEE14invokeCallbackIFvRKbEIRbEEEvRSt6atomicIPSt8functionIT_EEDpOT0_+0xa8>)
	_M_init_functor(_Any_data& __functor, _Functor&& __f, true_type)
	{ new (__functor._M_access()) _Functor(std::move(__f)); }

	static void
	_M_init_functor(_Any_data& __functor, _Functor&& __f, false_type)
	{ __functor._M_access<_Functor*>() = new _Functor(std::move(__f)); }
   d97f2:	602c      	str	r4, [r5, #0]

	if (_My_handler::_M_not_empty_function(__f))
	  {
	    _My_handler::_M_init_functor(_M_functor, std::move(__f));
	    _M_invoker = &_My_handler::_M_invoke;
	    _M_manager = &_My_handler::_M_manager;
   d97f4:	60ab      	str	r3, [r5, #8]
   *  @ingroup functors
   *
   *  Polymorphic function wrapper.
   */
  template<typename _Res, typename... _ArgTypes>
    class function<_Res(_ArgTypes...)>
   d97f6:	a801      	add	r0, sp, #4
   d97f8:	f7ff fd8e 	bl	d9318 <_ZNSt14_Function_baseD1Ev>
        spark_process();
    }

    // Asynchronously invokes a callback in the application context
    static bool invokeApplicationCallback(void (*callback)(void* data), void* data) {
        return (application_thread_invoke(callback, data, nullptr) == 0);
   d97fc:	2200      	movs	r2, #0
   d97fe:	4629      	mov	r1, r5
   d9800:	4807      	ldr	r0, [pc, #28]	; (d9820 <_ZN8particle6detail14FutureImplBaseIbNS0_13FutureContextEE14invokeCallbackIFvRKbEIRbEEEvRSt6atomicIPSt8functionIT_EEDpOT0_+0xac>)
   d9802:	f7ff fcad 	bl	d9160 <application_thread_invoke>
   d9806:	4630      	mov	r0, r6
   d9808:	f7ff fd86 	bl	d9318 <_ZNSt14_Function_baseD1Ev>
    template<typename FunctionT, typename... ArgsT>
    static void invokeCallback(std::atomic<std::function<FunctionT>*>& wrapper, ArgsT&&... args) {
        std::function<FunctionT>* callbackPtr = wrapper.exchange(nullptr, std::memory_order_acq_rel);
        if (callbackPtr) {
            invokeCallback(*callbackPtr, std::forward<ArgsT>(args)...);
            delete callbackPtr;
   d980c:	4630      	mov	r0, r6
   d980e:	f7fa fc46 	bl	d409e <_ZdlPv>
        }
    }
   d9812:	b007      	add	sp, #28
   d9814:	bdf0      	pop	{r4, r5, r6, r7, pc}
   d9816:	bf00      	nop
   d9818:	000d947f 	.word	0x000d947f
   d981c:	000d9731 	.word	0x000d9731
   d9820:	000d92d7 	.word	0x000d92d7

000d9824 <_ZN12_GLOBAL__N_125publishCompletionCallbackEiPKvPvS2_>:
namespace {

using namespace particle;

#ifndef SPARK_NO_CLOUD
void publishCompletionCallback(int error, const void* data, void* callbackData, void* reserved) {
   d9824:	b530      	push	{r4, r5, lr}
   d9826:	b085      	sub	sp, #20
   d9828:	4604      	mov	r4, r0
   d982a:	460d      	mov	r5, r1
    auto p = Promise<bool>::fromDataPtr(callbackData);
   d982c:	4668      	mov	r0, sp
   d982e:	4611      	mov	r1, r2
   d9830:	f7ff fddf 	bl	d93f2 <_ZN8particle11PromiseBaseIbNS_6detail13FutureContextEE11fromDataPtrEPv>
    if (error != Error::NONE) {
   d9834:	b17c      	cbz	r4, d9856 <_ZN12_GLOBAL__N_125publishCompletionCallbackEiPKvPvS2_+0x32>
        p.setError(Error((Error::Type)error, (const char*)data));
   d9836:	b224      	sxth	r4, r4
        type_(type) {
}

inline particle::Error::Error(Type type, const char* msg) :
        msg_(msg ? (const char*)strdup(msg) : nullptr),
        type_(type) {
   d9838:	4628      	mov	r0, r5
   d983a:	b10d      	cbz	r5, d9840 <_ZN12_GLOBAL__N_125publishCompletionCallbackEiPKvPvS2_+0x1c>
   d983c:	f002 fb42 	bl	dbec4 <strdup>
   d9840:	9002      	str	r0, [sp, #8]
   d9842:	a902      	add	r1, sp, #8
   d9844:	4668      	mov	r0, sp
   d9846:	f8ad 400c 	strh.w	r4, [sp, #12]
   d984a:	f7ff fe2f 	bl	d94ac <_ZN8particle11PromiseBaseIbNS_6detail13FutureContextEE8setErrorENS_5ErrorE>
        Error() {
    swap(*this, error);
}

inline particle::Error::~Error() {
    free((void*)msg_);
   d984e:	9802      	ldr	r0, [sp, #8]
   d9850:	f7ff fd16 	bl	d9280 <free>
   d9854:	e01d      	b.n	d9892 <_ZN12_GLOBAL__N_125publishCompletionCallbackEiPKvPvS2_+0x6e>
   d9856:	9800      	ldr	r0, [sp, #0]
            onSuccess_(nullptr),
            onError_(nullptr) {
    }

    bool changeState(State state) {
        State s = State::RUNNING; // Expected state
   d9858:	f88d 4008 	strb.w	r4, [sp, #8]

      bool
      compare_exchange_strong(_Tp& __e, _Tp __i, memory_order __s, 
			      memory_order __f) noexcept
      {
	return __atomic_compare_exchange(&_M_i, &__e, &__i, false, __s, __f);
   d985c:	f04f 0201 	mov.w	r2, #1
   d9860:	e8d0 3f4f 	ldrexb	r3, [r0]
   d9864:	42a3      	cmp	r3, r4
   d9866:	d103      	bne.n	d9870 <_ZN12_GLOBAL__N_125publishCompletionCallbackEiPKvPvS2_+0x4c>
   d9868:	e8c0 2f41 	strexb	r1, r2, [r0]
   d986c:	2900      	cmp	r1, #0
   d986e:	d1f7      	bne.n	d9860 <_ZN12_GLOBAL__N_125publishCompletionCallbackEiPKvPvS2_+0x3c>
   d9870:	d002      	beq.n	d9878 <_ZN12_GLOBAL__N_125publishCompletionCallbackEiPKvPvS2_+0x54>
   d9872:	f88d 3008 	strb.w	r3, [sp, #8]
   d9876:	e00c      	b.n	d9892 <_ZN12_GLOBAL__N_125publishCompletionCallbackEiPKvPvS2_+0x6e>
        }
    }

    void setResult(ResultT result) {
        if (this->changeState(State::SUCCEEDED)) {
            new(&result_) ResultT(std::move(result));
   d9878:	f110 010c 	adds.w	r1, r0, #12
   d987c:	f04f 0301 	mov.w	r3, #1
   d9880:	bf18      	it	ne
   d9882:	7303      	strbne	r3, [r0, #12]
        memory_order __b = __m & __memory_order_mask;
	__glibcxx_assert(__b != memory_order_acquire);
	__glibcxx_assert(__b != memory_order_acq_rel);
	__glibcxx_assert(__b != memory_order_consume);

	__atomic_store_n(&_M_i, __i, __m);
   d9884:	f3bf 8f5f 	dmb	sy
            this->releaseDone();
            this->invokeCallback(this->onSuccess_, result_);
   d9888:	3004      	adds	r0, #4
   d988a:	f800 3c03 	strb.w	r3, [r0, #-3]
   d988e:	f7ff ff71 	bl	d9774 <_ZN8particle6detail14FutureImplBaseIbNS0_13FutureContextEE14invokeCallbackIFvRKbEIRbEEEvRSt6atomicIPSt8functionIT_EEDpOT0_>
   d9892:	a801      	add	r0, sp, #4
   d9894:	f7fc f92c 	bl	d5af0 <_ZNSt14__shared_countILN9__gnu_cxx12_Lock_policyE0EED1Ev>
    } else {
        p.setResult(true);
    }
}
   d9898:	b005      	add	sp, #20
   d989a:	bd30      	pop	{r4, r5, pc}

000d989c <_ZN7TwoWireD1Ev>:
private:
  HAL_I2C_Interface _i2c;

public:
  TwoWire(HAL_I2C_Interface i2c);
  virtual ~TwoWire() {};
   d989c:	4770      	bx	lr

000d989e <_ZN7TwoWire5writeEPKhj>:

// must be called in:
// slave tx event callback
// or after beginTransmission(address)
size_t TwoWire::write(const uint8_t *data, size_t quantity)
{
   d989e:	b5f8      	push	{r3, r4, r5, r6, r7, lr}
   d98a0:	4606      	mov	r6, r0
   d98a2:	4615      	mov	r5, r2
   d98a4:	460c      	mov	r4, r1
   d98a6:	188f      	adds	r7, r1, r2
  // in master/slave transmitter mode
  for(size_t i = 0; i < quantity; ++i)
   d98a8:	42bc      	cmp	r4, r7
   d98aa:	d006      	beq.n	d98ba <_ZN7TwoWire5writeEPKhj+0x1c>
  {
    write(data[i]);
   d98ac:	6833      	ldr	r3, [r6, #0]
   d98ae:	f814 1b01 	ldrb.w	r1, [r4], #1
   d98b2:	689b      	ldr	r3, [r3, #8]
   d98b4:	4630      	mov	r0, r6
   d98b6:	4798      	blx	r3
// slave tx event callback
// or after beginTransmission(address)
size_t TwoWire::write(const uint8_t *data, size_t quantity)
{
  // in master/slave transmitter mode
  for(size_t i = 0; i < quantity; ++i)
   d98b8:	e7f6      	b.n	d98a8 <_ZN7TwoWire5writeEPKhj+0xa>
  {
    write(data[i]);
  }

  return quantity;
}
   d98ba:	4628      	mov	r0, r5
   d98bc:	bdf8      	pop	{r3, r4, r5, r6, r7, pc}

000d98be <_ZN7TwoWire5writeEh>:
// must be called in:
// slave tx event callback
// or after beginTransmission(address)
size_t TwoWire::write(uint8_t data)
{
  return HAL_I2C_Write_Data(_i2c, data, NULL);
   d98be:	2200      	movs	r2, #0
   d98c0:	7c00      	ldrb	r0, [r0, #16]
   d98c2:	f7ff ba95 	b.w	d8df0 <HAL_I2C_Write_Data>

000d98c6 <_ZN7TwoWire9availableEv>:
// must be called in:
// slave rx event callback
// or after requestFrom(address, numBytes)
int TwoWire::available(void)
{
  return HAL_I2C_Available_Data(_i2c, NULL);
   d98c6:	2100      	movs	r1, #0
   d98c8:	7c00      	ldrb	r0, [r0, #16]
   d98ca:	f7ff ba99 	b.w	d8e00 <HAL_I2C_Available_Data>

000d98ce <_ZN7TwoWire4readEv>:
// must be called in:
// slave rx event callback
// or after requestFrom(address, numBytes)
int TwoWire::read(void)
{
  return HAL_I2C_Read_Data(_i2c, NULL);
   d98ce:	2100      	movs	r1, #0
   d98d0:	7c00      	ldrb	r0, [r0, #16]
   d98d2:	f7ff ba9d 	b.w	d8e10 <HAL_I2C_Read_Data>

000d98d6 <_ZN7TwoWire4peekEv>:
// must be called in:
// slave rx event callback
// or after requestFrom(address, numBytes)
int TwoWire::peek(void)
{
  return HAL_I2C_Peek_Data(_i2c, NULL);
   d98d6:	2100      	movs	r1, #0
   d98d8:	7c00      	ldrb	r0, [r0, #16]
   d98da:	f7ff baa1 	b.w	d8e20 <HAL_I2C_Peek_Data>

000d98de <_ZN7TwoWire5flushEv>:
}

void TwoWire::flush(void)
{
  HAL_I2C_Flush_Data(_i2c, NULL);
   d98de:	2100      	movs	r1, #0
   d98e0:	7c00      	ldrb	r0, [r0, #16]
   d98e2:	f7ff baa5 	b.w	d8e30 <HAL_I2C_Flush_Data>

000d98e6 <_ZN7TwoWireD0Ev>:
   d98e6:	b510      	push	{r4, lr}
   d98e8:	4604      	mov	r4, r0
   d98ea:	f7fa fbd8 	bl	d409e <_ZdlPv>
   d98ee:	4620      	mov	r0, r4
   d98f0:	bd10      	pop	{r4, pc}
	...

000d98f4 <_ZN7TwoWireC1E17HAL_I2C_Interface>:
#include "i2c_hal.h"
#include "spark_wiring_thread.h"

// Constructors ////////////////////////////////////////////////////////////////

TwoWire::TwoWire(HAL_I2C_Interface i2c)
   d98f4:	b510      	push	{r4, lr}
   d98f6:	4604      	mov	r4, r0
    virtual int available() = 0;
    virtual int read() = 0;
    virtual int peek() = 0;
    virtual void flush() = 0;

    Stream() {_timeout=1000;}
   d98f8:	f44f 737a 	mov.w	r3, #1000	; 0x3e8
   d98fc:	4608      	mov	r0, r1
   d98fe:	60a3      	str	r3, [r4, #8]
  protected:
    void setWriteError(int err = 1) { write_error = err; }
    size_t printf_impl(bool newline, const char* format, ...);

  public:
    Print() : write_error(0) {}
   d9900:	2100      	movs	r1, #0
   d9902:	4b04      	ldr	r3, [pc, #16]	; (d9914 <_ZN7TwoWireC1E17HAL_I2C_Interface+0x20>)
{
  _i2c = i2c;
   d9904:	7420      	strb	r0, [r4, #16]
   d9906:	6061      	str	r1, [r4, #4]
#include "i2c_hal.h"
#include "spark_wiring_thread.h"

// Constructors ////////////////////////////////////////////////////////////////

TwoWire::TwoWire(HAL_I2C_Interface i2c)
   d9908:	6023      	str	r3, [r4, #0]
{
  _i2c = i2c;
  HAL_I2C_Init(_i2c, NULL);
   d990a:	f7ff faa1 	bl	d8e50 <HAL_I2C_Init>

}
   d990e:	4620      	mov	r0, r4
   d9910:	bd10      	pop	{r4, pc}
   d9912:	bf00      	nop
   d9914:	000de078 	.word	0x000de078

000d9918 <_ZN7TwoWire5beginEv>:
  HAL_I2C_Stretch_Clock(_i2c, stretch, NULL);
}

void TwoWire::begin(void)
{
	HAL_I2C_Begin(_i2c, I2C_MODE_MASTER, 0x00, NULL);
   d9918:	2300      	movs	r3, #0
   d991a:	461a      	mov	r2, r3
   d991c:	4619      	mov	r1, r3
   d991e:	7c00      	ldrb	r0, [r0, #16]
   d9920:	f7ff ba46 	b.w	d8db0 <HAL_I2C_Begin>

000d9924 <_ZN7TwoWire11requestFromEhhh>:
{
	HAL_I2C_End(_i2c, NULL);
}

uint8_t TwoWire::requestFrom(uint8_t address, uint8_t quantity, uint8_t sendStop)
{
   d9924:	b513      	push	{r0, r1, r4, lr}
  uint8_t result = HAL_I2C_Request_Data(_i2c, address, quantity, sendStop, NULL);
   d9926:	2400      	movs	r4, #0
   d9928:	7c00      	ldrb	r0, [r0, #16]
   d992a:	9400      	str	r4, [sp, #0]
   d992c:	f7ff fa48 	bl	d8dc0 <HAL_I2C_Request_Data>
  return result;
}
   d9930:	b2c0      	uxtb	r0, r0
   d9932:	b002      	add	sp, #8
   d9934:	bd10      	pop	{r4, pc}

000d9936 <_ZN7TwoWire11requestFromEii>:
  return requestFrom((uint8_t)address, (uint8_t)quantity, (uint8_t)true);
}

uint8_t TwoWire::requestFrom(int address, int quantity)
{
  return requestFrom((uint8_t)address, (uint8_t)quantity, (uint8_t)true);
   d9936:	2301      	movs	r3, #1
   d9938:	b2d2      	uxtb	r2, r2
   d993a:	b2c9      	uxtb	r1, r1
   d993c:	f7ff bff2 	b.w	d9924 <_ZN7TwoWire11requestFromEhhh>

000d9940 <_ZN7TwoWire17beginTransmissionEh>:
  return requestFrom((uint8_t)address, (uint8_t)quantity, (uint8_t)sendStop);
}

void TwoWire::beginTransmission(uint8_t address)
{
	HAL_I2C_Begin_Transmission(_i2c, address, NULL);
   d9940:	2200      	movs	r2, #0
   d9942:	7c00      	ldrb	r0, [r0, #16]
   d9944:	f7ff ba44 	b.w	d8dd0 <HAL_I2C_Begin_Transmission>

000d9948 <_ZN7TwoWire17beginTransmissionEi>:
}

void TwoWire::beginTransmission(int address)
{
  beginTransmission((uint8_t)address);
   d9948:	b2c9      	uxtb	r1, r1
   d994a:	f7ff bff9 	b.w	d9940 <_ZN7TwoWire17beginTransmissionEh>

000d994e <_ZN7TwoWire15endTransmissionEh>:
//	no call to endTransmission(true) is made. Some I2C
//	devices will behave oddly if they do not see a STOP.
//
uint8_t TwoWire::endTransmission(uint8_t sendStop)
{
	return HAL_I2C_End_Transmission(_i2c, sendStop, NULL);
   d994e:	2200      	movs	r2, #0
   d9950:	7c00      	ldrb	r0, [r0, #16]
   d9952:	f7ff ba45 	b.w	d8de0 <HAL_I2C_End_Transmission>

000d9956 <_ZN7TwoWire15endTransmissionEv>:
//	This provides backwards compatibility with the original
//	definition, and expected behaviour, of endTransmission
//
uint8_t TwoWire::endTransmission(void)
{
  return endTransmission(true);
   d9956:	2101      	movs	r1, #1
   d9958:	f7ff bff9 	b.w	d994e <_ZN7TwoWire15endTransmissionEh>

000d995c <_ZN7TwoWire9isEnabledEv>:
  HAL_I2C_Set_Callback_On_Request(_i2c, function, NULL);
}

bool TwoWire::isEnabled()
{
  return HAL_I2C_Is_Enabled(_i2c, NULL);
   d995c:	2100      	movs	r1, #0
   d995e:	7c00      	ldrb	r0, [r0, #16]
   d9960:	f7ff ba6e 	b.w	d8e40 <HAL_I2C_Is_Enabled>

000d9964 <_Z26call_raw_interrupt_handlerPv>:
}

void call_raw_interrupt_handler(void* data)
{
    raw_interrupt_handler_t handler = raw_interrupt_handler_t(data);
    handler();
   d9964:	4700      	bx	r0
	...

000d9968 <_Z15attachInterrupttPFvvE13InterruptModeah>:
    }
    return handler!=NULL;
}

bool attachInterrupt(uint16_t pin, raw_interrupt_handler_t handler, InterruptMode mode, int8_t priority, uint8_t subpriority)
{
   d9968:	b5f0      	push	{r4, r5, r6, r7, lr}
   d996a:	b085      	sub	sp, #20
   d996c:	461c      	mov	r4, r3
   d996e:	4605      	mov	r5, r0
   d9970:	460e      	mov	r6, r1
   d9972:	4617      	mov	r7, r2
#if Wiring_Cellular == 1
  /* safety check that prevents users from attaching an interrupt to D7
   * which is shared with BATT_INT_PC13 for power management */
  if (pin == D7) return false;
#endif
    HAL_Interrupts_Detach(pin);
   d9974:	f7ff f9fc 	bl	d8d70 <HAL_Interrupts_Detach>
    HAL_InterruptExtraConfiguration extra = {0};
   d9978:	2000      	movs	r0, #0
 *******************************************************************************/

HAL_InterruptExtraConfiguration* configure_interrupt(HAL_InterruptExtraConfiguration& extra, int8_t priority, uint8_t subpriority)
{
  extra.version = HAL_INTERRUPT_EXTRA_CONFIGURATION_VERSION_1;
  if (priority >= 0) {
   d997a:	4284      	cmp	r4, r0
 * Return         : true if function handler was allocated, false otherwise.
 *******************************************************************************/

HAL_InterruptExtraConfiguration* configure_interrupt(HAL_InterruptExtraConfiguration& extra, int8_t priority, uint8_t subpriority)
{
  extra.version = HAL_INTERRUPT_EXTRA_CONFIGURATION_VERSION_1;
   d997c:	f04f 0304 	mov.w	r3, #4
  /* safety check that prevents users from attaching an interrupt to D7
   * which is shared with BATT_INT_PC13 for power management */
  if (pin == D7) return false;
#endif
    HAL_Interrupts_Detach(pin);
    HAL_InterruptExtraConfiguration extra = {0};
   d9980:	9003      	str	r0, [sp, #12]
 * Return         : true if function handler was allocated, false otherwise.
 *******************************************************************************/

HAL_InterruptExtraConfiguration* configure_interrupt(HAL_InterruptExtraConfiguration& extra, int8_t priority, uint8_t subpriority)
{
  extra.version = HAL_INTERRUPT_EXTRA_CONFIGURATION_VERSION_1;
   d9982:	f88d 300c 	strb.w	r3, [sp, #12]
  if (priority >= 0) {
    extra.IRQChannelPreemptionPriority = (uint8_t)priority;
    extra.IRQChannelSubPriority = subpriority;
   d9986:	bfa5      	ittet	ge
   d9988:	f89d 3028 	ldrbge.w	r3, [sp, #40]	; 0x28
   d998c:	f88d 300e 	strbge.w	r3, [sp, #14]
    return &extra;
  }
  return nullptr;
   d9990:	4603      	movlt	r3, r0
{
  extra.version = HAL_INTERRUPT_EXTRA_CONFIGURATION_VERSION_1;
  if (priority >= 0) {
    extra.IRQChannelPreemptionPriority = (uint8_t)priority;
    extra.IRQChannelSubPriority = subpriority;
    return &extra;
   d9992:	ab03      	addge	r3, sp, #12
   * which is shared with BATT_INT_PC13 for power management */
  if (pin == D7) return false;
#endif
    HAL_Interrupts_Detach(pin);
    HAL_InterruptExtraConfiguration extra = {0};
    HAL_Interrupts_Attach(pin, call_raw_interrupt_handler, (void*)handler, mode, configure_interrupt(extra, priority, subpriority));
   d9994:	9300      	str	r3, [sp, #0]
   d9996:	4628      	mov	r0, r5
   d9998:	463b      	mov	r3, r7
   d999a:	4632      	mov	r2, r6
   d999c:	4904      	ldr	r1, [pc, #16]	; (d99b0 <_Z15attachInterrupttPFvvE13InterruptModeah+0x48>)

HAL_InterruptExtraConfiguration* configure_interrupt(HAL_InterruptExtraConfiguration& extra, int8_t priority, uint8_t subpriority)
{
  extra.version = HAL_INTERRUPT_EXTRA_CONFIGURATION_VERSION_1;
  if (priority >= 0) {
    extra.IRQChannelPreemptionPriority = (uint8_t)priority;
   d999e:	bfa8      	it	ge
   d99a0:	f88d 400d 	strbge.w	r4, [sp, #13]
   * which is shared with BATT_INT_PC13 for power management */
  if (pin == D7) return false;
#endif
    HAL_Interrupts_Detach(pin);
    HAL_InterruptExtraConfiguration extra = {0};
    HAL_Interrupts_Attach(pin, call_raw_interrupt_handler, (void*)handler, mode, configure_interrupt(extra, priority, subpriority));
   d99a4:	f7ff f9dc 	bl	d8d60 <HAL_Interrupts_Attach>
    return true;
}
   d99a8:	2001      	movs	r0, #1
   d99aa:	b005      	add	sp, #20
   d99ac:	bdf0      	pop	{r4, r5, r6, r7, pc}
   d99ae:	bf00      	nop
   d99b0:	000d9965 	.word	0x000d9965

000d99b4 <_Z15detachInterruptt>:
 * Input          : pin number to which the interrupt was attached
 * Output         : None.
 * Return         : None.
 *******************************************************************************/
void detachInterrupt(uint16_t pin)
{
   d99b4:	b570      	push	{r4, r5, r6, lr}
   d99b6:	4606      	mov	r6, r0
#if Wiring_Cellular == 1
    /* safety check that prevents users from detaching an interrupt from
     * BATT_INT_PC13 for power management which is shared with D7 */
    if (pin == D7) return;
#endif
    HAL_Interrupts_Detach(pin);
   d99b8:	f7ff f9da 	bl	d8d70 <HAL_Interrupts_Detach>
    delete handlers[pin];
   d99bc:	4b07      	ldr	r3, [pc, #28]	; (d99dc <_Z15detachInterruptt+0x28>)
   d99be:	f853 5026 	ldr.w	r5, [r3, r6, lsl #2]
   d99c2:	461c      	mov	r4, r3
   d99c4:	b12d      	cbz	r5, d99d2 <_Z15detachInterruptt+0x1e>
   d99c6:	4628      	mov	r0, r5
   d99c8:	f7ff fca6 	bl	d9318 <_ZNSt14_Function_baseD1Ev>
   d99cc:	4628      	mov	r0, r5
   d99ce:	f7fa fb66 	bl	d409e <_ZdlPv>
    handlers[pin] = NULL;
   d99d2:	2300      	movs	r3, #0
   d99d4:	f844 3026 	str.w	r3, [r4, r6, lsl #2]
   d99d8:	bd70      	pop	{r4, r5, r6, pc}
   d99da:	bf00      	nop
   d99dc:	2003e384 	.word	0x2003e384

000d99e0 <_ZNK9IPAddress7printToER5Print>:
#endif
	return address.ipv4==that.address.ipv4;
}

size_t IPAddress::printTo(Print& p) const
{
   d99e0:	b5f0      	push	{r4, r5, r6, r7, lr}
#if HAL_IPv6
	if (address.v==6) {
   d99e2:	7d03      	ldrb	r3, [r0, #20]
   d99e4:	2b06      	cmp	r3, #6
#endif
	return address.ipv4==that.address.ipv4;
}

size_t IPAddress::printTo(Print& p) const
{
   d99e6:	b08b      	sub	sp, #44	; 0x2c
   d99e8:	460e      	mov	r6, r1
   d99ea:	f100 0704 	add.w	r7, r0, #4
   d99ee:	f04f 0400 	mov.w	r4, #0
#if HAL_IPv6
	if (address.v==6) {
   d99f2:	d002      	beq.n	d99fa <_ZNK9IPAddress7printToER5Print+0x1a>
   d99f4:	f100 0508 	add.w	r5, r0, #8
   d99f8:	e018      	b.n	d9a2c <_ZNK9IPAddress7printToER5Print+0x4c>
		char buf[40];
		buf[0] = 0;
   d99fa:	ad0a      	add	r5, sp, #40	; 0x28
		inet_inet_ntop(AF_INET6, address.ipv6, buf, sizeof(buf));
   d99fc:	4639      	mov	r1, r7
size_t IPAddress::printTo(Print& p) const
{
#if HAL_IPv6
	if (address.v==6) {
		char buf[40];
		buf[0] = 0;
   d99fe:	f805 4d28 	strb.w	r4, [r5, #-40]!
		inet_inet_ntop(AF_INET6, address.ipv6, buf, sizeof(buf));
   d9a02:	2328      	movs	r3, #40	; 0x28
   d9a04:	462a      	mov	r2, r5
   d9a06:	200a      	movs	r0, #10
   d9a08:	f7ff fa52 	bl	d8eb0 <inet_inet_ntop>
    void clearWriteError() { setWriteError(0); }

    virtual size_t write(uint8_t) = 0;
    size_t write(const char *str) {
      if (str == NULL) return 0;
      return write((const uint8_t *)str, strlen(str));
   d9a0c:	4628      	mov	r0, r5
   d9a0e:	f002 fa74 	bl	dbefa <strlen>
   d9a12:	6833      	ldr	r3, [r6, #0]
   d9a14:	4602      	mov	r2, r0
   d9a16:	68db      	ldr	r3, [r3, #12]
   d9a18:	4629      	mov	r1, r5
   d9a1a:	4630      	mov	r0, r6
   d9a1c:	4798      	blx	r3
   d9a1e:	e00f      	b.n	d9a40 <_ZNK9IPAddress7printToER5Print+0x60>
	}
#endif
    size_t n = 0;
    for (int i = 0; i < 4; i++)
    {
        if (n)
   d9a20:	b124      	cbz	r4, d9a2c <_ZNK9IPAddress7printToER5Print+0x4c>
            n += p.print('.');
   d9a22:	212e      	movs	r1, #46	; 0x2e
   d9a24:	4630      	mov	r0, r6
   d9a26:	f000 fa37 	bl	d9e98 <_ZN5Print5printEc>
   d9a2a:	4404      	add	r4, r0
        n += p.print((*this)[i], DEC);
   d9a2c:	f815 1d01 	ldrb.w	r1, [r5, #-1]!
   d9a30:	220a      	movs	r2, #10
   d9a32:	4630      	mov	r0, r6
   d9a34:	f000 fa76 	bl	d9f24 <_ZN5Print5printEhi>
		inet_inet_ntop(AF_INET6, address.ipv6, buf, sizeof(buf));
		return p.write(buf);
	}
#endif
    size_t n = 0;
    for (int i = 0; i < 4; i++)
   d9a38:	42bd      	cmp	r5, r7
    {
        if (n)
            n += p.print('.');
        n += p.print((*this)[i], DEC);
   d9a3a:	4404      	add	r4, r0
		inet_inet_ntop(AF_INET6, address.ipv6, buf, sizeof(buf));
		return p.write(buf);
	}
#endif
    size_t n = 0;
    for (int i = 0; i < 4; i++)
   d9a3c:	d1f0      	bne.n	d9a20 <_ZNK9IPAddress7printToER5Print+0x40>
    {
        if (n)
            n += p.print('.');
        n += p.print((*this)[i], DEC);
   d9a3e:	4620      	mov	r0, r4
    }
    return n;
}
   d9a40:	b00b      	add	sp, #44	; 0x2c
   d9a42:	bdf0      	pop	{r4, r5, r6, r7, pc}

000d9a44 <_ZN9IPAddressC1Ev>:
#include "spark_wiring_print.h"
#include "spark_wiring_platform.h"
#include "string.h"
#include "ifapi.h"

IPAddress::IPAddress()
   d9a44:	b510      	push	{r4, lr}
   d9a46:	4b05      	ldr	r3, [pc, #20]	; (d9a5c <_ZN9IPAddressC1Ev+0x18>)
   d9a48:	4604      	mov	r4, r0
        return address;
    }

    virtual size_t printTo(Print& p) const;

    void clear() { memset(&address, 0, sizeof (address)); }
   d9a4a:	2211      	movs	r2, #17
   d9a4c:	f840 3b04 	str.w	r3, [r0], #4
   d9a50:	2100      	movs	r1, #0
   d9a52:	f002 f9ed 	bl	dbe30 <memset>
{
    clear();
}
   d9a56:	4620      	mov	r0, r4
   d9a58:	bd10      	pop	{r4, pc}
   d9a5a:	bf00      	nop
   d9a5c:	000de0a0 	.word	0x000de0a0

000d9a60 <_ZN9IPAddressC1ERK16_HAL_IPAddress_t>:

IPAddress::IPAddress(const HAL_IPAddress& address)
   d9a60:	4603      	mov	r3, r0
   d9a62:	4a07      	ldr	r2, [pc, #28]	; (d9a80 <_ZN9IPAddressC1ERK16_HAL_IPAddress_t+0x20>)
   d9a64:	b510      	push	{r4, lr}
   d9a66:	f843 2b04 	str.w	r2, [r3], #4
{
    memcpy(&this->address, &address, sizeof(address));
   d9a6a:	f101 0210 	add.w	r2, r1, #16
   d9a6e:	f851 4b04 	ldr.w	r4, [r1], #4
   d9a72:	f843 4b04 	str.w	r4, [r3], #4
   d9a76:	4291      	cmp	r1, r2
   d9a78:	d1f9      	bne.n	d9a6e <_ZN9IPAddressC1ERK16_HAL_IPAddress_t+0xe>
   d9a7a:	780a      	ldrb	r2, [r1, #0]
   d9a7c:	701a      	strb	r2, [r3, #0]
}
   d9a7e:	bd10      	pop	{r4, pc}
   d9a80:	000de0a0 	.word	0x000de0a0

000d9a84 <_ZNK9IPAddresscvbEv>:
{
    *this = address;
}

IPAddress::operator bool() const
{
   d9a84:	7d03      	ldrb	r3, [r0, #20]
#if Wiring_IPv6
    if (version() == 4) {
   d9a86:	2b04      	cmp	r3, #4
   d9a88:	d101      	bne.n	d9a8e <_ZNK9IPAddresscvbEv+0xa>
        return address.ipv4 != 0;
   d9a8a:	6840      	ldr	r0, [r0, #4]
   d9a8c:	e008      	b.n	d9aa0 <_ZNK9IPAddresscvbEv+0x1c>
    } else if (version() == 6) {
   d9a8e:	2b06      	cmp	r3, #6
   d9a90:	d10a      	bne.n	d9aa8 <_ZNK9IPAddresscvbEv+0x24>
        return address.ipv6[0] != 0 && address.ipv6[1] != 0 && address.ipv6[2] != 0 && address.ipv6[3] != 0;
   d9a92:	6843      	ldr	r3, [r0, #4]
   d9a94:	b153      	cbz	r3, d9aac <_ZNK9IPAddresscvbEv+0x28>
   d9a96:	6883      	ldr	r3, [r0, #8]
   d9a98:	b143      	cbz	r3, d9aac <_ZNK9IPAddresscvbEv+0x28>
   d9a9a:	68c3      	ldr	r3, [r0, #12]
   d9a9c:	b133      	cbz	r3, d9aac <_ZNK9IPAddresscvbEv+0x28>
   d9a9e:	6900      	ldr	r0, [r0, #16]
   d9aa0:	3000      	adds	r0, #0
   d9aa2:	bf18      	it	ne
   d9aa4:	2001      	movne	r0, #1
   d9aa6:	4770      	bx	lr
   d9aa8:	2000      	movs	r0, #0
   d9aaa:	4770      	bx	lr
   d9aac:	4618      	mov	r0, r3
        return false;
    }
#else
    return address.ipv4!=0;
#endif
}
   d9aae:	4770      	bx	lr

000d9ab0 <_ZN9IPAddressaSEm>:
        return &address;
    }

    inline void setVersion(uint8_t version) {
#if HAL_IPv6
        address.v = version;
   d9ab0:	2204      	movs	r2, #4
    return *this;
}

IPAddress& IPAddress::operator=(uint32_t ipv4)
{
    address.ipv4 = ipv4;
   d9ab2:	6041      	str	r1, [r0, #4]
   d9ab4:	7502      	strb	r2, [r0, #20]
    setVersion(4);
    return *this;
}
   d9ab6:	4770      	bx	lr

000d9ab8 <_GLOBAL__sub_I__ZN5spark3LogE>:
    // This handler doesn't support direct logging
}

// spark::Logger
inline spark::Logger::Logger(const char *name) :
        name_(name) {
   d9ab8:	4b01      	ldr	r3, [pc, #4]	; (d9ac0 <_GLOBAL__sub_I__ZN5spark3LogE+0x8>)
   d9aba:	4a02      	ldr	r2, [pc, #8]	; (d9ac4 <_GLOBAL__sub_I__ZN5spark3LogE+0xc>)
   d9abc:	601a      	str	r2, [r3, #0]
   d9abe:	4770      	bx	lr
   d9ac0:	2003e400 	.word	0x2003e400
   d9ac4:	000de15f 	.word	0x000de15f

000d9ac8 <_ZN5spark9MeshClass5readyEv>:
    bool listening(void) {
        return network_listening(*this, 0, NULL);
    }

    bool ready() {
        return network_ready(*this, 0,  NULL);
   d9ac8:	2200      	movs	r2, #0
   d9aca:	4611      	mov	r1, r2
   d9acc:	4610      	mov	r0, r2
   d9ace:	f7ff bbb7 	b.w	d9240 <network_ready>

000d9ad2 <_ZN5spark11MeshPublish13Subscriptions20event_handler_existsEPKcPFvS3_S3_EPvN17SubscriptionScope4EnumES3_>:
	return spark::Mesh.poll();
}

bool MeshPublish::Subscriptions::event_handler_exists(const char *event_name, EventHandler handler,
		void *handler_data, SubscriptionScope::Enum scope, const char* id)
{
   d9ad2:	e92d 4ff8 	stmdb	sp!, {r3, r4, r5, r6, r7, r8, r9, sl, fp, lr}
   d9ad6:	9f0b      	ldr	r7, [sp, #44]	; 0x2c
   d9ad8:	f89d b028 	ldrb.w	fp, [sp, #40]	; 0x28
   d9adc:	4606      	mov	r6, r0
   d9ade:	4688      	mov	r8, r1
   d9ae0:	4691      	mov	r9, r2
   d9ae2:	469a      	mov	sl, r3
   d9ae4:	4604      	mov	r4, r0
	const int NUM_HANDLERS = sizeof(event_handlers)
			/ sizeof(FilteringEventHandler);
	for (int i = 0; i < NUM_HANDLERS; i++)
   d9ae6:	2500      	movs	r5, #0
	{
		if (event_handlers[i].handler == handler
   d9ae8:	6c23      	ldr	r3, [r4, #64]	; 0x40
   d9aea:	454b      	cmp	r3, r9
   d9aec:	d129      	bne.n	d9b42 <_ZN5spark11MeshPublish13Subscriptions20event_handler_existsEPKcPFvS3_S3_EPvN17SubscriptionScope4EnumES3_+0x70>
				&& event_handlers[i].handler_data == handler_data
   d9aee:	6c63      	ldr	r3, [r4, #68]	; 0x44
   d9af0:	4553      	cmp	r3, sl
   d9af2:	d126      	bne.n	d9b42 <_ZN5spark11MeshPublish13Subscriptions20event_handler_existsEPKcPFvS3_S3_EPvN17SubscriptionScope4EnumES3_+0x70>
				&& event_handlers[i].scope == scope)
   d9af4:	f894 3048 	ldrb.w	r3, [r4, #72]	; 0x48
   d9af8:	455b      	cmp	r3, fp
   d9afa:	d122      	bne.n	d9b42 <_ZN5spark11MeshPublish13Subscriptions20event_handler_existsEPKcPFvS3_S3_EPvN17SubscriptionScope4EnumES3_+0x70>
		{
			const size_t MAX_FILTER_LEN = sizeof(event_handlers[i].filter);
			const size_t FILTER_LEN = strnlen(event_name, MAX_FILTER_LEN);
   d9afc:	2140      	movs	r1, #64	; 0x40
   d9afe:	4640      	mov	r0, r8
   d9b00:	f002 fa2b 	bl	dbf5a <strnlen>
			if (!strncmp(event_handlers[i].filter, event_name, FILTER_LEN))
   d9b04:	4641      	mov	r1, r8
   d9b06:	4602      	mov	r2, r0
   d9b08:	4620      	mov	r0, r4
   d9b0a:	f002 f9fe 	bl	dbf0a <strncmp>
   d9b0e:	b9c0      	cbnz	r0, d9b42 <_ZN5spark11MeshPublish13Subscriptions20event_handler_existsEPKcPFvS3_S3_EPvN17SubscriptionScope4EnumES3_+0x70>
			{
				const size_t MAX_ID_LEN =
						sizeof(event_handlers[i].device_id) - 1;
				const size_t id_len = id ? strnlen(id, MAX_ID_LEN) : 0;
   d9b10:	b16f      	cbz	r7, d9b2e <_ZN5spark11MeshPublish13Subscriptions20event_handler_existsEPKcPFvS3_S3_EPvN17SubscriptionScope4EnumES3_+0x5c>
   d9b12:	210c      	movs	r1, #12
   d9b14:	4638      	mov	r0, r7
   d9b16:	f002 fa20 	bl	dbf5a <strnlen>
				if (id_len)
   d9b1a:	4602      	mov	r2, r0
   d9b1c:	b138      	cbz	r0, d9b2e <_ZN5spark11MeshPublish13Subscriptions20event_handler_existsEPKcPFvS3_S3_EPvN17SubscriptionScope4EnumES3_+0x5c>
					return !strncmp(event_handlers[i].device_id, id, id_len);
   d9b1e:	2358      	movs	r3, #88	; 0x58
   d9b20:	fb03 6005 	mla	r0, r3, r5, r6
   d9b24:	4639      	mov	r1, r7
   d9b26:	3049      	adds	r0, #73	; 0x49
   d9b28:	f002 f9ef 	bl	dbf0a <strncmp>
   d9b2c:	e004      	b.n	d9b38 <_ZN5spark11MeshPublish13Subscriptions20event_handler_existsEPKcPFvS3_S3_EPvN17SubscriptionScope4EnumES3_+0x66>
				else
					return !event_handlers[i].device_id[0];
   d9b2e:	2058      	movs	r0, #88	; 0x58
   d9b30:	fb00 6505 	mla	r5, r0, r5, r6
   d9b34:	f895 0049 	ldrb.w	r0, [r5, #73]	; 0x49
   d9b38:	fab0 f080 	clz	r0, r0
   d9b3c:	0940      	lsrs	r0, r0, #5
   d9b3e:	e8bd 8ff8 	ldmia.w	sp!, {r3, r4, r5, r6, r7, r8, r9, sl, fp, pc}
bool MeshPublish::Subscriptions::event_handler_exists(const char *event_name, EventHandler handler,
		void *handler_data, SubscriptionScope::Enum scope, const char* id)
{
	const int NUM_HANDLERS = sizeof(event_handlers)
			/ sizeof(FilteringEventHandler);
	for (int i = 0; i < NUM_HANDLERS; i++)
   d9b42:	3501      	adds	r5, #1
   d9b44:	2d05      	cmp	r5, #5
   d9b46:	f104 0458 	add.w	r4, r4, #88	; 0x58
   d9b4a:	d1cd      	bne.n	d9ae8 <_ZN5spark11MeshPublish13Subscriptions20event_handler_existsEPKcPFvS3_S3_EPvN17SubscriptionScope4EnumES3_+0x16>
				else
					return !event_handlers[i].device_id[0];
			}
		}
	}
	return false;
   d9b4c:	2000      	movs	r0, #0
}
   d9b4e:	e8bd 8ff8 	ldmia.w	sp!, {r3, r4, r5, r6, r7, r8, r9, sl, fp, pc}
	...

000d9b54 <_ZN5spark11MeshPublish13Subscriptions17add_event_handlerEPKcPFvS3_S3_EPvN17SubscriptionScope4EnumES3_>:
/**
 * Adds the given handler.
 */
int MeshPublish::Subscriptions::add_event_handler(const char *event_name, EventHandler handler,
		void *handler_data, SubscriptionScope::Enum scope, const char* id)
{
   d9b54:	e92d 4ff0 	stmdb	sp!, {r4, r5, r6, r7, r8, r9, sl, fp, lr}
   d9b58:	b085      	sub	sp, #20
   d9b5a:	4607      	mov	r7, r0
   d9b5c:	f89d a038 	ldrb.w	sl, [sp, #56]	; 0x38
   d9b60:	9e0f      	ldr	r6, [sp, #60]	; 0x3c
	if (event_handler_exists(event_name, handler, handler_data, scope, id))
   d9b62:	9601      	str	r6, [sp, #4]
   d9b64:	f8cd a000 	str.w	sl, [sp]
/**
 * Adds the given handler.
 */
int MeshPublish::Subscriptions::add_event_handler(const char *event_name, EventHandler handler,
		void *handler_data, SubscriptionScope::Enum scope, const char* id)
{
   d9b68:	4689      	mov	r9, r1
   d9b6a:	9202      	str	r2, [sp, #8]
   d9b6c:	9303      	str	r3, [sp, #12]
	if (event_handler_exists(event_name, handler, handler_data, scope, id))
   d9b6e:	f7ff ffb0 	bl	d9ad2 <_ZN5spark11MeshPublish13Subscriptions20event_handler_existsEPKcPFvS3_S3_EPvN17SubscriptionScope4EnumES3_>
   d9b72:	2800      	cmp	r0, #0
   d9b74:	d13c      	bne.n	d9bf0 <_ZN5spark11MeshPublish13Subscriptions17add_event_handlerEPKcPFvS3_S3_EPvN17SubscriptionScope4EnumES3_+0x9c>
   d9b76:	4604      	mov	r4, r0
		return SYSTEM_ERROR_NONE;

	const int NUM_HANDLERS = sizeof(event_handlers) / sizeof(FilteringEventHandler);
	for (int i = 0; i < NUM_HANDLERS; i++)
	{
		if (NULL == event_handlers[i].handler)
   d9b78:	2358      	movs	r3, #88	; 0x58
   d9b7a:	fb03 7504 	mla	r5, r3, r4, r7
   d9b7e:	f8d5 8040 	ldr.w	r8, [r5, #64]	; 0x40
   d9b82:	f1b8 0f00 	cmp.w	r8, #0
   d9b86:	d12e      	bne.n	d9be6 <_ZN5spark11MeshPublish13Subscriptions17add_event_handlerEPKcPFvS3_S3_EPvN17SubscriptionScope4EnumES3_+0x92>
		{
			const size_t MAX_FILTER_LEN = sizeof(event_handlers[i].filter);
			const size_t FILTER_LEN = strnlen(event_name, MAX_FILTER_LEN);
   d9b88:	2140      	movs	r1, #64	; 0x40
   d9b8a:	4648      	mov	r0, r9
   d9b8c:	f002 f9e5 	bl	dbf5a <strnlen>
			memcpy(event_handlers[i].filter, event_name, FILTER_LEN);
   d9b90:	4649      	mov	r1, r9
	for (int i = 0; i < NUM_HANDLERS; i++)
	{
		if (NULL == event_handlers[i].handler)
		{
			const size_t MAX_FILTER_LEN = sizeof(event_handlers[i].filter);
			const size_t FILTER_LEN = strnlen(event_name, MAX_FILTER_LEN);
   d9b92:	4683      	mov	fp, r0
			memcpy(event_handlers[i].filter, event_name, FILTER_LEN);
   d9b94:	4602      	mov	r2, r0
   d9b96:	4628      	mov	r0, r5
   d9b98:	f002 f93f 	bl	dbe1a <memcpy>
			memset(event_handlers[i].filter + FILTER_LEN, 0, MAX_FILTER_LEN - FILTER_LEN);
   d9b9c:	f1cb 0240 	rsb	r2, fp, #64	; 0x40
   d9ba0:	4641      	mov	r1, r8
   d9ba2:	eb05 000b 	add.w	r0, r5, fp
   d9ba6:	f002 f943 	bl	dbe30 <memset>
			event_handlers[i].handler = handler;
   d9baa:	9b02      	ldr	r3, [sp, #8]
   d9bac:	642b      	str	r3, [r5, #64]	; 0x40
			event_handlers[i].handler_data = handler_data;
   d9bae:	9b03      	ldr	r3, [sp, #12]
   d9bb0:	646b      	str	r3, [r5, #68]	; 0x44
			event_handlers[i].device_id[0] = 0;
   d9bb2:	f885 8049 	strb.w	r8, [r5, #73]	; 0x49
			const size_t MAX_ID_LEN = sizeof(event_handlers[i].device_id) - 1;
			const size_t id_len = id ? strnlen(id, MAX_ID_LEN) : 0;
   d9bb6:	b12e      	cbz	r6, d9bc4 <_ZN5spark11MeshPublish13Subscriptions17add_event_handlerEPKcPFvS3_S3_EPvN17SubscriptionScope4EnumES3_+0x70>
   d9bb8:	210c      	movs	r1, #12
   d9bba:	4630      	mov	r0, r6
   d9bbc:	f002 f9cd 	bl	dbf5a <strnlen>
   d9bc0:	4605      	mov	r5, r0
   d9bc2:	e000      	b.n	d9bc6 <_ZN5spark11MeshPublish13Subscriptions17add_event_handlerEPKcPFvS3_S3_EPvN17SubscriptionScope4EnumES3_+0x72>
   d9bc4:	4635      	mov	r5, r6
			memcpy(event_handlers[i].device_id, id, id_len);
   d9bc6:	2058      	movs	r0, #88	; 0x58
   d9bc8:	4344      	muls	r4, r0
   d9bca:	1938      	adds	r0, r7, r4
			event_handlers[i].device_id[id_len] = 0;
   d9bcc:	443c      	add	r4, r7
			event_handlers[i].handler = handler;
			event_handlers[i].handler_data = handler_data;
			event_handlers[i].device_id[0] = 0;
			const size_t MAX_ID_LEN = sizeof(event_handlers[i].device_id) - 1;
			const size_t id_len = id ? strnlen(id, MAX_ID_LEN) : 0;
			memcpy(event_handlers[i].device_id, id, id_len);
   d9bce:	462a      	mov	r2, r5
   d9bd0:	4631      	mov	r1, r6
   d9bd2:	3049      	adds	r0, #73	; 0x49
			event_handlers[i].device_id[id_len] = 0;
   d9bd4:	4425      	add	r5, r4
			event_handlers[i].handler = handler;
			event_handlers[i].handler_data = handler_data;
			event_handlers[i].device_id[0] = 0;
			const size_t MAX_ID_LEN = sizeof(event_handlers[i].device_id) - 1;
			const size_t id_len = id ? strnlen(id, MAX_ID_LEN) : 0;
			memcpy(event_handlers[i].device_id, id, id_len);
   d9bd6:	f002 f920 	bl	dbe1a <memcpy>
			event_handlers[i].device_id[id_len] = 0;
   d9bda:	2000      	movs	r0, #0
   d9bdc:	f885 0049 	strb.w	r0, [r5, #73]	; 0x49
			event_handlers[i].scope = scope;
   d9be0:	f884 a048 	strb.w	sl, [r4, #72]	; 0x48
   d9be4:	e005      	b.n	d9bf2 <_ZN5spark11MeshPublish13Subscriptions17add_event_handlerEPKcPFvS3_S3_EPvN17SubscriptionScope4EnumES3_+0x9e>
{
	if (event_handler_exists(event_name, handler, handler_data, scope, id))
		return SYSTEM_ERROR_NONE;

	const int NUM_HANDLERS = sizeof(event_handlers) / sizeof(FilteringEventHandler);
	for (int i = 0; i < NUM_HANDLERS; i++)
   d9be6:	3401      	adds	r4, #1
   d9be8:	2c05      	cmp	r4, #5
   d9bea:	d1c6      	bne.n	d9b7a <_ZN5spark11MeshPublish13Subscriptions17add_event_handlerEPKcPFvS3_S3_EPvN17SubscriptionScope4EnumES3_+0x26>
			event_handlers[i].device_id[id_len] = 0;
			event_handlers[i].scope = scope;
			return SYSTEM_ERROR_NONE;
		}
	}
	return SYSTEM_ERROR_NO_MEMORY;
   d9bec:	4802      	ldr	r0, [pc, #8]	; (d9bf8 <_ZN5spark11MeshPublish13Subscriptions17add_event_handlerEPKcPFvS3_S3_EPvN17SubscriptionScope4EnumES3_+0xa4>)
   d9bee:	e000      	b.n	d9bf2 <_ZN5spark11MeshPublish13Subscriptions17add_event_handlerEPKcPFvS3_S3_EPvN17SubscriptionScope4EnumES3_+0x9e>
 */
int MeshPublish::Subscriptions::add_event_handler(const char *event_name, EventHandler handler,
		void *handler_data, SubscriptionScope::Enum scope, const char* id)
{
	if (event_handler_exists(event_name, handler, handler_data, scope, id))
		return SYSTEM_ERROR_NONE;
   d9bf0:	2000      	movs	r0, #0
			event_handlers[i].scope = scope;
			return SYSTEM_ERROR_NONE;
		}
	}
	return SYSTEM_ERROR_NO_MEMORY;
}
   d9bf2:	b005      	add	sp, #20
   d9bf4:	e8bd 8ff0 	ldmia.w	sp!, {r4, r5, r6, r7, r8, r9, sl, fp, pc}
   d9bf8:	fffffefc 	.word	0xfffffefc

000d9bfc <_ZN5spark11MeshPublish13Subscriptions3addEPKcPFvS3_S3_E>:


int MeshPublish::Subscriptions::add(const char* name, EventHandler handler)
{
   d9bfc:	b507      	push	{r0, r1, r2, lr}
	return add_event_handler(name, handler, nullptr, SubscriptionScope::MY_DEVICES, nullptr);
   d9bfe:	2300      	movs	r3, #0
   d9c00:	9301      	str	r3, [sp, #4]
   d9c02:	9300      	str	r3, [sp, #0]
   d9c04:	f7ff ffa6 	bl	d9b54 <_ZN5spark11MeshPublish13Subscriptions17add_event_handlerEPKcPFvS3_S3_EPvN17SubscriptionScope4EnumES3_>
}
   d9c08:	b003      	add	sp, #12
   d9c0a:	f85d fb04 	ldr.w	pc, [sp], #4

000d9c0e <_ZN5spark11MeshPublish13Subscriptions4sendEPKcS3_>:

void MeshPublish::Subscriptions::send(const char* event_name, const char* data)
{
   d9c0e:	e92d 41f3 	stmdb	sp!, {r0, r1, r4, r5, r6, r7, r8, lr}
   d9c12:	4604      	mov	r4, r0
	const size_t event_name_length = strlen(event_name);
   d9c14:	4608      	mov	r0, r1
{
	return add_event_handler(name, handler, nullptr, SubscriptionScope::MY_DEVICES, nullptr);
}

void MeshPublish::Subscriptions::send(const char* event_name, const char* data)
{
   d9c16:	460d      	mov	r5, r1
   d9c18:	4690      	mov	r8, r2
	const size_t event_name_length = strlen(event_name);
   d9c1a:	f002 f96e 	bl	dbefa <strlen>
   d9c1e:	f504 76dc 	add.w	r6, r4, #440	; 0x1b8
   d9c22:	4607      	mov	r7, r0
	const int NUM_HANDLERS = sizeof(event_handlers) / sizeof(FilteringEventHandler);
	for (int i = 0; i < NUM_HANDLERS; i++)
	{
		if (NULL == event_handlers[i].handler)
   d9c24:	6c23      	ldr	r3, [r4, #64]	; 0x40
   d9c26:	b1ab      	cbz	r3, d9c54 <_ZN5spark11MeshPublish13Subscriptions4sendEPKcS3_+0x46>
		{
			break;
		}
		const size_t MAX_FILTER_LENGTH = sizeof(event_handlers[i].filter);
		const size_t filter_length = strnlen(event_handlers[i].filter,
				MAX_FILTER_LENGTH);
   d9c28:	2140      	movs	r1, #64	; 0x40
   d9c2a:	4620      	mov	r0, r4
   d9c2c:	f002 f995 	bl	dbf5a <strnlen>

		if (event_name_length < filter_length)
   d9c30:	4287      	cmp	r7, r0
		{
			break;
		}
		const size_t MAX_FILTER_LENGTH = sizeof(event_handlers[i].filter);
		const size_t filter_length = strnlen(event_handlers[i].filter,
				MAX_FILTER_LENGTH);
   d9c32:	4602      	mov	r2, r0

		if (event_name_length < filter_length)
   d9c34:	d30b      	bcc.n	d9c4e <_ZN5spark11MeshPublish13Subscriptions4sendEPKcS3_+0x40>
			// does not match this filter, try the next event handler
			continue;
		}

		const int cmp = memcmp(event_handlers[i].filter, event_name,
				filter_length);
   d9c36:	4629      	mov	r1, r5
   d9c38:	4620      	mov	r0, r4
   d9c3a:	f002 f8df 	bl	dbdfc <memcmp>
		if (0 == cmp)
   d9c3e:	b930      	cbnz	r0, d9c4e <_ZN5spark11MeshPublish13Subscriptions4sendEPKcS3_+0x40>
		{
			system_invoke_event_handler(sizeof(FilteringEventHandler),
											&event_handlers[i], (const char*) event_name,
											(const char*) data, nullptr);
   d9c40:	9000      	str	r0, [sp, #0]
   d9c42:	4643      	mov	r3, r8
   d9c44:	462a      	mov	r2, r5
   d9c46:	4621      	mov	r1, r4
   d9c48:	2058      	movs	r0, #88	; 0x58
   d9c4a:	f7ff faa5 	bl	d9198 <system_invoke_event_handler>
   d9c4e:	3458      	adds	r4, #88	; 0x58

void MeshPublish::Subscriptions::send(const char* event_name, const char* data)
{
	const size_t event_name_length = strlen(event_name);
	const int NUM_HANDLERS = sizeof(event_handlers) / sizeof(FilteringEventHandler);
	for (int i = 0; i < NUM_HANDLERS; i++)
   d9c50:	42b4      	cmp	r4, r6
   d9c52:	d1e7      	bne.n	d9c24 <_ZN5spark11MeshPublish13Subscriptions4sendEPKcS3_+0x16>
											&event_handlers[i], (const char*) event_name,
											(const char*) data, nullptr);
		}
		// else continue the for loop to try the next handler
	}
}
   d9c54:	b002      	add	sp, #8
   d9c56:	e8bd 81f0 	ldmia.w	sp!, {r4, r5, r6, r7, r8, pc}
	...

000d9c5c <_ZN5spark11MeshPublish21fetchMulticastAddressER9IPAddress>:

int MeshPublish::fetchMulticastAddress(IPAddress& mcastAddr) {
   d9c5c:	b530      	push	{r4, r5, lr}
   d9c5e:	b08d      	sub	sp, #52	; 0x34
   d9c60:	4604      	mov	r4, r0
	HAL_IPAddress addr = {};
   d9c62:	2211      	movs	r2, #17
   d9c64:	2100      	movs	r1, #0
   d9c66:	a801      	add	r0, sp, #4
   d9c68:	f002 f8e2 	bl	dbe30 <memset>
	addr.v = 6;
   d9c6c:	2306      	movs	r3, #6
	inet_inet_pton(AF_INET6, MULTICAST_ADDR, addr.ipv6);
   d9c6e:	aa01      	add	r2, sp, #4
   d9c70:	4909      	ldr	r1, [pc, #36]	; (d9c98 <_ZN5spark11MeshPublish21fetchMulticastAddressER9IPAddress+0x3c>)
	}
}

int MeshPublish::fetchMulticastAddress(IPAddress& mcastAddr) {
	HAL_IPAddress addr = {};
	addr.v = 6;
   d9c72:	f88d 3014 	strb.w	r3, [sp, #20]
	inet_inet_pton(AF_INET6, MULTICAST_ADDR, addr.ipv6);
   d9c76:	200a      	movs	r0, #10
   d9c78:	f7ff f922 	bl	d8ec0 <inet_inet_pton>

/**
 * The IP address stored in host order.
 *
 */
class IPAddress : public Printable {
   d9c7c:	ad07      	add	r5, sp, #28
	mcastAddr = addr;
   d9c7e:	a901      	add	r1, sp, #4
   d9c80:	a806      	add	r0, sp, #24
   d9c82:	f7ff feed 	bl	d9a60 <_ZN9IPAddressC1ERK16_HAL_IPAddress_t>
   d9c86:	cd0f      	ldmia	r5!, {r0, r1, r2, r3}
   d9c88:	3404      	adds	r4, #4
   d9c8a:	c40f      	stmia	r4!, {r0, r1, r2, r3}
   d9c8c:	682b      	ldr	r3, [r5, #0]
   d9c8e:	7023      	strb	r3, [r4, #0]
	return 0;
}
   d9c90:	2000      	movs	r0, #0
   d9c92:	b00d      	add	sp, #52	; 0x34
   d9c94:	bd30      	pop	{r4, r5, pc}
   d9c96:	bf00      	nop
   d9c98:	000de1a0 	.word	0x000de1a0

000d9c9c <_ZN5spark11MeshPublish14initialize_udpEv>:

int MeshPublish::initialize_udp() {
   d9c9c:	b530      	push	{r4, r5, lr}
	if (udp) {
   d9c9e:	6803      	ldr	r3, [r0, #0]
	inet_inet_pton(AF_INET6, MULTICAST_ADDR, addr.ipv6);
	mcastAddr = addr;
	return 0;
}

int MeshPublish::initialize_udp() {
   d9ca0:	b089      	sub	sp, #36	; 0x24
   d9ca2:	4604      	mov	r4, r0
	if (udp) {
   d9ca4:	bb6b      	cbnz	r3, d9d02 <_ZN5spark11MeshPublish14initialize_udpEv+0x66>
		return SYSTEM_ERROR_NONE;
	}
	udp = new UDP();
   d9ca6:	204c      	movs	r0, #76	; 0x4c
   d9ca8:	f7fa f9f5 	bl	d4096 <_Znwj>
   d9cac:	4605      	mov	r5, r0
   d9cae:	b108      	cbz	r0, d9cb4 <_ZN5spark11MeshPublish14initialize_udpEv+0x18>
   d9cb0:	f000 fec2 	bl	daa38 <_ZN3UDPC1Ev>
   d9cb4:	6025      	str	r5, [r4, #0]
	if (!udp) {
   d9cb6:	b315      	cbz	r5, d9cfe <_ZN5spark11MeshPublish14initialize_udpEv+0x62>
		return SYSTEM_ERROR_NO_MEMORY;
	}
	udp->setBuffer(MAX_PACKET_LEN);
   d9cb8:	2200      	movs	r2, #0
   d9cba:	f44f 7140 	mov.w	r1, #768	; 0x300
   d9cbe:	4628      	mov	r0, r5
   d9cc0:	f000 fee9 	bl	daa96 <_ZN3UDP9setBufferEjPh>
	// Get OpenThread interface index (OpenThread interface is named "th1" on all Mesh devices)
	uint8_t idx = 0;
   d9cc4:	a908      	add	r1, sp, #32
   d9cc6:	2500      	movs	r5, #0
   d9cc8:	f801 5d19 	strb.w	r5, [r1, #-25]!
	if_name_to_index("th1", &idx);
   d9ccc:	480e      	ldr	r0, [pc, #56]	; (d9d08 <_ZN5spark11MeshPublish14initialize_udpEv+0x6c>)
   d9cce:	f7ff f8c7 	bl	d8e60 <if_name_to_index>
	 // Create UDP socket and bind to OpenThread interface
	CHECK(udp->begin(PORT, idx));
   d9cd2:	6820      	ldr	r0, [r4, #0]
   d9cd4:	f89d 2007 	ldrb.w	r2, [sp, #7]
   d9cd8:	6803      	ldr	r3, [r0, #0]
   d9cda:	f249 0169 	movw	r1, #36969	; 0x9069
   d9cde:	6a1b      	ldr	r3, [r3, #32]
   d9ce0:	4798      	blx	r3
	// subscribe to multicast

	IPAddress mcastAddr;
   d9ce2:	a802      	add	r0, sp, #8
   d9ce4:	f7ff feae 	bl	d9a44 <_ZN9IPAddressC1Ev>
	CHECK(fetchMulticastAddress(mcastAddr));
   d9ce8:	a802      	add	r0, sp, #8
   d9cea:	f7ff ffb7 	bl	d9c5c <_ZN5spark11MeshPublish21fetchMulticastAddressER9IPAddress>
   d9cee:	2800      	cmp	r0, #0
   d9cf0:	db08      	blt.n	d9d04 <_ZN5spark11MeshPublish14initialize_udpEv+0x68>
	udp->joinMulticast(mcastAddr);
   d9cf2:	a902      	add	r1, sp, #8
   d9cf4:	6820      	ldr	r0, [r4, #0]
   d9cf6:	f000 ff39 	bl	dab6c <_ZN3UDP13joinMulticastERK9IPAddress>
	return SYSTEM_ERROR_NONE;
   d9cfa:	4628      	mov	r0, r5
   d9cfc:	e002      	b.n	d9d04 <_ZN5spark11MeshPublish14initialize_udpEv+0x68>
	if (udp) {
		return SYSTEM_ERROR_NONE;
	}
	udp = new UDP();
	if (!udp) {
		return SYSTEM_ERROR_NO_MEMORY;
   d9cfe:	4803      	ldr	r0, [pc, #12]	; (d9d0c <_ZN5spark11MeshPublish14initialize_udpEv+0x70>)
   d9d00:	e000      	b.n	d9d04 <_ZN5spark11MeshPublish14initialize_udpEv+0x68>
	return 0;
}

int MeshPublish::initialize_udp() {
	if (udp) {
		return SYSTEM_ERROR_NONE;
   d9d02:	2000      	movs	r0, #0

	IPAddress mcastAddr;
	CHECK(fetchMulticastAddress(mcastAddr));
	udp->joinMulticast(mcastAddr);
	return SYSTEM_ERROR_NONE;
}
   d9d04:	b009      	add	sp, #36	; 0x24
   d9d06:	bd30      	pop	{r4, r5, pc}
   d9d08:	000de1ad 	.word	0x000de1ad
   d9d0c:	fffffefc 	.word	0xfffffefc

000d9d10 <_ZN5spark11MeshPublish7publishEPKcS2_>:
		udp = nullptr;
	}
	return SYSTEM_ERROR_NONE;
}

int MeshPublish::publish(const char* topic, const char* data) {
   d9d10:	e92d 43f0 	stmdb	sp!, {r4, r5, r6, r7, r8, r9, lr}
   d9d14:	b08d      	sub	sp, #52	; 0x34
   d9d16:	4606      	mov	r6, r0
   d9d18:	4688      	mov	r8, r1
   d9d1a:	4617      	mov	r7, r2
	CHECK(initialize_udp());
   d9d1c:	f7ff ffbe 	bl	d9c9c <_ZN5spark11MeshPublish14initialize_udpEv>
   d9d20:	2800      	cmp	r0, #0
   d9d22:	db36      	blt.n	d9d92 <_ZN5spark11MeshPublish7publishEPKcS2_+0x82>
	IPAddress mcastAddr;
   d9d24:	4668      	mov	r0, sp
   d9d26:	f7ff fe8d 	bl	d9a44 <_ZN9IPAddressC1Ev>
	CHECK(fetchMulticastAddress(mcastAddr));
   d9d2a:	4668      	mov	r0, sp
   d9d2c:	f7ff ff96 	bl	d9c5c <_ZN5spark11MeshPublish21fetchMulticastAddressER9IPAddress>
   d9d30:	2800      	cmp	r0, #0
   d9d32:	db2e      	blt.n	d9d92 <_ZN5spark11MeshPublish7publishEPKcS2_+0x82>

	CHECK(udp->beginPacket(mcastAddr, PORT));
   d9d34:	f8d6 e000 	ldr.w	lr, [r6]
   d9d38:	f8de 3000 	ldr.w	r3, [lr]
   d9d3c:	ad01      	add	r5, sp, #4
   d9d3e:	f8d3 9038 	ldr.w	r9, [r3, #56]	; 0x38
   d9d42:	4b15      	ldr	r3, [pc, #84]	; (d9d98 <_ZN5spark11MeshPublish7publishEPKcS2_+0x88>)
   d9d44:	9306      	str	r3, [sp, #24]
   d9d46:	cd0f      	ldmia	r5!, {r0, r1, r2, r3}
   d9d48:	ac07      	add	r4, sp, #28
   d9d4a:	c40f      	stmia	r4!, {r0, r1, r2, r3}
   d9d4c:	682b      	ldr	r3, [r5, #0]
   d9d4e:	7023      	strb	r3, [r4, #0]
   d9d50:	f249 0269 	movw	r2, #36969	; 0x9069
   d9d54:	a906      	add	r1, sp, #24
   d9d56:	4670      	mov	r0, lr
   d9d58:	47c8      	blx	r9
   d9d5a:	2800      	cmp	r0, #0
   d9d5c:	db19      	blt.n	d9d92 <_ZN5spark11MeshPublish7publishEPKcS2_+0x82>
	udp->write((const uint8_t*)topic, strlen(topic)+1);
   d9d5e:	6834      	ldr	r4, [r6, #0]
   d9d60:	4640      	mov	r0, r8
   d9d62:	f002 f8ca 	bl	dbefa <strlen>
   d9d66:	6823      	ldr	r3, [r4, #0]
   d9d68:	1c42      	adds	r2, r0, #1
   d9d6a:	68db      	ldr	r3, [r3, #12]
   d9d6c:	4641      	mov	r1, r8
   d9d6e:	4620      	mov	r0, r4
   d9d70:	4798      	blx	r3
	udp->write((const uint8_t*)data, strlen(data)+1);
   d9d72:	6834      	ldr	r4, [r6, #0]
   d9d74:	4638      	mov	r0, r7
   d9d76:	f002 f8c0 	bl	dbefa <strlen>
   d9d7a:	6823      	ldr	r3, [r4, #0]
   d9d7c:	1c42      	adds	r2, r0, #1
   d9d7e:	68db      	ldr	r3, [r3, #12]
   d9d80:	4639      	mov	r1, r7
   d9d82:	4620      	mov	r0, r4
   d9d84:	4798      	blx	r3
	CHECK(udp->endPacket());
   d9d86:	6830      	ldr	r0, [r6, #0]
   d9d88:	6803      	ldr	r3, [r0, #0]
   d9d8a:	6c1b      	ldr	r3, [r3, #64]	; 0x40
   d9d8c:	4798      	blx	r3
   d9d8e:	ea00 70e0 	and.w	r0, r0, r0, asr #31
	return SYSTEM_ERROR_NONE;
}
   d9d92:	b00d      	add	sp, #52	; 0x34
   d9d94:	e8bd 83f0 	ldmia.w	sp!, {r4, r5, r6, r7, r8, r9, pc}
   d9d98:	000de0a0 	.word	0x000de0a0

000d9d9c <_ZN5spark11MeshPublish9subscribeEPKcPFvS2_S2_E>:

int MeshPublish::subscribe(const char* prefix, EventHandler handler) {
   d9d9c:	b570      	push	{r4, r5, r6, lr}
   d9d9e:	4604      	mov	r4, r0
   d9da0:	460d      	mov	r5, r1
   d9da2:	4616      	mov	r6, r2
	CHECK(initialize_udp());
   d9da4:	f7ff ff7a 	bl	d9c9c <_ZN5spark11MeshPublish14initialize_udpEv>
   d9da8:	2800      	cmp	r0, #0
   d9daa:	db06      	blt.n	d9dba <_ZN5spark11MeshPublish9subscribeEPKcPFvS2_S2_E+0x1e>
	CHECK(subscriptions.add(prefix, handler));
   d9dac:	4632      	mov	r2, r6
   d9dae:	4629      	mov	r1, r5
   d9db0:	1d20      	adds	r0, r4, #4
   d9db2:	f7ff ff23 	bl	d9bfc <_ZN5spark11MeshPublish13Subscriptions3addEPKcPFvS3_S3_E>
   d9db6:	ea00 70e0 	and.w	r0, r0, r0, asr #31
	return SYSTEM_ERROR_NONE;
}
   d9dba:	bd70      	pop	{r4, r5, r6, pc}

000d9dbc <_ZN5spark11MeshPublish4pollEv>:

/**
 * Pull data from the socket and handle as required.
 */
int MeshPublish::poll() {
   d9dbc:	b570      	push	{r4, r5, r6, lr}
   d9dbe:	4604      	mov	r4, r0
	int result = 0;
	if (udp) {
   d9dc0:	6800      	ldr	r0, [r0, #0]
}

/**
 * Pull data from the socket and handle as required.
 */
int MeshPublish::poll() {
   d9dc2:	b08a      	sub	sp, #40	; 0x28
	int result = 0;
	if (udp) {
   d9dc4:	b1f0      	cbz	r0, d9e04 <_ZN5spark11MeshPublish4pollEv+0x48>
		int len = udp->parsePacket();
   d9dc6:	6803      	ldr	r3, [r0, #0]
   d9dc8:	6c5b      	ldr	r3, [r3, #68]	; 0x44
   d9dca:	4798      	blx	r3
		if (len>0) {
   d9dcc:	2800      	cmp	r0, #0
   d9dce:	dd19      	ble.n	d9e04 <_ZN5spark11MeshPublish4pollEv+0x48>
			LOG(TRACE, "parse packet %d", len);
   d9dd0:	2320      	movs	r3, #32
   d9dd2:	2500      	movs	r5, #0
   d9dd4:	9302      	str	r3, [sp, #8]
   d9dd6:	4b0c      	ldr	r3, [pc, #48]	; (d9e08 <_ZN5spark11MeshPublish4pollEv+0x4c>)
   d9dd8:	490c      	ldr	r1, [pc, #48]	; (d9e0c <_ZN5spark11MeshPublish4pollEv+0x50>)
   d9dda:	9001      	str	r0, [sp, #4]
   d9ddc:	aa02      	add	r2, sp, #8
   d9dde:	9300      	str	r3, [sp, #0]
   d9de0:	2001      	movs	r0, #1
   d9de2:	462b      	mov	r3, r5
   d9de4:	9503      	str	r5, [sp, #12]
   d9de6:	f7ff f993 	bl	d9110 <log_message>
   d9dea:	f854 3b04 	ldr.w	r3, [r4], #4
   d9dee:	6bde      	ldr	r6, [r3, #60]	; 0x3c
			const char* buffer = (const char*)udp->buffer();
			int namelen = strlen(buffer);
   d9df0:	4630      	mov	r0, r6
   d9df2:	f002 f882 	bl	dbefa <strlen>
			subscriptions.send(buffer, buffer+namelen+1);
   d9df6:	1c42      	adds	r2, r0, #1
   d9df8:	4432      	add	r2, r6
   d9dfa:	4620      	mov	r0, r4
   d9dfc:	4631      	mov	r1, r6
   d9dfe:	f7ff ff06 	bl	d9c0e <_ZN5spark11MeshPublish13Subscriptions4sendEPKcS3_>

/**
 * Pull data from the socket and handle as required.
 */
int MeshPublish::poll() {
	int result = 0;
   d9e02:	4628      	mov	r0, r5
		} else {
			result = len;
		}
	}
	return result;
}
   d9e04:	b00a      	add	sp, #40	; 0x28
   d9e06:	bd70      	pop	{r4, r5, r6, pc}
   d9e08:	000de1b8 	.word	0x000de1b8
   d9e0c:	000de1b1 	.word	0x000de1b1

000d9e10 <_ZN5spark9mesh_loopEv>:
#if Wiring_Mesh

namespace spark {

int mesh_loop() {
	return spark::Mesh.poll();
   d9e10:	4801      	ldr	r0, [pc, #4]	; (d9e18 <_ZN5spark9mesh_loopEv+0x8>)
   d9e12:	f7ff bfd3 	b.w	d9dbc <_ZN5spark11MeshPublish4pollEv>
   d9e16:	bf00      	nop
   d9e18:	2003e408 	.word	0x2003e408

000d9e1c <_GLOBAL__sub_I__ZN5spark9mesh_loopEv>:
}



MeshClass Mesh;
} // namespace spark
   d9e1c:	b510      	push	{r4, lr}
// Defined as the primary network
extern NetworkClass& Network;


//Retained for compatibility and to flag compiler warnings as build errors
class NetworkClass
   d9e1e:	4c05      	ldr	r4, [pc, #20]	; (d9e34 <_GLOBAL__sub_I__ZN5spark9mesh_loopEv+0x18>)
   d9e20:	4b05      	ldr	r3, [pc, #20]	; (d9e38 <_GLOBAL__sub_I__ZN5spark9mesh_loopEv+0x1c>)
   d9e22:	6023      	str	r3, [r4, #0]

	int uninitialize_udp();

public:

	MeshPublish() : udp(nullptr) {
   d9e24:	2100      	movs	r1, #0
   d9e26:	6061      	str	r1, [r4, #4]
		system_task_loop(mesh_loop, nullptr);
   d9e28:	4804      	ldr	r0, [pc, #16]	; (d9e3c <_GLOBAL__sub_I__ZN5spark9mesh_loopEv+0x20>)
   d9e2a:	f7ff f9bf 	bl	d91ac <system_task_loop>
	 * Pull data from the socket and handle as required.
	 */
	int poll();
};

class MeshClass : public NetworkClass, public MeshPublish {
   d9e2e:	4b04      	ldr	r3, [pc, #16]	; (d9e40 <_GLOBAL__sub_I__ZN5spark9mesh_loopEv+0x24>)
   d9e30:	6023      	str	r3, [r4, #0]
   d9e32:	bd10      	pop	{r4, pc}
   d9e34:	2003e404 	.word	0x2003e404
   d9e38:	000de190 	.word	0x000de190
   d9e3c:	000d9e11 	.word	0x000d9e11
   d9e40:	000de19c 	.word	0x000de19c

000d9e44 <_ZN5Print5writeEPKhj>:

// Public Methods //////////////////////////////////////////////////////////////

/* default implementation: may be overridden */
size_t Print::write(const uint8_t *buffer, size_t size)
{
   d9e44:	b5f8      	push	{r3, r4, r5, r6, r7, lr}
   d9e46:	4606      	mov	r6, r0
   d9e48:	460d      	mov	r5, r1
   d9e4a:	188f      	adds	r7, r1, r2
  size_t n = 0;
   d9e4c:	2400      	movs	r4, #0
  while (size--) {
   d9e4e:	42bd      	cmp	r5, r7
   d9e50:	d00c      	beq.n	d9e6c <_ZN5Print5writeEPKhj+0x28>
     int chunk = write(*buffer++);
   d9e52:	6833      	ldr	r3, [r6, #0]
   d9e54:	f815 1b01 	ldrb.w	r1, [r5], #1
   d9e58:	689b      	ldr	r3, [r3, #8]
   d9e5a:	4630      	mov	r0, r6
   d9e5c:	4798      	blx	r3
     if (chunk>=0)
   d9e5e:	2800      	cmp	r0, #0
   d9e60:	db01      	blt.n	d9e66 <_ZN5Print5writeEPKhj+0x22>
         n += chunk;
   d9e62:	4404      	add	r4, r0

/* default implementation: may be overridden */
size_t Print::write(const uint8_t *buffer, size_t size)
{
  size_t n = 0;
  while (size--) {
   d9e64:	e7f3      	b.n	d9e4e <_ZN5Print5writeEPKhj+0xa>
     int chunk = write(*buffer++);
   d9e66:	2c00      	cmp	r4, #0
   d9e68:	bf08      	it	eq
   d9e6a:	4604      	moveq	r4, r0
             n = chunk;
         break;
     }
  }
  return n;
}
   d9e6c:	4620      	mov	r0, r4
   d9e6e:	bdf8      	pop	{r3, r4, r5, r6, r7, pc}

000d9e70 <_ZN5Print5writeEPKc>:

    int getWriteError() { return write_error; }
    void clearWriteError() { setWriteError(0); }

    virtual size_t write(uint8_t) = 0;
    size_t write(const char *str) {
   d9e70:	b570      	push	{r4, r5, r6, lr}
   d9e72:	4605      	mov	r5, r0
      if (str == NULL) return 0;
   d9e74:	460c      	mov	r4, r1
      return write((const uint8_t *)str, strlen(str));
    }
   d9e76:	4608      	mov	r0, r1
    int getWriteError() { return write_error; }
    void clearWriteError() { setWriteError(0); }

    virtual size_t write(uint8_t) = 0;
    size_t write(const char *str) {
      if (str == NULL) return 0;
   d9e78:	b149      	cbz	r1, d9e8e <_ZN5Print5writeEPKc+0x1e>
      return write((const uint8_t *)str, strlen(str));
   d9e7a:	f002 f83e 	bl	dbefa <strlen>
   d9e7e:	682b      	ldr	r3, [r5, #0]
   d9e80:	4602      	mov	r2, r0
   d9e82:	4621      	mov	r1, r4
   d9e84:	4628      	mov	r0, r5
   d9e86:	68db      	ldr	r3, [r3, #12]
    }
   d9e88:	e8bd 4070 	ldmia.w	sp!, {r4, r5, r6, lr}
    void clearWriteError() { setWriteError(0); }

    virtual size_t write(uint8_t) = 0;
    size_t write(const char *str) {
      if (str == NULL) return 0;
      return write((const uint8_t *)str, strlen(str));
   d9e8c:	4718      	bx	r3
    }
   d9e8e:	bd70      	pop	{r4, r5, r6, pc}

000d9e90 <_ZN5Print5printEPKc>:
   d9e90:	b508      	push	{r3, lr}
   d9e92:	f7ff ffed 	bl	d9e70 <_ZN5Print5writeEPKc>
   d9e96:	bd08      	pop	{r3, pc}

000d9e98 <_ZN5Print5printEc>:
  return write(str);
}

size_t Print::print(char c)
{
  return write(c);
   d9e98:	6803      	ldr	r3, [r0, #0]
   d9e9a:	689b      	ldr	r3, [r3, #8]
   d9e9c:	4718      	bx	r3

000d9e9e <_ZN5Print7printlnEv>:
{
  return print(reinterpret_cast<const char*>(str));
}

size_t Print::println(void)
{
   d9e9e:	b538      	push	{r3, r4, r5, lr}
  size_t n = print('\r');
   d9ea0:	210d      	movs	r1, #13
{
  return print(reinterpret_cast<const char*>(str));
}

size_t Print::println(void)
{
   d9ea2:	4605      	mov	r5, r0
  size_t n = print('\r');
   d9ea4:	f7ff fff8 	bl	d9e98 <_ZN5Print5printEc>
  n += print('\n');
   d9ea8:	210a      	movs	r1, #10
  return print(reinterpret_cast<const char*>(str));
}

size_t Print::println(void)
{
  size_t n = print('\r');
   d9eaa:	4604      	mov	r4, r0
  n += print('\n');
   d9eac:	4628      	mov	r0, r5
   d9eae:	f7ff fff3 	bl	d9e98 <_ZN5Print5printEc>
  return n;
}
   d9eb2:	4420      	add	r0, r4
   d9eb4:	bd38      	pop	{r3, r4, r5, pc}

000d9eb6 <_ZN5Print7printlnEPKc>:

size_t Print::println(const char c[])
{
   d9eb6:	b538      	push	{r3, r4, r5, lr}
   d9eb8:	4605      	mov	r5, r0
  return n;
}

size_t Print::print(const char str[])
{
  return write(str);
   d9eba:	f7ff ffd9 	bl	d9e70 <_ZN5Print5writeEPKc>
   d9ebe:	4604      	mov	r4, r0
}

size_t Print::println(const char c[])
{
  size_t n = print(c);
  n += println();
   d9ec0:	4628      	mov	r0, r5
   d9ec2:	f7ff ffec 	bl	d9e9e <_ZN5Print7printlnEv>
  return n;
}
   d9ec6:	4420      	add	r0, r4
   d9ec8:	bd38      	pop	{r3, r4, r5, pc}

000d9eca <_ZN5Print11printNumberEmh>:
  return println(reinterpret_cast<const char*>(str));
}

// Private Methods /////////////////////////////////////////////////////////////

size_t Print::printNumber(unsigned long n, uint8_t base) {
   d9eca:	b530      	push	{r4, r5, lr}
   d9ecc:	b08b      	sub	sp, #44	; 0x2c
   d9ece:	460b      	mov	r3, r1
  char buf[8 * sizeof(long) + 1]; // Assumes 8-bit chars plus zero byte.
  char *str = &buf[sizeof(buf) - 1];

  *str = '\0';
   d9ed0:	2100      	movs	r1, #0
   d9ed2:	f88d 1024 	strb.w	r1, [sp, #36]	; 0x24

  // prevent crash if called with base == 1
  if (base < 2) base = 10;
   d9ed6:	2a01      	cmp	r2, #1
   d9ed8:	bf98      	it	ls
   d9eda:	220a      	movls	r2, #10
   d9edc:	f10d 0423 	add.w	r4, sp, #35	; 0x23

  do {
    unsigned long m = n;
    n /= base;
   d9ee0:	fbb3 f5f2 	udiv	r5, r3, r2
    char c = m - base * n;
   d9ee4:	fb05 3312 	mls	r3, r5, r2, r3
   d9ee8:	f003 03ff 	and.w	r3, r3, #255	; 0xff
    *--str = c < 10 ? c + '0' : c + 'A' - 10;
   d9eec:	2b09      	cmp	r3, #9
   d9eee:	bf94      	ite	ls
   d9ef0:	3330      	addls	r3, #48	; 0x30
   d9ef2:	3337      	addhi	r3, #55	; 0x37
   d9ef4:	b2db      	uxtb	r3, r3
   d9ef6:	4621      	mov	r1, r4
   d9ef8:	f804 3901 	strb.w	r3, [r4], #-1
   d9efc:	462b      	mov	r3, r5
  *str = '\0';

  // prevent crash if called with base == 1
  if (base < 2) base = 10;

  do {
   d9efe:	2d00      	cmp	r5, #0
   d9f00:	d1ee      	bne.n	d9ee0 <_ZN5Print11printNumberEmh+0x16>
    n /= base;
    char c = m - base * n;
    *--str = c < 10 ? c + '0' : c + 'A' - 10;
  } while(n);

  return write(str);
   d9f02:	f7ff ffb5 	bl	d9e70 <_ZN5Print5writeEPKc>
}
   d9f06:	b00b      	add	sp, #44	; 0x2c
   d9f08:	bd30      	pop	{r4, r5, pc}

000d9f0a <_ZN5Print5printEmi>:
    return printNumber(n, base);
  }
}

size_t Print::print(unsigned long n, int base)
{
   d9f0a:	b410      	push	{r4}
  if (base == 0) return write(n);
   d9f0c:	b92a      	cbnz	r2, d9f1a <_ZN5Print5printEmi+0x10>
   d9f0e:	6803      	ldr	r3, [r0, #0]
  else return printNumber(n, base);
}
   d9f10:	f85d 4b04 	ldr.w	r4, [sp], #4
  }
}

size_t Print::print(unsigned long n, int base)
{
  if (base == 0) return write(n);
   d9f14:	689b      	ldr	r3, [r3, #8]
   d9f16:	b2c9      	uxtb	r1, r1
   d9f18:	4718      	bx	r3
  else return printNumber(n, base);
   d9f1a:	b2d2      	uxtb	r2, r2
}
   d9f1c:	f85d 4b04 	ldr.w	r4, [sp], #4
}

size_t Print::print(unsigned long n, int base)
{
  if (base == 0) return write(n);
  else return printNumber(n, base);
   d9f20:	f7ff bfd3 	b.w	d9eca <_ZN5Print11printNumberEmh>

000d9f24 <_ZN5Print5printEhi>:
  return write(c);
}

size_t Print::print(unsigned char b, int base)
{
  return print((unsigned long) b, base);
   d9f24:	f7ff bff1 	b.w	d9f0a <_ZN5Print5printEmi>

000d9f28 <_ZN5Print5printEli>:
{
  return print((unsigned long) n, base);
}

size_t Print::print(long n, int base)
{
   d9f28:	e92d 41f0 	stmdb	sp!, {r4, r5, r6, r7, r8, lr}
   d9f2c:	4607      	mov	r7, r0
   d9f2e:	460e      	mov	r6, r1
  if (base == 0) {
   d9f30:	4615      	mov	r5, r2
   d9f32:	b92a      	cbnz	r2, d9f40 <_ZN5Print5printEli+0x18>
    return write(n);
   d9f34:	6803      	ldr	r3, [r0, #0]
   d9f36:	b2c9      	uxtb	r1, r1
   d9f38:	689b      	ldr	r3, [r3, #8]
    }
    return printNumber(n, 10);
  } else {
    return printNumber(n, base);
  }
}
   d9f3a:	e8bd 41f0 	ldmia.w	sp!, {r4, r5, r6, r7, r8, lr}
}

size_t Print::print(long n, int base)
{
  if (base == 0) {
    return write(n);
   d9f3e:	4718      	bx	r3
  } else if (base == 10) {
   d9f40:	2a0a      	cmp	r2, #10
   d9f42:	d102      	bne.n	d9f4a <_ZN5Print5printEli+0x22>
    if (n < 0) {
   d9f44:	2900      	cmp	r1, #0
   d9f46:	da01      	bge.n	d9f4c <_ZN5Print5printEli+0x24>
   d9f48:	e004      	b.n	d9f54 <_ZN5Print5printEli+0x2c>
      n = -n;
      return printNumber(n, 10) + t;
    }
    return printNumber(n, 10);
  } else {
    return printNumber(n, base);
   d9f4a:	b2d2      	uxtb	r2, r2
  }
}
   d9f4c:	e8bd 41f0 	ldmia.w	sp!, {r4, r5, r6, r7, r8, lr}
      n = -n;
      return printNumber(n, 10) + t;
    }
    return printNumber(n, 10);
  } else {
    return printNumber(n, base);
   d9f50:	f7ff bfbb 	b.w	d9eca <_ZN5Print11printNumberEmh>
{
  if (base == 0) {
    return write(n);
  } else if (base == 10) {
    if (n < 0) {
      int t = print('-');
   d9f54:	212d      	movs	r1, #45	; 0x2d
   d9f56:	f7ff ff9f 	bl	d9e98 <_ZN5Print5printEc>
      n = -n;
      return printNumber(n, 10) + t;
   d9f5a:	462a      	mov	r2, r5
{
  if (base == 0) {
    return write(n);
  } else if (base == 10) {
    if (n < 0) {
      int t = print('-');
   d9f5c:	4604      	mov	r4, r0
      n = -n;
      return printNumber(n, 10) + t;
   d9f5e:	4271      	negs	r1, r6
   d9f60:	4638      	mov	r0, r7
   d9f62:	f7ff ffb2 	bl	d9eca <_ZN5Print11printNumberEmh>
   d9f66:	4420      	add	r0, r4
    }
    return printNumber(n, 10);
  } else {
    return printNumber(n, base);
  }
}
   d9f68:	e8bd 81f0 	ldmia.w	sp!, {r4, r5, r6, r7, r8, pc}

000d9f6c <_ZN5Print5printEii>:
  return print((unsigned long) b, base);
}

size_t Print::print(int n, int base)
{
  return print((long) n, base);
   d9f6c:	f7ff bfdc 	b.w	d9f28 <_ZN5Print5printEli>

000d9f70 <_ZN5Print11printf_implEbPKcz>:

  return n;
}

size_t Print::printf_impl(bool newline, const char* format, ...)
{
   d9f70:	b40c      	push	{r2, r3}
   d9f72:	e92d 43f0 	stmdb	sp!, {r4, r5, r6, r7, r8, r9, lr}
   d9f76:	b087      	sub	sp, #28
   d9f78:	af00      	add	r7, sp, #0
   d9f7a:	f107 0438 	add.w	r4, r7, #56	; 0x38
   d9f7e:	4605      	mov	r5, r0
   d9f80:	f854 9b04 	ldr.w	r9, [r4], #4
    const int bufsize = 20;
    char test[bufsize];
    va_list marker;
    va_start(marker, format);
   d9f84:	603c      	str	r4, [r7, #0]

  return n;
}

size_t Print::printf_impl(bool newline, const char* format, ...)
{
   d9f86:	460e      	mov	r6, r1
    const int bufsize = 20;
    char test[bufsize];
    va_list marker;
    va_start(marker, format);
    size_t n = vsnprintf(test, bufsize, format, marker);
   d9f88:	4623      	mov	r3, r4
   d9f8a:	464a      	mov	r2, r9
   d9f8c:	2114      	movs	r1, #20
   d9f8e:	1d38      	adds	r0, r7, #4
   d9f90:	f7ff f986 	bl	d92a0 <vsnprintf>
    va_end(marker);

    if (n<bufsize)
   d9f94:	2813      	cmp	r0, #19
   d9f96:	d805      	bhi.n	d9fa4 <_ZN5Print11printf_implEbPKcz+0x34>
  return n;
}

size_t Print::print(const char str[])
{
  return write(str);
   d9f98:	1d39      	adds	r1, r7, #4
   d9f9a:	4628      	mov	r0, r5
   d9f9c:	f7ff ff68 	bl	d9e70 <_ZN5Print5writeEPKc>
   d9fa0:	4604      	mov	r4, r0
   d9fa2:	e013      	b.n	d9fcc <_ZN5Print11printf_implEbPKcz+0x5c>
    {
        n = print(test);
    }
    else
    {
        char bigger[n+1];
   d9fa4:	f100 0308 	add.w	r3, r0, #8
   d9fa8:	f023 0307 	bic.w	r3, r3, #7
        va_start(marker, format);
        n = vsnprintf(bigger, n+1, format, marker);
        va_end(marker);
        n = print(bigger);
   d9fac:	46e8      	mov	r8, sp
    {
        n = print(test);
    }
    else
    {
        char bigger[n+1];
   d9fae:	ebad 0d03 	sub.w	sp, sp, r3
        va_start(marker, format);
        n = vsnprintf(bigger, n+1, format, marker);
   d9fb2:	1c41      	adds	r1, r0, #1
   d9fb4:	4623      	mov	r3, r4
   d9fb6:	464a      	mov	r2, r9
   d9fb8:	4668      	mov	r0, sp
        n = print(test);
    }
    else
    {
        char bigger[n+1];
        va_start(marker, format);
   d9fba:	603c      	str	r4, [r7, #0]
        n = vsnprintf(bigger, n+1, format, marker);
   d9fbc:	f7ff f970 	bl	d92a0 <vsnprintf>
  return n;
}

size_t Print::print(const char str[])
{
  return write(str);
   d9fc0:	4669      	mov	r1, sp
   d9fc2:	4628      	mov	r0, r5
   d9fc4:	f7ff ff54 	bl	d9e70 <_ZN5Print5writeEPKc>
   d9fc8:	4604      	mov	r4, r0
   d9fca:	46c5      	mov	sp, r8
        va_start(marker, format);
        n = vsnprintf(bigger, n+1, format, marker);
        va_end(marker);
        n = print(bigger);
    }
    if (newline)
   d9fcc:	b11e      	cbz	r6, d9fd6 <_ZN5Print11printf_implEbPKcz+0x66>
        n += println();
   d9fce:	4628      	mov	r0, r5
   d9fd0:	f7ff ff65 	bl	d9e9e <_ZN5Print7printlnEv>
   d9fd4:	4404      	add	r4, r0
    return n;
}
   d9fd6:	4620      	mov	r0, r4
   d9fd8:	371c      	adds	r7, #28
   d9fda:	46bd      	mov	sp, r7
   d9fdc:	e8bd 43f0 	ldmia.w	sp!, {r4, r5, r6, r7, r8, r9, lr}
   d9fe0:	b002      	add	sp, #8
   d9fe2:	4770      	bx	lr

000d9fe4 <_Z6randomi>:
#include "spark_wiring_random.h"
#include <stdlib.h>

int random(int max)
{
   d9fe4:	b510      	push	{r4, lr}
  if (0 == max) {
   d9fe6:	4604      	mov	r4, r0
   d9fe8:	b130      	cbz	r0, d9ff8 <_Z6randomi+0x14>
    return 0;
  }
  return rand() % max;
   d9fea:	f001 ff29 	bl	dbe40 <rand>
   d9fee:	fb90 f3f4 	sdiv	r3, r0, r4
   d9ff2:	fb03 0014 	mls	r0, r3, r4, r0
   d9ff6:	bd10      	pop	{r4, pc}
}
   d9ff8:	bd10      	pop	{r4, pc}

000d9ffa <_Z6randomii>:

int random(int min, int max)
{
  if (min >= max) {
   d9ffa:	4288      	cmp	r0, r1
  }
  return rand() % max;
}

int random(int min, int max)
{
   d9ffc:	b510      	push	{r4, lr}
   d9ffe:	4604      	mov	r4, r0
  if (min >= max) {
   da000:	da04      	bge.n	da00c <_Z6randomii+0x12>
    return min;
  }
  return random(max - min) + min;
   da002:	1a08      	subs	r0, r1, r0
   da004:	f7ff ffee 	bl	d9fe4 <_Z6randomi>
   da008:	4420      	add	r0, r4
   da00a:	bd10      	pop	{r4, pc}
}
   da00c:	bd10      	pop	{r4, pc}

000da00e <_ZN8RGBClassD1Ev>:
#include "rgbled.h"

typedef void (raw_rgb_change_handler_t)(uint8_t, uint8_t, uint8_t);
typedef std::function<raw_rgb_change_handler_t> wiring_rgb_change_handler_t;

class RGBClass {
   da00e:	b510      	push	{r4, lr}
   da010:	4604      	mov	r4, r0
   da012:	f7ff f981 	bl	d9318 <_ZNSt14_Function_baseD1Ev>
   da016:	4620      	mov	r0, r4
   da018:	bd10      	pop	{r4, pc}
	...

000da01c <_GLOBAL__sub_I_RGB>:
	{
	  _Base::_M_init_functor(__functor, std::__addressof(__f.get()));
	}
      };

    _Function_base() : _M_manager(nullptr) { }
   da01c:	4803      	ldr	r0, [pc, #12]	; (da02c <_GLOBAL__sub_I_RGB+0x10>)
#include "spark_wiring_rgb.h"
#include "spark_wiring_interrupts.h"

#include "core_hal.h"

RGBClass RGB;
   da01e:	4a04      	ldr	r2, [pc, #16]	; (da030 <_GLOBAL__sub_I_RGB+0x14>)
   da020:	4904      	ldr	r1, [pc, #16]	; (da034 <_GLOBAL__sub_I_RGB+0x18>)
   da022:	2300      	movs	r3, #0
   da024:	6083      	str	r3, [r0, #8]
   da026:	f001 b88d 	b.w	db144 <__aeabi_atexit>
   da02a:	bf00      	nop
   da02c:	2003e5c4 	.word	0x2003e5c4
   da030:	2003e12c 	.word	0x2003e12c
   da034:	000da00f 	.word	0x000da00f

000da038 <_ZN8SPIClassD1Ev>:
  Mutex mutex_;
#endif

public:
  SPIClass(HAL_SPI_Interface spi);
  virtual ~SPIClass() {};
   da038:	4770      	bx	lr

000da03a <_ZN8SPIClassD0Ev>:
   da03a:	b510      	push	{r4, lr}
   da03c:	4604      	mov	r4, r0
   da03e:	f7fa f82e 	bl	d409e <_ZdlPv>
   da042:	4620      	mov	r0, r4
   da044:	bd10      	pop	{r4, pc}
	...

000da048 <_ZN8SPIClassC1E17HAL_SPI_Interface>:
  if (!info->enabled || info->default_settings)
    return particle::__SPISettings();
  return particle::__SPISettings(info->clock, info->bit_order, info->data_mode);
}

SPIClass::SPIClass(HAL_SPI_Interface spi)
   da048:	b570      	push	{r4, r5, r6, lr}
   da04a:	4b08      	ldr	r3, [pc, #32]	; (da06c <_ZN8SPIClassC1E17HAL_SPI_Interface+0x24>)
   da04c:	6003      	str	r3, [r0, #0]
   da04e:	4604      	mov	r4, r0
    Mutex(os_mutex_t handle) : handle_(handle) {}

    /**
     * Creates a new mutex.
     */
    Mutex() : handle_(nullptr)
   da050:	2500      	movs	r5, #0
   da052:	460e      	mov	r6, r1
   da054:	f840 5f0c 	str.w	r5, [r0, #12]!
    {
        os_mutex_create(&handle_);
   da058:	f7fe fe1a 	bl	d8c90 <os_mutex_create>
{
  _spi = spi;
  HAL_SPI_Init(_spi);
   da05c:	4630      	mov	r0, r6
  return particle::__SPISettings(info->clock, info->bit_order, info->data_mode);
}

SPIClass::SPIClass(HAL_SPI_Interface spi)
{
  _spi = spi;
   da05e:	7126      	strb	r6, [r4, #4]
  HAL_SPI_Init(_spi);
   da060:	f7fe ffbe 	bl	d8fe0 <HAL_SPI_Init>
  dividerReference = SPI_CLK_SYSTEM;     // 0 indicates the system clock
   da064:	60a5      	str	r5, [r4, #8]
}
   da066:	4620      	mov	r0, r4
   da068:	bd70      	pop	{r4, r5, r6, pc}
   da06a:	bf00      	nop
   da06c:	000de1d0 	.word	0x000de1d0

000da070 <_ZN8SPIClass5beginEv>:

void SPIClass::begin()
{
    // todo - fetch default pin from HAL
  HAL_SPI_Begin(_spi, SPI_DEFAULT_SS);
   da070:	f64f 71ff 	movw	r1, #65535	; 0xffff
   da074:	7900      	ldrb	r0, [r0, #4]
   da076:	f7fe bf8b 	b.w	d8f90 <HAL_SPI_Begin>

000da07a <_ZN8SPIClass11setBitOrderEh>:
  HAL_SPI_End(_spi);
}

void SPIClass::setBitOrder(uint8_t bitOrder)
{
  HAL_SPI_Set_Bit_Order(_spi, bitOrder);
   da07a:	7900      	ldrb	r0, [r0, #4]
   da07c:	f7fe bf90 	b.w	d8fa0 <HAL_SPI_Set_Bit_Order>

000da080 <_ZN8SPIClass11setDataModeEh>:
}

void SPIClass::setDataMode(uint8_t mode)
{
  HAL_SPI_Set_Data_Mode(_spi, mode);
   da080:	7900      	ldrb	r0, [r0, #4]
   da082:	f7fe bf95 	b.w	d8fb0 <HAL_SPI_Set_Data_Mode>
	...

000da088 <_Z17divisorShiftScaleh>:
uint8_t divisorShiftScale(uint8_t divider)
{
    unsigned result = 0;
    for (; result<arraySize(clock_divisors); result++)
    {
        if (clock_divisors[result]==divider)
   da088:	4a05      	ldr	r2, [pc, #20]	; (da0a0 <_Z17divisorShiftScaleh+0x18>)
    SPI_CLOCK_DIV256
};

uint8_t divisorShiftScale(uint8_t divider)
{
    unsigned result = 0;
   da08a:	2300      	movs	r3, #0
    for (; result<arraySize(clock_divisors); result++)
    {
        if (clock_divisors[result]==divider)
   da08c:	5c99      	ldrb	r1, [r3, r2]
   da08e:	4281      	cmp	r1, r0
   da090:	d002      	beq.n	da098 <_Z17divisorShiftScaleh+0x10>
};

uint8_t divisorShiftScale(uint8_t divider)
{
    unsigned result = 0;
    for (; result<arraySize(clock_divisors); result++)
   da092:	3301      	adds	r3, #1
   da094:	2b08      	cmp	r3, #8
   da096:	d1f9      	bne.n	da08c <_Z17divisorShiftScaleh+0x4>
    {
        if (clock_divisors[result]==divider)
            break;
    }
    return result+1;
   da098:	1c58      	adds	r0, r3, #1
}
   da09a:	b2c0      	uxtb	r0, r0
   da09c:	4770      	bx	lr
   da09e:	bf00      	nop
   da0a0:	000de1d8 	.word	0x000de1d8

000da0a4 <_ZN8SPIClass19computeClockDividerEjjRhRj>:

void SPIClass::computeClockDivider(unsigned reference, unsigned targetSpeed, uint8_t& divider, unsigned& clock)
{
    clock = reference;
    uint8_t scale = 0;
    clock >>= 1;        // div2 is the first
   da0a4:	0840      	lsrs	r0, r0, #1
        HAL_SPI_Set_Clock_Divider(_spi, rate);
    }
}

void SPIClass::computeClockDivider(unsigned reference, unsigned targetSpeed, uint8_t& divider, unsigned& clock)
{
   da0a6:	b530      	push	{r4, r5, lr}
    clock = reference;
    uint8_t scale = 0;
    clock >>= 1;        // div2 is the first
   da0a8:	6018      	str	r0, [r3, #0]
   da0aa:	2400      	movs	r4, #0
    while (clock > targetSpeed && scale<7) {
   da0ac:	6818      	ldr	r0, [r3, #0]
   da0ae:	4288      	cmp	r0, r1
   da0b0:	b2e5      	uxtb	r5, r4
   da0b2:	d906      	bls.n	da0c2 <_ZN8SPIClass19computeClockDividerEjjRhRj+0x1e>
   da0b4:	3401      	adds	r4, #1
   da0b6:	2c08      	cmp	r4, #8
   da0b8:	d002      	beq.n	da0c0 <_ZN8SPIClass19computeClockDividerEjjRhRj+0x1c>
        clock >>= 1;
   da0ba:	0840      	lsrs	r0, r0, #1
   da0bc:	6018      	str	r0, [r3, #0]
void SPIClass::computeClockDivider(unsigned reference, unsigned targetSpeed, uint8_t& divider, unsigned& clock)
{
    clock = reference;
    uint8_t scale = 0;
    clock >>= 1;        // div2 is the first
    while (clock > targetSpeed && scale<7) {
   da0be:	e7f5      	b.n	da0ac <_ZN8SPIClass19computeClockDividerEjjRhRj+0x8>
   da0c0:	2507      	movs	r5, #7
        clock >>= 1;
        scale++;
    }
    divider = clock_divisors[scale];
   da0c2:	4b02      	ldr	r3, [pc, #8]	; (da0cc <_ZN8SPIClass19computeClockDividerEjjRhRj+0x28>)
   da0c4:	5d5b      	ldrb	r3, [r3, r5]
   da0c6:	7013      	strb	r3, [r2, #0]
   da0c8:	bd30      	pop	{r4, r5, pc}
   da0ca:	bf00      	nop
   da0cc:	000de1d8 	.word	0x000de1d8

000da0d0 <_ZN8SPIClass13setClockSpeedEjj>:
}

unsigned SPIClass::setClockSpeed(unsigned value, unsigned value_scale)
{
   da0d0:	b570      	push	{r4, r5, r6, lr}
   da0d2:	b088      	sub	sp, #32
    // actual speed is the system clock divided by some scalar
    unsigned targetSpeed = value*value_scale;
    hal_spi_info_t info;
    querySpiInfo(_spi, &info);
   da0d4:	7906      	ldrb	r6, [r0, #4]
}

unsigned SPIClass::setClockSpeed(unsigned value, unsigned value_scale)
{
    // actual speed is the system clock divided by some scalar
    unsigned targetSpeed = value*value_scale;
   da0d6:	fb02 f501 	mul.w	r5, r2, r1
    }
    divider = clock_divisors[scale];
}

unsigned SPIClass::setClockSpeed(unsigned value, unsigned value_scale)
{
   da0da:	4604      	mov	r4, r0
#include "core_hal.h"
#include "spark_macros.h"

static void querySpiInfo(HAL_SPI_Interface spi, hal_spi_info_t* info)
{
  memset(info, 0, sizeof(hal_spi_info_t));
   da0dc:	2214      	movs	r2, #20
   da0de:	2100      	movs	r1, #0
   da0e0:	a803      	add	r0, sp, #12
   da0e2:	f001 fea5 	bl	dbe30 <memset>
  info->version = HAL_SPI_INFO_VERSION_1;
   da0e6:	230b      	movs	r3, #11
  HAL_SPI_Info(spi, info, nullptr);
   da0e8:	a903      	add	r1, sp, #12
   da0ea:	4630      	mov	r0, r6
   da0ec:	2200      	movs	r2, #0
#include "spark_macros.h"

static void querySpiInfo(HAL_SPI_Interface spi, hal_spi_info_t* info)
{
  memset(info, 0, sizeof(hal_spi_info_t));
  info->version = HAL_SPI_INFO_VERSION_1;
   da0ee:	f8ad 300c 	strh.w	r3, [sp, #12]
  HAL_SPI_Info(spi, info, nullptr);
   da0f2:	f7fe ff85 	bl	d9000 <HAL_SPI_Info>
    unsigned targetSpeed = value*value_scale;
    hal_spi_info_t info;
    querySpiInfo(_spi, &info);
    uint8_t rate;
    unsigned clock;
    computeClockDivider(info.system_clock, targetSpeed, rate, clock);
   da0f6:	ab02      	add	r3, sp, #8
   da0f8:	f10d 0207 	add.w	r2, sp, #7
   da0fc:	4629      	mov	r1, r5
   da0fe:	9804      	ldr	r0, [sp, #16]
   da100:	f7ff ffd0 	bl	da0a4 <_ZN8SPIClass19computeClockDividerEjjRhRj>
    HAL_SPI_Set_Clock_Divider(_spi, rate);
   da104:	7920      	ldrb	r0, [r4, #4]
   da106:	f89d 1007 	ldrb.w	r1, [sp, #7]
   da10a:	f7fe ff59 	bl	d8fc0 <HAL_SPI_Set_Clock_Divider>
    return clock;
}
   da10e:	9802      	ldr	r0, [sp, #8]
   da110:	b008      	add	sp, #32
   da112:	bd70      	pop	{r4, r5, r6, pc}

000da114 <_ZN8SPIClass15setClockDividerEh>:
    }
    return result+1;
}

void SPIClass::setClockDivider(uint8_t rate)
{
   da114:	b538      	push	{r3, r4, r5, lr}
   da116:	4604      	mov	r4, r0
   da118:	4608      	mov	r0, r1
    if (dividerReference)
   da11a:	68a5      	ldr	r5, [r4, #8]
   da11c:	b14d      	cbz	r5, da132 <_ZN8SPIClass15setClockDividerEh+0x1e>
    {
        // determine the clock speed
        uint8_t scale = divisorShiftScale(rate);
   da11e:	f7ff ffb3 	bl	da088 <_Z17divisorShiftScaleh>
        unsigned targetSpeed = dividerReference>>scale;
        setClockSpeed(targetSpeed);
   da122:	2201      	movs	r2, #1
   da124:	fa25 f100 	lsr.w	r1, r5, r0
   da128:	4620      	mov	r0, r4
    }
    else
    {
        HAL_SPI_Set_Clock_Divider(_spi, rate);
    }
}
   da12a:	e8bd 4038 	ldmia.w	sp!, {r3, r4, r5, lr}
    if (dividerReference)
    {
        // determine the clock speed
        uint8_t scale = divisorShiftScale(rate);
        unsigned targetSpeed = dividerReference>>scale;
        setClockSpeed(targetSpeed);
   da12e:	f7ff bfcf 	b.w	da0d0 <_ZN8SPIClass13setClockSpeedEjj>
    }
    else
    {
        HAL_SPI_Set_Clock_Divider(_spi, rate);
   da132:	7920      	ldrb	r0, [r4, #4]
    }
}
   da134:	e8bd 4038 	ldmia.w	sp!, {r3, r4, r5, lr}
        unsigned targetSpeed = dividerReference>>scale;
        setClockSpeed(targetSpeed);
    }
    else
    {
        HAL_SPI_Set_Clock_Divider(_spi, rate);
   da138:	f7fe bf42 	b.w	d8fc0 <HAL_SPI_Set_Clock_Divider>

000da13c <_ZN8SPIClass8transferEh>:
    HAL_SPI_Set_Clock_Divider(_spi, rate);
    return clock;
}

byte SPIClass::transfer(byte _data)
{
   da13c:	b508      	push	{r3, lr}
  return HAL_SPI_Send_Receive_Data(_spi, _data);
   da13e:	7900      	ldrb	r0, [r0, #4]
   da140:	f7fe ff46 	bl	d8fd0 <HAL_SPI_Send_Receive_Data>
}
   da144:	b2c0      	uxtb	r0, r0
   da146:	bd08      	pop	{r3, pc}

000da148 <_ZN8SPIClass9isEnabledEv>:
  //To Do
}

bool SPIClass::isEnabled()
{
  return HAL_SPI_Is_Enabled(_spi);
   da148:	7900      	ldrb	r0, [r0, #4]
   da14a:	f7fe bf51 	b.w	d8ff0 <HAL_SPI_Is_Enabled>

000da14e <_ZN21StringPrintableHelperD1Ev>:
{
	if (buffer) return float(atof(buffer));
	return 0;
}

class StringPrintableHelper : public Print
   da14e:	4770      	bx	lr

000da150 <_ZN21StringPrintableHelperD0Ev>:
   da150:	b510      	push	{r4, lr}
   da152:	4604      	mov	r4, r0
   da154:	f7f9 ffa3 	bl	d409e <_ZdlPv>
   da158:	4620      	mov	r0, r4
   da15a:	bd10      	pop	{r4, pc}

000da15c <_ZN6StringD1Ev>:
	init();
	char buf[33];
	dtoa(value, decimalPlaces, buf);
        *this = buf;
}
String::~String()
   da15c:	b510      	push	{r4, lr}
   da15e:	4604      	mov	r4, r0
{
	free(buffer);
   da160:	6800      	ldr	r0, [r0, #0]
   da162:	f7ff f88d 	bl	d9280 <free>
}
   da166:	4620      	mov	r0, r4
   da168:	bd10      	pop	{r4, pc}

000da16a <_ZN6String10invalidateEv>:
	len = 0;
	flags = 0;
}

void String::invalidate(void)
{
   da16a:	b510      	push	{r4, lr}
   da16c:	4604      	mov	r4, r0
	if (buffer) free(buffer);
   da16e:	6800      	ldr	r0, [r0, #0]
   da170:	b108      	cbz	r0, da176 <_ZN6String10invalidateEv+0xc>
   da172:	f7ff f885 	bl	d9280 <free>
	buffer = NULL;
   da176:	2300      	movs	r3, #0
   da178:	6023      	str	r3, [r4, #0]
	capacity = len = 0;
   da17a:	60a3      	str	r3, [r4, #8]
   da17c:	6063      	str	r3, [r4, #4]
   da17e:	bd10      	pop	{r4, pc}

000da180 <_ZN6String12changeBufferEj>:
	}
	return 0;
}

unsigned char String::changeBuffer(unsigned int maxStrLen)
{
   da180:	b538      	push	{r3, r4, r5, lr}
   da182:	4604      	mov	r4, r0
   da184:	460d      	mov	r5, r1
	char *newbuffer = (char *)realloc(buffer, maxStrLen + 1);
   da186:	6800      	ldr	r0, [r0, #0]
   da188:	3101      	adds	r1, #1
   da18a:	f7ff f881 	bl	d9290 <realloc>
	if (newbuffer) {
   da18e:	b110      	cbz	r0, da196 <_ZN6String12changeBufferEj+0x16>
		buffer = newbuffer;
		capacity = maxStrLen;
   da190:	e884 0021 	stmia.w	r4, {r0, r5}
		return 1;
   da194:	2001      	movs	r0, #1
	}
	return 0;
}
   da196:	bd38      	pop	{r3, r4, r5, pc}

000da198 <_ZN6String7reserveEj>:
	buffer = NULL;
	capacity = len = 0;
}

unsigned char String::reserve(unsigned int size)
{
   da198:	b510      	push	{r4, lr}
	if (buffer && capacity >= size) return 1;
   da19a:	6803      	ldr	r3, [r0, #0]
	buffer = NULL;
	capacity = len = 0;
}

unsigned char String::reserve(unsigned int size)
{
   da19c:	4604      	mov	r4, r0
	if (buffer && capacity >= size) return 1;
   da19e:	b113      	cbz	r3, da1a6 <_ZN6String7reserveEj+0xe>
   da1a0:	6843      	ldr	r3, [r0, #4]
   da1a2:	428b      	cmp	r3, r1
   da1a4:	d207      	bcs.n	da1b6 <_ZN6String7reserveEj+0x1e>
	if (changeBuffer(size)) {
   da1a6:	4620      	mov	r0, r4
   da1a8:	f7ff ffea 	bl	da180 <_ZN6String12changeBufferEj>
   da1ac:	b120      	cbz	r0, da1b8 <_ZN6String7reserveEj+0x20>
		if (len == 0) buffer[0] = 0;
   da1ae:	68a3      	ldr	r3, [r4, #8]
   da1b0:	b90b      	cbnz	r3, da1b6 <_ZN6String7reserveEj+0x1e>
   da1b2:	6822      	ldr	r2, [r4, #0]
   da1b4:	7013      	strb	r3, [r2, #0]
   da1b6:	2001      	movs	r0, #1
		return 1;
	}
	return 0;
}
   da1b8:	bd10      	pop	{r4, pc}

000da1ba <_ZN6String4copyEPKcj>:
/*********************************************/
/*  Copy and Move                            */
/*********************************************/

String & String::copy(const char *cstr, unsigned int length)
{
   da1ba:	b570      	push	{r4, r5, r6, lr}
   da1bc:	460e      	mov	r6, r1
	if (!reserve(length)) {
   da1be:	4611      	mov	r1, r2
/*********************************************/
/*  Copy and Move                            */
/*********************************************/

String & String::copy(const char *cstr, unsigned int length)
{
   da1c0:	4604      	mov	r4, r0
   da1c2:	4615      	mov	r5, r2
	if (!reserve(length)) {
   da1c4:	f7ff ffe8 	bl	da198 <_ZN6String7reserveEj>
   da1c8:	b918      	cbnz	r0, da1d2 <_ZN6String4copyEPKcj+0x18>
		invalidate();
   da1ca:	4620      	mov	r0, r4
   da1cc:	f7ff ffcd 	bl	da16a <_ZN6String10invalidateEv>
		return *this;
   da1d0:	e009      	b.n	da1e6 <_ZN6String4copyEPKcj+0x2c>
	}
	len = length;
	memcpy(buffer, cstr, length);
   da1d2:	462a      	mov	r2, r5
   da1d4:	4631      	mov	r1, r6
{
	if (!reserve(length)) {
		invalidate();
		return *this;
	}
	len = length;
   da1d6:	60a5      	str	r5, [r4, #8]
	memcpy(buffer, cstr, length);
   da1d8:	6820      	ldr	r0, [r4, #0]
   da1da:	f001 fe1e 	bl	dbe1a <memcpy>
	buffer[len] = 0;
   da1de:	6822      	ldr	r2, [r4, #0]
   da1e0:	68a3      	ldr	r3, [r4, #8]
   da1e2:	2100      	movs	r1, #0
   da1e4:	54d1      	strb	r1, [r2, r3]
	return *this;
}
   da1e6:	4620      	mov	r0, r4
   da1e8:	bd70      	pop	{r4, r5, r6, pc}

000da1ea <_ZN6StringC1EPK19__FlashStringHelper>:
{
	init();
	*this = value;
}

String::String(const __FlashStringHelper *pstr)
   da1ea:	b538      	push	{r3, r4, r5, lr}
/*  Memory Management                        */
/*********************************************/

inline void String::init(void)
{
	buffer = NULL;
   da1ec:	2300      	movs	r3, #0
{
	init();
	*this = value;
}

String::String(const __FlashStringHelper *pstr)
   da1ee:	4604      	mov	r4, r0
/*  Memory Management                        */
/*********************************************/

inline void String::init(void)
{
	buffer = NULL;
   da1f0:	6003      	str	r3, [r0, #0]
	capacity = 0;
   da1f2:	6043      	str	r3, [r0, #4]
	len = 0;
   da1f4:	6083      	str	r3, [r0, #8]
	flags = 0;
   da1f6:	7303      	strb	r3, [r0, #12]

String::String(const __FlashStringHelper *pstr)
{
	init();
	const char* cstr = reinterpret_cast<const char*>(pstr);
	if (cstr) copy(cstr, strlen(cstr));
   da1f8:	460d      	mov	r5, r1
   da1fa:	b139      	cbz	r1, da20c <_ZN6StringC1EPK19__FlashStringHelper+0x22>
   da1fc:	4608      	mov	r0, r1
   da1fe:	f001 fe7c 	bl	dbefa <strlen>
   da202:	4629      	mov	r1, r5
   da204:	4602      	mov	r2, r0
   da206:	4620      	mov	r0, r4
   da208:	f7ff ffd7 	bl	da1ba <_ZN6String4copyEPKcj>
}
   da20c:	4620      	mov	r0, r4
   da20e:	bd38      	pop	{r3, r4, r5, pc}

000da210 <_ZN6String4moveERS_>:
    return copy(reinterpret_cast<const char*>(pstr), length);
}

#ifdef __GXX_EXPERIMENTAL_CXX0X__
void String::move(String &rhs)
{
   da210:	b538      	push	{r3, r4, r5, lr}
   da212:	4605      	mov	r5, r0
	if (buffer) {
   da214:	6800      	ldr	r0, [r0, #0]
    return copy(reinterpret_cast<const char*>(pstr), length);
}

#ifdef __GXX_EXPERIMENTAL_CXX0X__
void String::move(String &rhs)
{
   da216:	460c      	mov	r4, r1
	if (buffer) {
   da218:	b160      	cbz	r0, da234 <_ZN6String4moveERS_+0x24>
		if (capacity >= rhs.len) {
   da21a:	686a      	ldr	r2, [r5, #4]
   da21c:	688b      	ldr	r3, [r1, #8]
   da21e:	429a      	cmp	r2, r3
   da220:	d306      	bcc.n	da230 <_ZN6String4moveERS_+0x20>
			strcpy(buffer, rhs.buffer);
   da222:	6809      	ldr	r1, [r1, #0]
   da224:	f001 fe46 	bl	dbeb4 <strcpy>
			len = rhs.len;
   da228:	68a3      	ldr	r3, [r4, #8]
   da22a:	60ab      	str	r3, [r5, #8]
			rhs.len = 0;
   da22c:	2300      	movs	r3, #0
   da22e:	e00a      	b.n	da246 <_ZN6String4moveERS_+0x36>
			return;
		} else {
			free(buffer);
   da230:	f7ff f826 	bl	d9280 <free>
		}
	}
	buffer = rhs.buffer;
   da234:	6823      	ldr	r3, [r4, #0]
   da236:	602b      	str	r3, [r5, #0]
	capacity = rhs.capacity;
   da238:	6863      	ldr	r3, [r4, #4]
   da23a:	606b      	str	r3, [r5, #4]
	len = rhs.len;
   da23c:	68a3      	ldr	r3, [r4, #8]
   da23e:	60ab      	str	r3, [r5, #8]
	rhs.buffer = NULL;
   da240:	2300      	movs	r3, #0
   da242:	6023      	str	r3, [r4, #0]
	rhs.capacity = 0;
   da244:	6063      	str	r3, [r4, #4]
	rhs.len = 0;
   da246:	60a3      	str	r3, [r4, #8]
   da248:	bd38      	pop	{r3, r4, r5, pc}

000da24a <_ZN6StringaSERKS_>:
}
#endif

String & String::operator = (const String &rhs)
{
	if (this == &rhs) return *this;
   da24a:	4288      	cmp	r0, r1
	rhs.len = 0;
}
#endif

String & String::operator = (const String &rhs)
{
   da24c:	b510      	push	{r4, lr}
   da24e:	460b      	mov	r3, r1
   da250:	4604      	mov	r4, r0
	if (this == &rhs) return *this;
   da252:	d007      	beq.n	da264 <_ZN6StringaSERKS_+0x1a>

	if (rhs.buffer) copy(rhs.buffer, rhs.len);
   da254:	6809      	ldr	r1, [r1, #0]
   da256:	b119      	cbz	r1, da260 <_ZN6StringaSERKS_+0x16>
   da258:	689a      	ldr	r2, [r3, #8]
   da25a:	f7ff ffae 	bl	da1ba <_ZN6String4copyEPKcj>
   da25e:	e001      	b.n	da264 <_ZN6StringaSERKS_+0x1a>
	else invalidate();
   da260:	f7ff ff83 	bl	da16a <_ZN6String10invalidateEv>

	return *this;
}
   da264:	4620      	mov	r0, r4
   da266:	bd10      	pop	{r4, pc}

000da268 <_ZN6StringC1ERKS_>:
{
	init();
	if (cstr) copy(cstr, length);
}

String::String(const String &value)
   da268:	b510      	push	{r4, lr}
/*  Memory Management                        */
/*********************************************/

inline void String::init(void)
{
	buffer = NULL;
   da26a:	2300      	movs	r3, #0
{
	init();
	if (cstr) copy(cstr, length);
}

String::String(const String &value)
   da26c:	4604      	mov	r4, r0
/*  Memory Management                        */
/*********************************************/

inline void String::init(void)
{
	buffer = NULL;
   da26e:	6003      	str	r3, [r0, #0]
	capacity = 0;
   da270:	6043      	str	r3, [r0, #4]
	len = 0;
   da272:	6083      	str	r3, [r0, #8]
	flags = 0;
   da274:	7303      	strb	r3, [r0, #12]
}

String::String(const String &value)
{
	init();
	*this = value;
   da276:	f7ff ffe8 	bl	da24a <_ZN6StringaSERKS_>
}
   da27a:	4620      	mov	r0, r4
   da27c:	bd10      	pop	{r4, pc}

000da27e <_ZN6StringaSEOS_>:
}

#ifdef __GXX_EXPERIMENTAL_CXX0X__
String & String::operator = (String &&rval)
{
	if (this != &rval) move(rval);
   da27e:	4288      	cmp	r0, r1
    return *this;
}

#ifdef __GXX_EXPERIMENTAL_CXX0X__
String & String::operator = (String &&rval)
{
   da280:	b510      	push	{r4, lr}
   da282:	4604      	mov	r4, r0
	if (this != &rval) move(rval);
   da284:	d001      	beq.n	da28a <_ZN6StringaSEOS_+0xc>
   da286:	f7ff ffc3 	bl	da210 <_ZN6String4moveERS_>
	return *this;
}
   da28a:	4620      	mov	r0, r4
   da28c:	bd10      	pop	{r4, pc}

000da28e <_ZN6StringaSEPKc>:
	return *this;
}
#endif

String & String::operator = (const char *cstr)
{
   da28e:	b538      	push	{r3, r4, r5, lr}
   da290:	4605      	mov	r5, r0
	if (cstr) copy(cstr, strlen(cstr));
   da292:	460c      	mov	r4, r1
   da294:	b141      	cbz	r1, da2a8 <_ZN6StringaSEPKc+0x1a>
   da296:	4608      	mov	r0, r1
   da298:	f001 fe2f 	bl	dbefa <strlen>
   da29c:	4621      	mov	r1, r4
   da29e:	4602      	mov	r2, r0
   da2a0:	4628      	mov	r0, r5
   da2a2:	f7ff ff8a 	bl	da1ba <_ZN6String4copyEPKcj>
   da2a6:	e001      	b.n	da2ac <_ZN6StringaSEPKc+0x1e>
	else invalidate();
   da2a8:	f7ff ff5f 	bl	da16a <_ZN6String10invalidateEv>

	return *this;
}
   da2ac:	4628      	mov	r0, r5
   da2ae:	bd38      	pop	{r3, r4, r5, pc}

000da2b0 <_ZN6StringC1Eih>:
	char buf[9];
	utoa(value, buf, base);
	*this = buf;
}

String::String(int value, unsigned char base)
   da2b0:	b510      	push	{r4, lr}
   da2b2:	4604      	mov	r4, r0
/*  Memory Management                        */
/*********************************************/

inline void String::init(void)
{
	buffer = NULL;
   da2b4:	2300      	movs	r3, #0
	char buf[9];
	utoa(value, buf, base);
	*this = buf;
}

String::String(int value, unsigned char base)
   da2b6:	b08a      	sub	sp, #40	; 0x28
/*  Memory Management                        */
/*********************************************/

inline void String::init(void)
{
	buffer = NULL;
   da2b8:	6023      	str	r3, [r4, #0]
	capacity = 0;
   da2ba:	6063      	str	r3, [r4, #4]
	len = 0;
   da2bc:	60a3      	str	r3, [r4, #8]
	flags = 0;
   da2be:	7323      	strb	r3, [r4, #12]
	char buf[9];
	utoa(value, buf, base);
	*this = buf;
}

String::String(int value, unsigned char base)
   da2c0:	4608      	mov	r0, r1
{
	init();
	char buf[34];
	itoa(value, buf, base);
   da2c2:	a901      	add	r1, sp, #4
   da2c4:	f000 fdb0 	bl	dae28 <itoa>
	*this = buf;
   da2c8:	a901      	add	r1, sp, #4
   da2ca:	4620      	mov	r0, r4
   da2cc:	f7ff ffdf 	bl	da28e <_ZN6StringaSEPKc>
}
   da2d0:	4620      	mov	r0, r4
   da2d2:	b00a      	add	sp, #40	; 0x28
   da2d4:	bd10      	pop	{r4, pc}

000da2d6 <_ZN6StringC1Elh>:
	char buf[33];
	utoa(value, buf, base);
	*this = buf;
}

String::String(long value, unsigned char base)
   da2d6:	b510      	push	{r4, lr}
   da2d8:	4604      	mov	r4, r0
/*  Memory Management                        */
/*********************************************/

inline void String::init(void)
{
	buffer = NULL;
   da2da:	2300      	movs	r3, #0
	char buf[33];
	utoa(value, buf, base);
	*this = buf;
}

String::String(long value, unsigned char base)
   da2dc:	b08a      	sub	sp, #40	; 0x28
/*  Memory Management                        */
/*********************************************/

inline void String::init(void)
{
	buffer = NULL;
   da2de:	6023      	str	r3, [r4, #0]
	capacity = 0;
   da2e0:	6063      	str	r3, [r4, #4]
	len = 0;
   da2e2:	60a3      	str	r3, [r4, #8]
	flags = 0;
   da2e4:	7323      	strb	r3, [r4, #12]
	char buf[33];
	utoa(value, buf, base);
	*this = buf;
}

String::String(long value, unsigned char base)
   da2e6:	4608      	mov	r0, r1
{
	init();
	char buf[34];
	ltoa(value, buf, base);
   da2e8:	a901      	add	r1, sp, #4
   da2ea:	f000 fd36 	bl	dad5a <ltoa>
	*this = buf;
   da2ee:	a901      	add	r1, sp, #4
   da2f0:	4620      	mov	r0, r4
   da2f2:	f7ff ffcc 	bl	da28e <_ZN6StringaSEPKc>
}
   da2f6:	4620      	mov	r0, r4
   da2f8:	b00a      	add	sp, #40	; 0x28
   da2fa:	bd10      	pop	{r4, pc}

000da2fc <_ZN6String6concatEPKcj>:
{
	return concat(s.buffer, s.len);
}

unsigned char String::concat(const char *cstr, unsigned int length)
{
   da2fc:	b570      	push	{r4, r5, r6, lr}
   da2fe:	4604      	mov	r4, r0
	unsigned int newlen = len + length;
	if (!cstr) return 0;
   da300:	460e      	mov	r6, r1
   da302:	b909      	cbnz	r1, da308 <_ZN6String6concatEPKcj+0xc>
   da304:	2000      	movs	r0, #0
   da306:	bd70      	pop	{r4, r5, r6, pc}
	if (length == 0) return 1;
   da308:	b16a      	cbz	r2, da326 <_ZN6String6concatEPKcj+0x2a>
	return concat(s.buffer, s.len);
}

unsigned char String::concat(const char *cstr, unsigned int length)
{
	unsigned int newlen = len + length;
   da30a:	6883      	ldr	r3, [r0, #8]
   da30c:	18d5      	adds	r5, r2, r3
	if (!cstr) return 0;
	if (length == 0) return 1;
	if (!reserve(newlen)) return 0;
   da30e:	4629      	mov	r1, r5
   da310:	f7ff ff42 	bl	da198 <_ZN6String7reserveEj>
   da314:	2800      	cmp	r0, #0
   da316:	d0f5      	beq.n	da304 <_ZN6String6concatEPKcj+0x8>
	strcpy(buffer + len, cstr);
   da318:	6820      	ldr	r0, [r4, #0]
   da31a:	68a3      	ldr	r3, [r4, #8]
   da31c:	4631      	mov	r1, r6
   da31e:	4418      	add	r0, r3
   da320:	f001 fdc8 	bl	dbeb4 <strcpy>
	len = newlen;
   da324:	60a5      	str	r5, [r4, #8]

unsigned char String::concat(const char *cstr, unsigned int length)
{
	unsigned int newlen = len + length;
	if (!cstr) return 0;
	if (length == 0) return 1;
   da326:	2001      	movs	r0, #1
	if (!reserve(newlen)) return 0;
	strcpy(buffer + len, cstr);
	len = newlen;
	return 1;
}
   da328:	bd70      	pop	{r4, r5, r6, pc}

000da32a <_ZN21StringPrintableHelper5writeEPKhj>:

    StringPrintableHelper(String& s_) : s(s_) {
        s.reserve(20);
    }

    virtual size_t write(const uint8_t *buffer, size_t size) override
   da32a:	b538      	push	{r3, r4, r5, lr}
   da32c:	4604      	mov	r4, r0
    {
        unsigned len = s.length();
   da32e:	6880      	ldr	r0, [r0, #8]
   da330:	6885      	ldr	r5, [r0, #8]
        s.concat((const char*)buffer, size);
   da332:	f7ff ffe3 	bl	da2fc <_ZN6String6concatEPKcj>
   da336:	68a3      	ldr	r3, [r4, #8]
        return s.length()-len;
   da338:	6898      	ldr	r0, [r3, #8]
    }
   da33a:	1b40      	subs	r0, r0, r5
   da33c:	bd38      	pop	{r3, r4, r5, pc}

000da33e <_ZN6String6concatEc>:
unsigned char String::concat(const __FlashStringHelper * str) {
	return concat(reinterpret_cast<const char*>(str));
}

unsigned char String::concat(char c)
{
   da33e:	b507      	push	{r0, r1, r2, lr}
	char buf[2];
	buf[0] = c;
	buf[1] = 0;
   da340:	2300      	movs	r3, #0
}

unsigned char String::concat(char c)
{
	char buf[2];
	buf[0] = c;
   da342:	f88d 1004 	strb.w	r1, [sp, #4]
	buf[1] = 0;
	return concat(buf, 1);
   da346:	2201      	movs	r2, #1
   da348:	a901      	add	r1, sp, #4

unsigned char String::concat(char c)
{
	char buf[2];
	buf[0] = c;
	buf[1] = 0;
   da34a:	f88d 3005 	strb.w	r3, [sp, #5]
	return concat(buf, 1);
   da34e:	f7ff ffd5 	bl	da2fc <_ZN6String6concatEPKcj>
}
   da352:	b003      	add	sp, #12
   da354:	f85d fb04 	ldr.w	pc, [sp], #4

000da358 <_ZN21StringPrintableHelper5writeEh>:
        unsigned len = s.length();
        s.concat((const char*)buffer, size);
        return s.length()-len;
    }

    virtual size_t write(uint8_t c) override
   da358:	b508      	push	{r3, lr}
    {
        return s.concat((char)c);
   da35a:	6880      	ldr	r0, [r0, #8]
   da35c:	f7ff ffef 	bl	da33e <_ZN6String6concatEc>
    }
   da360:	bd08      	pop	{r3, pc}

000da362 <_ZplRK15StringSumHelperRK6String>:
/*********************************************/
/*  Concatenate                              */
/*********************************************/

StringSumHelper & operator + (const StringSumHelper &lhs, const String &rhs)
{
   da362:	b510      	push	{r4, lr}
	StringSumHelper &a = const_cast<StringSumHelper&>(lhs);
	if (!a.concat(rhs.buffer, rhs.len)) a.invalidate();
   da364:	688a      	ldr	r2, [r1, #8]
   da366:	6809      	ldr	r1, [r1, #0]
/*********************************************/
/*  Concatenate                              */
/*********************************************/

StringSumHelper & operator + (const StringSumHelper &lhs, const String &rhs)
{
   da368:	4604      	mov	r4, r0
	StringSumHelper &a = const_cast<StringSumHelper&>(lhs);
	if (!a.concat(rhs.buffer, rhs.len)) a.invalidate();
   da36a:	f7ff ffc7 	bl	da2fc <_ZN6String6concatEPKcj>
   da36e:	b910      	cbnz	r0, da376 <_ZplRK15StringSumHelperRK6String+0x14>
   da370:	4620      	mov	r0, r4
   da372:	f7ff fefa 	bl	da16a <_ZN6String10invalidateEv>
	return a;
}
   da376:	4620      	mov	r0, r4
   da378:	bd10      	pop	{r4, pc}

000da37a <_ZplRK15StringSumHelperPKc>:

StringSumHelper & operator + (const StringSumHelper &lhs, const char *cstr)
{
   da37a:	b538      	push	{r3, r4, r5, lr}
   da37c:	4604      	mov	r4, r0
	StringSumHelper &a = const_cast<StringSumHelper&>(lhs);
	if (!cstr || !a.concat(cstr, strlen(cstr))) a.invalidate();
   da37e:	460d      	mov	r5, r1
   da380:	b141      	cbz	r1, da394 <_ZplRK15StringSumHelperPKc+0x1a>
   da382:	4608      	mov	r0, r1
   da384:	f001 fdb9 	bl	dbefa <strlen>
   da388:	4629      	mov	r1, r5
   da38a:	4602      	mov	r2, r0
   da38c:	4620      	mov	r0, r4
   da38e:	f7ff ffb5 	bl	da2fc <_ZN6String6concatEPKcj>
   da392:	b910      	cbnz	r0, da39a <_ZplRK15StringSumHelperPKc+0x20>
   da394:	4620      	mov	r0, r4
   da396:	f7ff fee8 	bl	da16a <_ZN6String10invalidateEv>
	return a;
}
   da39a:	4620      	mov	r0, r4
   da39c:	bd38      	pop	{r3, r4, r5, pc}

000da39e <_ZNK6String8getBytesEPhjj>:
	if (index >= len || !buffer) return 0;
	return buffer[index];
}

void String::getBytes(unsigned char *buf, unsigned int bufsize, unsigned int index) const
{
   da39e:	b570      	push	{r4, r5, r6, lr}
   da3a0:	460e      	mov	r6, r1
	if (!bufsize || !buf) return;
   da3a2:	b19a      	cbz	r2, da3cc <_ZNK6String8getBytesEPhjj+0x2e>
   da3a4:	b191      	cbz	r1, da3cc <_ZNK6String8getBytesEPhjj+0x2e>
	if (index >= len) {
   da3a6:	6885      	ldr	r5, [r0, #8]
   da3a8:	429d      	cmp	r5, r3
   da3aa:	d802      	bhi.n	da3b2 <_ZNK6String8getBytesEPhjj+0x14>
		buf[0] = 0;
   da3ac:	2300      	movs	r3, #0
   da3ae:	700b      	strb	r3, [r1, #0]
		return;
   da3b0:	bd70      	pop	{r4, r5, r6, pc}
	}
	unsigned int n = bufsize - 1;
   da3b2:	1e54      	subs	r4, r2, #1
	if (n > len - index) n = len - index;
   da3b4:	1aed      	subs	r5, r5, r3
	strncpy((char *)buf, buffer + index, n);
   da3b6:	6801      	ldr	r1, [r0, #0]
   da3b8:	42ac      	cmp	r4, r5
   da3ba:	bf28      	it	cs
   da3bc:	462c      	movcs	r4, r5
   da3be:	4419      	add	r1, r3
   da3c0:	4622      	mov	r2, r4
   da3c2:	4630      	mov	r0, r6
   da3c4:	f001 fdb6 	bl	dbf34 <strncpy>
	buf[n] = 0;
   da3c8:	2300      	movs	r3, #0
   da3ca:	5533      	strb	r3, [r6, r4]
   da3cc:	bd70      	pop	{r4, r5, r6, pc}
	...

000da3d0 <_ZN6StringC1ERK9Printable>:
    {
        return s.concat((char)c);
    }
};

String::String(const Printable& printable)
   da3d0:	b530      	push	{r4, r5, lr}
   da3d2:	b085      	sub	sp, #20
/*  Memory Management                        */
/*********************************************/

inline void String::init(void)
{
	buffer = NULL;
   da3d4:	2300      	movs	r3, #0
    {
        return s.concat((char)c);
    }
};

String::String(const Printable& printable)
   da3d6:	460d      	mov	r5, r1
  protected:
    void setWriteError(int err = 1) { write_error = err; }
    size_t printf_impl(bool newline, const char* format, ...);

  public:
    Print() : write_error(0) {}
   da3d8:	9302      	str	r3, [sp, #8]
/*  Memory Management                        */
/*********************************************/

inline void String::init(void)
{
	buffer = NULL;
   da3da:	6003      	str	r3, [r0, #0]
	capacity = 0;
   da3dc:	6043      	str	r3, [r0, #4]
	len = 0;
   da3de:	6083      	str	r3, [r0, #8]
	flags = 0;
   da3e0:	7303      	strb	r3, [r0, #12]
    String& s;

public:

    StringPrintableHelper(String& s_) : s(s_) {
        s.reserve(20);
   da3e2:	2114      	movs	r1, #20
{
    String& s;

public:

    StringPrintableHelper(String& s_) : s(s_) {
   da3e4:	4b06      	ldr	r3, [pc, #24]	; (da400 <_ZN6StringC1ERK9Printable+0x30>)
   da3e6:	9301      	str	r3, [sp, #4]
    {
        return s.concat((char)c);
    }
};

String::String(const Printable& printable)
   da3e8:	4604      	mov	r4, r0
{
    String& s;

public:

    StringPrintableHelper(String& s_) : s(s_) {
   da3ea:	9003      	str	r0, [sp, #12]
        s.reserve(20);
   da3ec:	f7ff fed4 	bl	da198 <_ZN6String7reserveEj>

String::String(const Printable& printable)
{
    init();
    StringPrintableHelper help(*this);
    printable.printTo(help);
   da3f0:	682b      	ldr	r3, [r5, #0]
   da3f2:	a901      	add	r1, sp, #4
   da3f4:	681b      	ldr	r3, [r3, #0]
   da3f6:	4628      	mov	r0, r5
   da3f8:	4798      	blx	r3
}
   da3fa:	4620      	mov	r0, r4
   da3fc:	b005      	add	sp, #20
   da3fe:	bd30      	pop	{r4, r5, pc}
   da400:	000de1e8 	.word	0x000de1e8

000da404 <_GLOBAL__sub_I_System>:
    WAKEUP_REASON_RTC = 2,
    WAKEUP_REASON_PIN_OR_RTC = 3
};

struct SleepResult {
    SleepResult() {}
   da404:	4b05      	ldr	r3, [pc, #20]	; (da41c <_GLOBAL__sub_I_System+0x18>)
   da406:	f64f 729c 	movw	r2, #65436	; 0xff9c
   da40a:	2000      	movs	r0, #0
   da40c:	805a      	strh	r2, [r3, #2]
   da40e:	f64f 72ff 	movw	r2, #65535	; 0xffff
   da412:	7018      	strb	r0, [r3, #0]
   da414:	809a      	strh	r2, [r3, #4]

class SystemClass {
public:

    SystemClass(System_Mode_TypeDef mode = DEFAULT) {
        set_system_mode(mode);
   da416:	f7fe be83 	b.w	d9120 <set_system_mode>
   da41a:	bf00      	nop
   da41c:	2003e5d4 	.word	0x2003e5d4

000da420 <_GLOBAL__sub_I_TIME_FORMAT_DEFAULT>:
            calendar_time_cache = Convert_UnixTime_To_CalendarTime(unix_time);
            unix_time_cache = unix_time;
    }
}

const char* TimeClass::format_spec = TIME_FORMAT_DEFAULT;
   da420:	4b02      	ldr	r3, [pc, #8]	; (da42c <_GLOBAL__sub_I_TIME_FORMAT_DEFAULT+0xc>)
   da422:	681a      	ldr	r2, [r3, #0]
   da424:	4b02      	ldr	r3, [pc, #8]	; (da430 <_GLOBAL__sub_I_TIME_FORMAT_DEFAULT+0x10>)
   da426:	601a      	str	r2, [r3, #0]
   da428:	4770      	bx	lr
   da42a:	bf00      	nop
   da42c:	2003e0c4 	.word	0x2003e0c4
   da430:	2003e5dc 	.word	0x2003e5dc

000da434 <tone>:

#include "spark_wiring_tone.h"
#include "tone_hal.h"

void tone(uint8_t pin, unsigned int frequency, unsigned long duration)
{
   da434:	b5f8      	push	{r3, r4, r5, r6, r7, lr}
    if (pinAvailable(pin) && HAL_Validate_Pin_Function(pin, PF_TIMER)==PF_TIMER) {
   da436:	b285      	uxth	r5, r0

#include "spark_wiring_tone.h"
#include "tone_hal.h"

void tone(uint8_t pin, unsigned int frequency, unsigned long duration)
{
   da438:	4604      	mov	r4, r0
    if (pinAvailable(pin) && HAL_Validate_Pin_Function(pin, PF_TIMER)==PF_TIMER) {
   da43a:	4628      	mov	r0, r5

#include "spark_wiring_tone.h"
#include "tone_hal.h"

void tone(uint8_t pin, unsigned int frequency, unsigned long duration)
{
   da43c:	460e      	mov	r6, r1
   da43e:	4617      	mov	r7, r2
    if (pinAvailable(pin) && HAL_Validate_Pin_Function(pin, PF_TIMER)==PF_TIMER) {
   da440:	f000 fd68 	bl	daf14 <pinAvailable>
   da444:	b160      	cbz	r0, da460 <tone+0x2c>
   da446:	2102      	movs	r1, #2
   da448:	4628      	mov	r0, r5
   da44a:	f7fe fc61 	bl	d8d10 <HAL_Validate_Pin_Function>
   da44e:	2802      	cmp	r0, #2
   da450:	d106      	bne.n	da460 <tone+0x2c>
        HAL_Tone_Start(pin, frequency, duration);
   da452:	463a      	mov	r2, r7
   da454:	4631      	mov	r1, r6
   da456:	4620      	mov	r0, r4
    }
}
   da458:	e8bd 40f8 	ldmia.w	sp!, {r3, r4, r5, r6, r7, lr}
#include "tone_hal.h"

void tone(uint8_t pin, unsigned int frequency, unsigned long duration)
{
    if (pinAvailable(pin) && HAL_Validate_Pin_Function(pin, PF_TIMER)==PF_TIMER) {
        HAL_Tone_Start(pin, frequency, duration);
   da45c:	f7fe bd58 	b.w	d8f10 <HAL_Tone_Start>
   da460:	bdf8      	pop	{r3, r4, r5, r6, r7, pc}

000da462 <noTone>:
    }
}

void noTone(uint8_t pin)
{
   da462:	b538      	push	{r3, r4, r5, lr}
    if (pinAvailable(pin) && HAL_Validate_Pin_Function(pin, PF_TIMER)==PF_TIMER) {
   da464:	b285      	uxth	r5, r0
        HAL_Tone_Start(pin, frequency, duration);
    }
}

void noTone(uint8_t pin)
{
   da466:	4604      	mov	r4, r0
    if (pinAvailable(pin) && HAL_Validate_Pin_Function(pin, PF_TIMER)==PF_TIMER) {
   da468:	4628      	mov	r0, r5
   da46a:	f000 fd53 	bl	daf14 <pinAvailable>
   da46e:	b150      	cbz	r0, da486 <noTone+0x24>
   da470:	2102      	movs	r1, #2
   da472:	4628      	mov	r0, r5
   da474:	f7fe fc4c 	bl	d8d10 <HAL_Validate_Pin_Function>
   da478:	2802      	cmp	r0, #2
   da47a:	d104      	bne.n	da486 <noTone+0x24>
        HAL_Tone_Stop(pin);
   da47c:	4620      	mov	r0, r4
    }
}
   da47e:	e8bd 4038 	ldmia.w	sp!, {r3, r4, r5, lr}
}

void noTone(uint8_t pin)
{
    if (pinAvailable(pin) && HAL_Validate_Pin_Function(pin, PF_TIMER)==PF_TIMER) {
        HAL_Tone_Stop(pin);
   da482:	f7fe bd4d 	b.w	d8f20 <HAL_Tone_Stop>
   da486:	bd38      	pop	{r3, r4, r5, pc}

000da488 <_ZN3UDP13receivePacketEPcj>:
     * @param buffer        The buffer to read data to
     * @param buf_size      The buffer size
     * @return The number of bytes written to the buffer, or a negative value on error.
     */
    virtual int receivePacket(uint8_t* buffer, size_t buf_size);
    virtual int receivePacket(char* buffer, size_t buf_size) { return receivePacket((uint8_t*)buffer, buf_size); }
   da488:	6803      	ldr	r3, [r0, #0]
   da48a:	6b1b      	ldr	r3, [r3, #48]	; 0x30
   da48c:	4718      	bx	r3

000da48e <_ZN3UDP4readEPcj>:
     * @return
     */
    virtual int read();
    virtual int read(unsigned char* buffer, size_t len);

    virtual int read(char* buffer, size_t len) { return read((unsigned char*)buffer, len); };
   da48e:	6803      	ldr	r3, [r0, #0]
   da490:	6c9b      	ldr	r3, [r3, #72]	; 0x48
   da492:	4718      	bx	r3

000da494 <_ZN3UDP10remotePortEv>:
    void flush_buffer();

    const uint8_t* buffer() const { return _buffer; }

    virtual IPAddress remoteIP() { return _remoteIP; };
    virtual uint16_t remotePort() { return _remotePort; };
   da494:	8e80      	ldrh	r0, [r0, #52]	; 0x34
   da496:	4770      	bx	lr

000da498 <_ZN3UDP9availableEv>:
    }
    return bound;
}

int UDP::available() {
    return _total - _offset;
   da498:	8f02      	ldrh	r2, [r0, #56]	; 0x38
   da49a:	8ec0      	ldrh	r0, [r0, #54]	; 0x36
}
   da49c:	1a10      	subs	r0, r2, r0
   da49e:	4770      	bx	lr

000da4a0 <_ZN3UDP5writeEh>:
    }

    return sock_sendto(_sock, buffer, buffer_size, 0, (const struct sockaddr*)&s, sizeof(s));
}

size_t UDP::write(uint8_t byte) {
   da4a0:	b513      	push	{r0, r1, r4, lr}
   da4a2:	ab02      	add	r3, sp, #8
    return write(&byte, 1);
   da4a4:	6802      	ldr	r2, [r0, #0]
    }

    return sock_sendto(_sock, buffer, buffer_size, 0, (const struct sockaddr*)&s, sizeof(s));
}

size_t UDP::write(uint8_t byte) {
   da4a6:	f803 1d01 	strb.w	r1, [r3, #-1]!
    return write(&byte, 1);
   da4aa:	68d4      	ldr	r4, [r2, #12]
   da4ac:	4619      	mov	r1, r3
   da4ae:	2201      	movs	r2, #1
   da4b0:	47a0      	blx	r4
}
   da4b2:	b002      	add	sp, #8
   da4b4:	bd10      	pop	{r4, pc}

000da4b6 <_ZN3UDP4readEv>:
        }
    }
    return ret;
}

int UDP::read() {
   da4b6:	b510      	push	{r4, lr}
    return available() ? _buffer[_offset++] : -1;
   da4b8:	6803      	ldr	r3, [r0, #0]
   da4ba:	691b      	ldr	r3, [r3, #16]
        }
    }
    return ret;
}

int UDP::read() {
   da4bc:	4604      	mov	r4, r0
    return available() ? _buffer[_offset++] : -1;
   da4be:	4798      	blx	r3
   da4c0:	b128      	cbz	r0, da4ce <_ZN3UDP4readEv+0x18>
   da4c2:	8ee3      	ldrh	r3, [r4, #54]	; 0x36
   da4c4:	6be2      	ldr	r2, [r4, #60]	; 0x3c
   da4c6:	1c59      	adds	r1, r3, #1
   da4c8:	86e1      	strh	r1, [r4, #54]	; 0x36
   da4ca:	5cd0      	ldrb	r0, [r2, r3]
   da4cc:	bd10      	pop	{r4, pc}
   da4ce:	f04f 30ff 	mov.w	r0, #4294967295	; 0xffffffff
}
   da4d2:	bd10      	pop	{r4, pc}

000da4d4 <_ZN3UDP4peekEv>:
        _offset += read;
    }
    return read;
}

int UDP::peek() {
   da4d4:	b510      	push	{r4, lr}
    return available() ? _buffer[_offset] : -1;
   da4d6:	6803      	ldr	r3, [r0, #0]
   da4d8:	691b      	ldr	r3, [r3, #16]
        _offset += read;
    }
    return read;
}

int UDP::peek() {
   da4da:	4604      	mov	r4, r0
    return available() ? _buffer[_offset] : -1;
   da4dc:	4798      	blx	r3
   da4de:	b118      	cbz	r0, da4e8 <_ZN3UDP4peekEv+0x14>
   da4e0:	8ee3      	ldrh	r3, [r4, #54]	; 0x36
   da4e2:	6be2      	ldr	r2, [r4, #60]	; 0x3c
   da4e4:	5cd0      	ldrb	r0, [r2, r3]
   da4e6:	bd10      	pop	{r4, pc}
   da4e8:	f04f 30ff 	mov.w	r0, #4294967295	; 0xffffffff
}
   da4ec:	bd10      	pop	{r4, pc}

000da4ee <_ZN3UDP5flushEv>:

void UDP::flush() {
   da4ee:	4770      	bx	lr

000da4f0 <_ZNK3UDP7printToER5Print>:
void UDP::flush_buffer() {
    _offset = 0;
    _total = 0;
}

size_t UDP::printTo(Print& p) const {
   da4f0:	b410      	push	{r4}
   da4f2:	4603      	mov	r3, r0
   da4f4:	4608      	mov	r0, r1
    // can't use available() since this is a `const` method, and available is part of the Stream interface, and is non-const.
    int size = _total - _offset;
    return p.write(_buffer + _offset, size);
   da4f6:	6bdc      	ldr	r4, [r3, #60]	; 0x3c
    _total = 0;
}

size_t UDP::printTo(Print& p) const {
    // can't use available() since this is a `const` method, and available is part of the Stream interface, and is non-const.
    int size = _total - _offset;
   da4f8:	8ed9      	ldrh	r1, [r3, #54]	; 0x36
    return p.write(_buffer + _offset, size);
   da4fa:	8f1a      	ldrh	r2, [r3, #56]	; 0x38
   da4fc:	6803      	ldr	r3, [r0, #0]
   da4fe:	1a52      	subs	r2, r2, r1
   da500:	68db      	ldr	r3, [r3, #12]
   da502:	4421      	add	r1, r4
}
   da504:	f85d 4b04 	ldr.w	r4, [sp], #4
}

size_t UDP::printTo(Print& p) const {
    // can't use available() since this is a `const` method, and available is part of the Stream interface, and is non-const.
    int size = _total - _offset;
    return p.write(_buffer + _offset, size);
   da508:	4718      	bx	r3

000da50a <_ZThn16_NK3UDP7printToER5Print>:
    /**
     * Prints the current read parsed packet to the given output.
     * @param p
     * @return
     */
    virtual size_t printTo(Print& p) const;
   da50a:	f1a0 0010 	sub.w	r0, r0, #16
   da50e:	f7ff bfef 	b.w	da4f0 <_ZNK3UDP7printToER5Print>

000da512 <_ZN3UDP5beginEtm>:
    _buffer_allocated = false;
    _buffer_size = 0;
    flush_buffer(); // clear buffer
}

uint8_t UDP::begin(uint16_t port, network_interface_t nif) {
   da512:	e92d 41f0 	stmdb	sp!, {r4, r5, r6, r7, r8, lr}
    stop();
   da516:	6803      	ldr	r3, [r0, #0]
    _buffer_allocated = false;
    _buffer_size = 0;
    flush_buffer(); // clear buffer
}

uint8_t UDP::begin(uint16_t port, network_interface_t nif) {
   da518:	b08c      	sub	sp, #48	; 0x30
    stop();
   da51a:	6a5b      	ldr	r3, [r3, #36]	; 0x24

    bool bound = false;
    const int one = 1;

#if HAL_IPv6
    struct sockaddr_in6 saddr = {};
   da51c:	261c      	movs	r6, #28
    _buffer_allocated = false;
    _buffer_size = 0;
    flush_buffer(); // clear buffer
}

uint8_t UDP::begin(uint16_t port, network_interface_t nif) {
   da51e:	4604      	mov	r4, r0
   da520:	4688      	mov	r8, r1
   da522:	4615      	mov	r5, r2
    stop();
   da524:	4798      	blx	r3

    bool bound = false;
    const int one = 1;
   da526:	2301      	movs	r3, #1

#if HAL_IPv6
    struct sockaddr_in6 saddr = {};
   da528:	4632      	mov	r2, r6
   da52a:	2100      	movs	r1, #0
   da52c:	a805      	add	r0, sp, #20

uint8_t UDP::begin(uint16_t port, network_interface_t nif) {
    stop();

    bool bound = false;
    const int one = 1;
   da52e:	9302      	str	r3, [sp, #8]

#if HAL_IPv6
    struct sockaddr_in6 saddr = {};
    saddr.sin6_len = sizeof(saddr);
    saddr.sin6_family = AF_INET6;
   da530:	270a      	movs	r7, #10

    bool bound = false;
    const int one = 1;

#if HAL_IPv6
    struct sockaddr_in6 saddr = {};
   da532:	f001 fc7d 	bl	dbe30 <memset>
    saddr.sin6_len = sizeof(saddr);
    saddr.sin6_family = AF_INET6;
    saddr.sin6_port = htons(port);
   da536:	4640      	mov	r0, r8
    bool bound = false;
    const int one = 1;

#if HAL_IPv6
    struct sockaddr_in6 saddr = {};
    saddr.sin6_len = sizeof(saddr);
   da538:	f88d 6014 	strb.w	r6, [sp, #20]
    saddr.sin6_family = AF_INET6;
   da53c:	f88d 7015 	strb.w	r7, [sp, #21]
    saddr.sin6_port = htons(port);
   da540:	f7fe fcce 	bl	d8ee0 <inet_htons>
    saddr.sin_port = htons(port);
    saddr.sin_addr.s_addr = INADDR_ANY;
#endif // HAL_IPv6

    // Create socket
    _sock = sock_socket(HAL_IPv6 ? AF_INET6 : AF_INET, SOCK_DGRAM, IPPROTO_UDP);
   da544:	2211      	movs	r2, #17

#if HAL_IPv6
    struct sockaddr_in6 saddr = {};
    saddr.sin6_len = sizeof(saddr);
    saddr.sin6_family = AF_INET6;
    saddr.sin6_port = htons(port);
   da546:	f8ad 0016 	strh.w	r0, [sp, #22]
    saddr.sin_port = htons(port);
    saddr.sin_addr.s_addr = INADDR_ANY;
#endif // HAL_IPv6

    // Create socket
    _sock = sock_socket(HAL_IPv6 ? AF_INET6 : AF_INET, SOCK_DGRAM, IPPROTO_UDP);
   da54a:	2102      	movs	r1, #2
   da54c:	4638      	mov	r0, r7
   da54e:	f7fe fd17 	bl	d8f80 <sock_socket>

    if (_sock < 0) {
   da552:	2800      	cmp	r0, #0
    saddr.sin_port = htons(port);
    saddr.sin_addr.s_addr = INADDR_ANY;
#endif // HAL_IPv6

    // Create socket
    _sock = sock_socket(HAL_IPv6 ? AF_INET6 : AF_INET, SOCK_DGRAM, IPPROTO_UDP);
   da554:	6160      	str	r0, [r4, #20]

    if (_sock < 0) {
   da556:	db24      	blt.n	da5a2 <_ZN3UDP5beginEtm+0x90>
        goto done;
    }

    if (sock_setsockopt(_sock, SOL_SOCKET, SO_REUSEADDR, &one, sizeof(one))) {
   da558:	2204      	movs	r2, #4
   da55a:	9200      	str	r2, [sp, #0]
   da55c:	ab02      	add	r3, sp, #8
   da55e:	f640 71ff 	movw	r1, #4095	; 0xfff
   da562:	f7fe fced 	bl	d8f40 <sock_setsockopt>
   da566:	b9e0      	cbnz	r0, da5a2 <_ZN3UDP5beginEtm+0x90>
        goto done;
    }

    // Bind socket
    if (sock_bind(_sock, (const struct sockaddr*)&saddr, sizeof(saddr))) {
   da568:	4632      	mov	r2, r6
   da56a:	a905      	add	r1, sp, #20
   da56c:	6960      	ldr	r0, [r4, #20]
   da56e:	f7fe fcdf 	bl	d8f30 <sock_bind>
   da572:	b9b0      	cbnz	r0, da5a2 <_ZN3UDP5beginEtm+0x90>
        goto done;
    }

#if HAL_PLATFORM_IFAPI
    // TODO: provide compatibility headers and use if_indextoname()
    if (nif != 0) {
   da574:	b195      	cbz	r5, da59c <_ZN3UDP5beginEtm+0x8a>
        struct ifreq ifr = {};
   da576:	9003      	str	r0, [sp, #12]
   da578:	f8ad 0010 	strh.w	r0, [sp, #16]
        if (if_index_to_name(nif, ifr.ifr_name)) {
   da57c:	a903      	add	r1, sp, #12
   da57e:	b2e8      	uxtb	r0, r5
   da580:	f7fe fc76 	bl	d8e70 <if_index_to_name>
   da584:	b968      	cbnz	r0, da5a2 <_ZN3UDP5beginEtm+0x90>
            goto done;
        }
        if (sock_setsockopt(_sock, SOL_SOCKET, SO_BINDTODEVICE, &ifr, sizeof(ifr))) {
   da586:	2306      	movs	r3, #6
   da588:	9300      	str	r3, [sp, #0]
   da58a:	f241 020b 	movw	r2, #4107	; 0x100b
   da58e:	ab03      	add	r3, sp, #12
   da590:	f640 71ff 	movw	r1, #4095	; 0xfff
   da594:	6960      	ldr	r0, [r4, #20]
   da596:	f7fe fcd3 	bl	d8f40 <sock_setsockopt>
   da59a:	b910      	cbnz	r0, da5a2 <_ZN3UDP5beginEtm+0x90>
            goto done;
        }
    }
#endif // HAL_PLATFORM_IFAPI

    _nif = nif;
   da59c:	6465      	str	r5, [r4, #68]	; 0x44

    bound = true;
   da59e:	2001      	movs	r0, #1
   da5a0:	e004      	b.n	da5ac <_ZN3UDP5beginEtm+0x9a>

done:
    if (!bound) {
        stop();
   da5a2:	6823      	ldr	r3, [r4, #0]
   da5a4:	4620      	mov	r0, r4
   da5a6:	6a5b      	ldr	r3, [r3, #36]	; 0x24
   da5a8:	4798      	blx	r3
   da5aa:	2000      	movs	r0, #0
    }
    return bound;
}
   da5ac:	b00c      	add	sp, #48	; 0x30
   da5ae:	e8bd 81f0 	ldmia.w	sp!, {r4, r5, r6, r7, r8, pc}

000da5b2 <_ZN3UDP4stopEv>:

int UDP::available() {
    return _total - _offset;
}

void UDP::stop() {
   da5b2:	b510      	push	{r4, lr}
   da5b4:	4604      	mov	r4, r0
    if (isOpen(_sock)) {
   da5b6:	6940      	ldr	r0, [r0, #20]
   da5b8:	2800      	cmp	r0, #0
   da5ba:	db01      	blt.n	da5c0 <_ZN3UDP4stopEv+0xe>
        sock_close(_sock);
   da5bc:	f7fe fcc8 	bl	d8f50 <sock_close>
    }

    _sock = -1;
   da5c0:	f04f 33ff 	mov.w	r3, #4294967295	; 0xffffffff
   da5c4:	6163      	str	r3, [r4, #20]

void UDP::flush() {
}

void UDP::flush_buffer() {
    _offset = 0;
   da5c6:	2300      	movs	r3, #0
   da5c8:	86e3      	strh	r3, [r4, #54]	; 0x36
    _total = 0;
   da5ca:	8723      	strh	r3, [r4, #56]	; 0x38
   da5cc:	bd10      	pop	{r4, pc}

000da5ce <_ZN3UDP5writeEPKhj>:

size_t UDP::write(uint8_t byte) {
    return write(&byte, 1);
}

size_t UDP::write(const uint8_t *buffer, size_t size) {
   da5ce:	b538      	push	{r3, r4, r5, lr}
    size_t available = _buffer ? _buffer_size - _offset : 0;
   da5d0:	6bc3      	ldr	r3, [r0, #60]	; 0x3c

size_t UDP::write(uint8_t byte) {
    return write(&byte, 1);
}

size_t UDP::write(const uint8_t *buffer, size_t size) {
   da5d2:	4605      	mov	r5, r0
   da5d4:	8ec0      	ldrh	r0, [r0, #54]	; 0x36
    size_t available = _buffer ? _buffer_size - _offset : 0;
   da5d6:	b113      	cbz	r3, da5de <_ZN3UDP5writeEPKhj+0x10>
   da5d8:	6c2c      	ldr	r4, [r5, #64]	; 0x40
   da5da:	1a24      	subs	r4, r4, r0
   da5dc:	e000      	b.n	da5e0 <_ZN3UDP5writeEPKhj+0x12>
   da5de:	461c      	mov	r4, r3
   da5e0:	4294      	cmp	r4, r2
   da5e2:	bf28      	it	cs
   da5e4:	4614      	movcs	r4, r2
    if (size > available) {
        size = available;
    }
    memcpy(_buffer + _offset, buffer, size);
   da5e6:	4622      	mov	r2, r4
   da5e8:	4418      	add	r0, r3
   da5ea:	f001 fc16 	bl	dbe1a <memcpy>
    _offset += size;
   da5ee:	8eeb      	ldrh	r3, [r5, #54]	; 0x36
   da5f0:	4423      	add	r3, r4
   da5f2:	86eb      	strh	r3, [r5, #54]	; 0x36
    return size;
}
   da5f4:	4620      	mov	r0, r4
   da5f6:	bd38      	pop	{r3, r4, r5, pc}

000da5f8 <_ZN3UDP4readEPhj>:

int UDP::read() {
    return available() ? _buffer[_offset++] : -1;
}

int UDP::read(unsigned char* buffer, size_t len) {
   da5f8:	b570      	push	{r4, r5, r6, lr}
    int read = -1;
    if (available()) {
   da5fa:	6803      	ldr	r3, [r0, #0]
   da5fc:	691b      	ldr	r3, [r3, #16]

int UDP::read() {
    return available() ? _buffer[_offset++] : -1;
}

int UDP::read(unsigned char* buffer, size_t len) {
   da5fe:	4604      	mov	r4, r0
   da600:	460e      	mov	r6, r1
   da602:	4615      	mov	r5, r2
    int read = -1;
    if (available()) {
   da604:	4798      	blx	r3
   da606:	b188      	cbz	r0, da62c <_ZN3UDP4readEPhj+0x34>
        read = min(int(len), available());
   da608:	6823      	ldr	r3, [r4, #0]
   da60a:	4620      	mov	r0, r4
   da60c:	691b      	ldr	r3, [r3, #16]
   da60e:	4798      	blx	r3
        memcpy(buffer, &_buffer[_offset], read);
   da610:	8ee3      	ldrh	r3, [r4, #54]	; 0x36
   da612:	6be1      	ldr	r1, [r4, #60]	; 0x3c
   da614:	4285      	cmp	r5, r0
   da616:	bfa8      	it	ge
   da618:	4605      	movge	r5, r0
   da61a:	4419      	add	r1, r3
   da61c:	462a      	mov	r2, r5
   da61e:	4630      	mov	r0, r6
   da620:	f001 fbfb 	bl	dbe1a <memcpy>
        _offset += read;
   da624:	8ee3      	ldrh	r3, [r4, #54]	; 0x36
   da626:	442b      	add	r3, r5
   da628:	86e3      	strh	r3, [r4, #54]	; 0x36
   da62a:	e001      	b.n	da630 <_ZN3UDP4readEPhj+0x38>
int UDP::read() {
    return available() ? _buffer[_offset++] : -1;
}

int UDP::read(unsigned char* buffer, size_t len) {
    int read = -1;
   da62c:	f04f 35ff 	mov.w	r5, #4294967295	; 0xffffffff
        read = min(int(len), available());
        memcpy(buffer, &_buffer[_offset], read);
        _offset += read;
    }
    return read;
}
   da630:	4628      	mov	r0, r5
   da632:	bd70      	pop	{r4, r5, r6, pc}

000da634 <_ZN12_GLOBAL__N_123sockaddrToIpAddressPortEPK8sockaddrR9IPAddressPt>:

inline bool isOpen(sock_handle_t sd) {
    return socket_handle_valid(sd);
}

inline void sockaddrToIpAddressPort(const struct sockaddr* saddr, IPAddress& addr, uint16_t* port) {
   da634:	b5f0      	push	{r4, r5, r6, r7, lr}
    if (saddr->sa_family == AF_INET) {
   da636:	7843      	ldrb	r3, [r0, #1]
   da638:	2b02      	cmp	r3, #2

inline bool isOpen(sock_handle_t sd) {
    return socket_handle_valid(sd);
}

inline void sockaddrToIpAddressPort(const struct sockaddr* saddr, IPAddress& addr, uint16_t* port) {
   da63a:	b08d      	sub	sp, #52	; 0x34
   da63c:	4606      	mov	r6, r0
   da63e:	460c      	mov	r4, r1
   da640:	4617      	mov	r7, r2
    if (saddr->sa_family == AF_INET) {
   da642:	d104      	bne.n	da64e <_ZN12_GLOBAL__N_123sockaddrToIpAddressPortEPK8sockaddrR9IPAddressPt+0x1a>
        const struct sockaddr_in* inaddr = (const struct sockaddr_in*)saddr;
        addr = inaddr->sin_addr.s_addr;
   da644:	6841      	ldr	r1, [r0, #4]
   da646:	4620      	mov	r0, r4
   da648:	f7ff fa32 	bl	d9ab0 <_ZN9IPAddressaSEm>
   da64c:	e020      	b.n	da690 <_ZN12_GLOBAL__N_123sockaddrToIpAddressPortEPK8sockaddrR9IPAddressPt+0x5c>
        if (port) {
            *port = ntohs(inaddr->sin_port);
        }
    }
#if HAL_IPv6
    else if (saddr->sa_family == AF_INET6) {
   da64e:	2b0a      	cmp	r3, #10
   da650:	d123      	bne.n	da69a <_ZN12_GLOBAL__N_123sockaddrToIpAddressPortEPK8sockaddrR9IPAddressPt+0x66>
        const struct sockaddr_in6* in6addr = (const struct sockaddr_in6*)saddr;
        HAL_IPAddress a = {};
   da652:	2211      	movs	r2, #17
   da654:	2100      	movs	r1, #0
   da656:	a801      	add	r0, sp, #4
   da658:	f001 fbea 	bl	dbe30 <memset>
        memcpy(a.ipv6, in6addr->sin6_addr.s6_addr, sizeof(a.ipv6));
   da65c:	ad01      	add	r5, sp, #4
   da65e:	f106 0308 	add.w	r3, r6, #8
   da662:	f106 0e18 	add.w	lr, r6, #24
   da666:	6818      	ldr	r0, [r3, #0]
   da668:	6859      	ldr	r1, [r3, #4]
   da66a:	462a      	mov	r2, r5
   da66c:	c203      	stmia	r2!, {r0, r1}
   da66e:	3308      	adds	r3, #8
   da670:	4573      	cmp	r3, lr
   da672:	4615      	mov	r5, r2
   da674:	d1f7      	bne.n	da666 <_ZN12_GLOBAL__N_123sockaddrToIpAddressPortEPK8sockaddrR9IPAddressPt+0x32>
        a.v = 6;
   da676:	2306      	movs	r3, #6
        addr = IPAddress(a);
   da678:	a901      	add	r1, sp, #4
   da67a:	a806      	add	r0, sp, #24
   da67c:	ad07      	add	r5, sp, #28
#if HAL_IPv6
    else if (saddr->sa_family == AF_INET6) {
        const struct sockaddr_in6* in6addr = (const struct sockaddr_in6*)saddr;
        HAL_IPAddress a = {};
        memcpy(a.ipv6, in6addr->sin6_addr.s6_addr, sizeof(a.ipv6));
        a.v = 6;
   da67e:	f88d 3014 	strb.w	r3, [sp, #20]
        addr = IPAddress(a);
   da682:	f7ff f9ed 	bl	d9a60 <_ZN9IPAddressC1ERK16_HAL_IPAddress_t>
   da686:	cd0f      	ldmia	r5!, {r0, r1, r2, r3}
   da688:	3404      	adds	r4, #4
   da68a:	c40f      	stmia	r4!, {r0, r1, r2, r3}
   da68c:	682b      	ldr	r3, [r5, #0]
   da68e:	7023      	strb	r3, [r4, #0]
        if (port) {
   da690:	b11f      	cbz	r7, da69a <_ZN12_GLOBAL__N_123sockaddrToIpAddressPortEPK8sockaddrR9IPAddressPt+0x66>
            *port = ntohs(in6addr->sin6_port);
   da692:	8870      	ldrh	r0, [r6, #2]
   da694:	f7fe fc1c 	bl	d8ed0 <inet_ntohs>
   da698:	8038      	strh	r0, [r7, #0]
        }
    }
#endif // HAL_IPv6
}
   da69a:	b00d      	add	sp, #52	; 0x34
   da69c:	bdf0      	pop	{r4, r5, r6, r7, pc}
	...

000da6a0 <_ZN3UDP11beginPacketEPKct>:
    _sock = -1;

    flush_buffer(); // clear buffer
}

int UDP::beginPacket(const char *host, uint16_t port) {
   da6a0:	e92d 41f0 	stmdb	sp!, {r4, r5, r6, r7, r8, lr}
   da6a4:	b08e      	sub	sp, #56	; 0x38
    struct addrinfo* ais = nullptr;
   da6a6:	ab0e      	add	r3, sp, #56	; 0x38
   da6a8:	2500      	movs	r5, #0
    _sock = -1;

    flush_buffer(); // clear buffer
}

int UDP::beginPacket(const char *host, uint16_t port) {
   da6aa:	4606      	mov	r6, r0
   da6ac:	4617      	mov	r7, r2
   da6ae:	4608      	mov	r0, r1
    struct addrinfo* ais = nullptr;
   da6b0:	f843 5d34 	str.w	r5, [r3, #-52]!
    SCOPE_GUARD({
        netdb_freeaddrinfo(ais);
    });
    CHECK(netdb_getaddrinfo(host, nullptr, nullptr, &ais));
   da6b4:	462a      	mov	r2, r5
   da6b6:	4629      	mov	r1, r5
   da6b8:	f7fe fc22 	bl	d8f00 <netdb_getaddrinfo>
   da6bc:	2800      	cmp	r0, #0
   da6be:	db1f      	blt.n	da700 <_ZN3UDP11beginPacketEPKct+0x60>

    // FIXME: for now using only the first entry
    if (ais && ais->ai_addr) {
   da6c0:	9b01      	ldr	r3, [sp, #4]
   da6c2:	b1fb      	cbz	r3, da704 <_ZN3UDP11beginPacketEPKct+0x64>
   da6c4:	695b      	ldr	r3, [r3, #20]
   da6c6:	b1eb      	cbz	r3, da704 <_ZN3UDP11beginPacketEPKct+0x64>
        IPAddress addr;
   da6c8:	a802      	add	r0, sp, #8
   da6ca:	f7ff f9bb 	bl	d9a44 <_ZN9IPAddressC1Ev>
        sockaddrToIpAddressPort(ais->ai_addr, addr, nullptr);
   da6ce:	9b01      	ldr	r3, [sp, #4]
   da6d0:	462a      	mov	r2, r5
   da6d2:	6958      	ldr	r0, [r3, #20]
   da6d4:	a902      	add	r1, sp, #8
   da6d6:	f7ff ffad 	bl	da634 <_ZN12_GLOBAL__N_123sockaddrToIpAddressPortEPK8sockaddrR9IPAddressPt>
    operator bool() const;

    // For some reason, without this non-const overload GCC struggles to pick right operator
    // for bool conversion of a non-const object
    operator bool() {
        return static_cast<const IPAddress*>(this)->operator bool();
   da6da:	a802      	add	r0, sp, #8
   da6dc:	f7ff f9d2 	bl	d9a84 <_ZNK9IPAddresscvbEv>
        if (addr) {
   da6e0:	b180      	cbz	r0, da704 <_ZN3UDP11beginPacketEPKct+0x64>
            return beginPacket(addr, port);
   da6e2:	6833      	ldr	r3, [r6, #0]

/**
 * The IP address stored in host order.
 *
 */
class IPAddress : public Printable {
   da6e4:	ad03      	add	r5, sp, #12
   da6e6:	f8d3 8038 	ldr.w	r8, [r3, #56]	; 0x38
   da6ea:	4b0b      	ldr	r3, [pc, #44]	; (da718 <_ZN3UDP11beginPacketEPKct+0x78>)
   da6ec:	9308      	str	r3, [sp, #32]
   da6ee:	cd0f      	ldmia	r5!, {r0, r1, r2, r3}
   da6f0:	ac09      	add	r4, sp, #36	; 0x24
   da6f2:	c40f      	stmia	r4!, {r0, r1, r2, r3}
   da6f4:	682b      	ldr	r3, [r5, #0]
   da6f6:	7023      	strb	r3, [r4, #0]
   da6f8:	463a      	mov	r2, r7
   da6fa:	a908      	add	r1, sp, #32
   da6fc:	4630      	mov	r0, r6
   da6fe:	47c0      	blx	r8
   da700:	4604      	mov	r4, r0
   da702:	e001      	b.n	da708 <_ZN3UDP11beginPacketEPKct+0x68>
        }
    }

    return -1;
   da704:	f04f 34ff 	mov.w	r4, #4294967295	; 0xffffffff
    flush_buffer(); // clear buffer
}

int UDP::beginPacket(const char *host, uint16_t port) {
    struct addrinfo* ais = nullptr;
    SCOPE_GUARD({
   da708:	9801      	ldr	r0, [sp, #4]
   da70a:	f7fe fbf1 	bl	d8ef0 <netdb_freeaddrinfo>
            return beginPacket(addr, port);
        }
    }

    return -1;
}
   da70e:	4620      	mov	r0, r4
   da710:	b00e      	add	sp, #56	; 0x38
   da712:	e8bd 81f0 	ldmia.w	sp!, {r4, r5, r6, r7, r8, pc}
   da716:	bf00      	nop
   da718:	000de0a0 	.word	0x000de0a0

000da71c <_ZN3UDP13receivePacketEPhj>:
        }
    }
    return available();
}

int UDP::receivePacket(uint8_t* buffer, size_t size) {
   da71c:	e92d 43f0 	stmdb	sp!, {r4, r5, r6, r7, r8, r9, lr}
    int ret = -1;
    if (isOpen(_sock) && buffer) {
   da720:	6944      	ldr	r4, [r0, #20]
   da722:	2c00      	cmp	r4, #0
        }
    }
    return available();
}

int UDP::receivePacket(uint8_t* buffer, size_t size) {
   da724:	b099      	sub	sp, #100	; 0x64
   da726:	4605      	mov	r5, r0
   da728:	460f      	mov	r7, r1
   da72a:	4691      	mov	r9, r2
    int ret = -1;
    if (isOpen(_sock) && buffer) {
   da72c:	db00      	blt.n	da730 <_ZN3UDP13receivePacketEPhj+0x14>
   da72e:	b911      	cbnz	r1, da736 <_ZN3UDP13receivePacketEPhj+0x1a>
    }
    return available();
}

int UDP::receivePacket(uint8_t* buffer, size_t size) {
    int ret = -1;
   da730:	f04f 34ff 	mov.w	r4, #4294967295	; 0xffffffff
   da734:	e034      	b.n	da7a0 <_ZN3UDP13receivePacketEPhj+0x84>
    if (isOpen(_sock) && buffer) {
        sockaddr_storage saddr = {};
   da736:	ae09      	add	r6, sp, #36	; 0x24
   da738:	f04f 081c 	mov.w	r8, #28
   da73c:	4642      	mov	r2, r8
   da73e:	2100      	movs	r1, #0
   da740:	4630      	mov	r0, r6
   da742:	f001 fb75 	bl	dbe30 <memset>
        socklen_t slen = sizeof(saddr);
   da746:	ab18      	add	r3, sp, #96	; 0x60
        ret = sock_recvfrom(_sock, buffer, size, MSG_DONTWAIT, (struct sockaddr*)&saddr, &slen);
   da748:	4620      	mov	r0, r4

int UDP::receivePacket(uint8_t* buffer, size_t size) {
    int ret = -1;
    if (isOpen(_sock) && buffer) {
        sockaddr_storage saddr = {};
        socklen_t slen = sizeof(saddr);
   da74a:	f843 8d50 	str.w	r8, [r3, #-80]!
        ret = sock_recvfrom(_sock, buffer, size, MSG_DONTWAIT, (struct sockaddr*)&saddr, &slen);
   da74e:	464a      	mov	r2, r9
   da750:	9301      	str	r3, [sp, #4]
   da752:	9600      	str	r6, [sp, #0]
   da754:	2308      	movs	r3, #8
   da756:	4639      	mov	r1, r7
   da758:	f7fe fc02 	bl	d8f60 <sock_recvfrom>
        if (ret >= 0) {
   da75c:	1e04      	subs	r4, r0, #0
   da75e:	db1f      	blt.n	da7a0 <_ZN3UDP13receivePacketEPhj+0x84>
            sockaddrToIpAddressPort((const struct sockaddr*)&saddr, _remoteIP, &_remotePort);
   da760:	f105 071c 	add.w	r7, r5, #28
   da764:	f105 0234 	add.w	r2, r5, #52	; 0x34
   da768:	4630      	mov	r0, r6
   da76a:	4639      	mov	r1, r7
   da76c:	f7ff ff62 	bl	da634 <_ZN12_GLOBAL__N_123sockaddrToIpAddressPortEPK8sockaddrR9IPAddressPt>
            LOG(TRACE, "received %d bytes from %s:%d", ret, _remoteIP.toString().c_str(), _remotePort);
   da770:	2600      	movs	r6, #0
   da772:	2320      	movs	r3, #32

    virtual size_t printTo(Print& p) const;

    void clear() { memset(&address, 0, sizeof (address)); }

    String toString() const { return String(*this); }
   da774:	4639      	mov	r1, r7
   da776:	a805      	add	r0, sp, #20
   da778:	9310      	str	r3, [sp, #64]	; 0x40
   da77a:	9611      	str	r6, [sp, #68]	; 0x44
   da77c:	f7ff fe28 	bl	da3d0 <_ZN6StringC1ERK9Printable>
   da780:	8eab      	ldrh	r3, [r5, #52]	; 0x34
   da782:	9303      	str	r3, [sp, #12]
   da784:	9b05      	ldr	r3, [sp, #20]
   da786:	9302      	str	r3, [sp, #8]
   da788:	4b07      	ldr	r3, [pc, #28]	; (da7a8 <_ZN3UDP13receivePacketEPhj+0x8c>)
   da78a:	9300      	str	r3, [sp, #0]
   da78c:	2001      	movs	r0, #1
   da78e:	9401      	str	r4, [sp, #4]
   da790:	4633      	mov	r3, r6
   da792:	aa10      	add	r2, sp, #64	; 0x40
   da794:	4905      	ldr	r1, [pc, #20]	; (da7ac <_ZN3UDP13receivePacketEPhj+0x90>)
   da796:	f7fe fcbb 	bl	d9110 <log_message>
   da79a:	a805      	add	r0, sp, #20
   da79c:	f7ff fcde 	bl	da15c <_ZN6StringD1Ev>
        }
    }
    return ret;
}
   da7a0:	4620      	mov	r0, r4
   da7a2:	b019      	add	sp, #100	; 0x64
   da7a4:	e8bd 83f0 	ldmia.w	sp!, {r4, r5, r6, r7, r8, r9, pc}
   da7a8:	000de221 	.word	0x000de221
   da7ac:	000de1b1 	.word	0x000de1b1

000da7b0 <_ZN12_GLOBAL__N_118joinLeaveMulticastEiRK9IPAddresshb.constprop.5>:
        const auto& a = addr.raw();
        inaddr->sin_addr.s_addr = a.ipv4;
    }
}

int joinLeaveMulticast(int sock, const IPAddress& addr, uint8_t ifindex, bool join) {
   da7b0:	e92d 41f0 	stmdb	sp!, {r4, r5, r6, r7, r8, lr}
   da7b4:	460c      	mov	r4, r1
   da7b6:	b090      	sub	sp, #64	; 0x40
    sockaddr_storage s = {};
   da7b8:	f04f 081c 	mov.w	r8, #28
        const auto& a = addr.raw();
        inaddr->sin_addr.s_addr = a.ipv4;
    }
}

int joinLeaveMulticast(int sock, const IPAddress& addr, uint8_t ifindex, bool join) {
   da7bc:	4605      	mov	r5, r0
   da7be:	4617      	mov	r7, r2
    sockaddr_storage s = {};
   da7c0:	2100      	movs	r1, #0
   da7c2:	4642      	mov	r2, r8
   da7c4:	a809      	add	r0, sp, #36	; 0x24
        const auto& a = addr.raw();
        inaddr->sin_addr.s_addr = a.ipv4;
    }
}

int joinLeaveMulticast(int sock, const IPAddress& addr, uint8_t ifindex, bool join) {
   da7c6:	461e      	mov	r6, r3
    sockaddr_storage s = {};
   da7c8:	f001 fb32 	bl	dbe30 <memset>
   da7cc:	7d23      	ldrb	r3, [r4, #20]
    }
#endif // HAL_IPv6
}

inline void ipAddressPortToSockaddr(const IPAddress& addr, uint16_t port, struct sockaddr* saddr) {
    if (addr.version() == 6) {
   da7ce:	2b06      	cmp	r3, #6
   da7d0:	d116      	bne.n	da800 <_ZN12_GLOBAL__N_118joinLeaveMulticastEiRK9IPAddresshb.constprop.5+0x50>
        struct sockaddr_in6* in6addr = (struct sockaddr_in6*)saddr;
        in6addr->sin6_len = sizeof(sockaddr_in6);
        in6addr->sin6_family = AF_INET6;
   da7d2:	230a      	movs	r3, #10
        in6addr->sin6_port = htons(port);
   da7d4:	2000      	movs	r0, #0

inline void ipAddressPortToSockaddr(const IPAddress& addr, uint16_t port, struct sockaddr* saddr) {
    if (addr.version() == 6) {
        struct sockaddr_in6* in6addr = (struct sockaddr_in6*)saddr;
        in6addr->sin6_len = sizeof(sockaddr_in6);
        in6addr->sin6_family = AF_INET6;
   da7d6:	f88d 3025 	strb.w	r3, [sp, #37]	; 0x25
}

inline void ipAddressPortToSockaddr(const IPAddress& addr, uint16_t port, struct sockaddr* saddr) {
    if (addr.version() == 6) {
        struct sockaddr_in6* in6addr = (struct sockaddr_in6*)saddr;
        in6addr->sin6_len = sizeof(sockaddr_in6);
   da7da:	f88d 8024 	strb.w	r8, [sp, #36]	; 0x24
        in6addr->sin6_family = AF_INET6;
        in6addr->sin6_port = htons(port);
   da7de:	f7fe fb7f 	bl	d8ee0 <inet_htons>
        const auto& a = addr.raw();
        memcpy(in6addr->sin6_addr.s6_addr, a.ipv6, sizeof(a.ipv6));
   da7e2:	1d23      	adds	r3, r4, #4
inline void ipAddressPortToSockaddr(const IPAddress& addr, uint16_t port, struct sockaddr* saddr) {
    if (addr.version() == 6) {
        struct sockaddr_in6* in6addr = (struct sockaddr_in6*)saddr;
        in6addr->sin6_len = sizeof(sockaddr_in6);
        in6addr->sin6_family = AF_INET6;
        in6addr->sin6_port = htons(port);
   da7e4:	f8ad 0026 	strh.w	r0, [sp, #38]	; 0x26
        const auto& a = addr.raw();
        memcpy(in6addr->sin6_addr.s6_addr, a.ipv6, sizeof(a.ipv6));
   da7e8:	f10d 0e2c 	add.w	lr, sp, #44	; 0x2c
   da7ec:	3414      	adds	r4, #20
   da7ee:	6818      	ldr	r0, [r3, #0]
   da7f0:	6859      	ldr	r1, [r3, #4]
   da7f2:	4672      	mov	r2, lr
   da7f4:	c203      	stmia	r2!, {r0, r1}
   da7f6:	3308      	adds	r3, #8
   da7f8:	42a3      	cmp	r3, r4
   da7fa:	4696      	mov	lr, r2
   da7fc:	d1f7      	bne.n	da7ee <_ZN12_GLOBAL__N_118joinLeaveMulticastEiRK9IPAddresshb.constprop.5+0x3e>
   da7fe:	e00e      	b.n	da81e <_ZN12_GLOBAL__N_118joinLeaveMulticastEiRK9IPAddresshb.constprop.5+0x6e>
    } else if (addr.version() == 4) {
   da800:	2b04      	cmp	r3, #4
   da802:	d10c      	bne.n	da81e <_ZN12_GLOBAL__N_118joinLeaveMulticastEiRK9IPAddresshb.constprop.5+0x6e>
        struct sockaddr_in* inaddr = (struct sockaddr_in*)saddr;
        inaddr->sin_len = sizeof(sockaddr_in);
   da804:	2310      	movs	r3, #16
   da806:	f88d 3024 	strb.w	r3, [sp, #36]	; 0x24
        inaddr->sin_family = AF_INET;
        inaddr->sin_port = htons(port);
   da80a:	2000      	movs	r0, #0
        const auto& a = addr.raw();
        memcpy(in6addr->sin6_addr.s6_addr, a.ipv6, sizeof(a.ipv6));
    } else if (addr.version() == 4) {
        struct sockaddr_in* inaddr = (struct sockaddr_in*)saddr;
        inaddr->sin_len = sizeof(sockaddr_in);
        inaddr->sin_family = AF_INET;
   da80c:	2302      	movs	r3, #2
   da80e:	f88d 3025 	strb.w	r3, [sp, #37]	; 0x25
        inaddr->sin_port = htons(port);
   da812:	f7fe fb65 	bl	d8ee0 <inet_htons>
        const auto& a = addr.raw();
        inaddr->sin_addr.s_addr = a.ipv4;
   da816:	6863      	ldr	r3, [r4, #4]
        memcpy(in6addr->sin6_addr.s6_addr, a.ipv6, sizeof(a.ipv6));
    } else if (addr.version() == 4) {
        struct sockaddr_in* inaddr = (struct sockaddr_in*)saddr;
        inaddr->sin_len = sizeof(sockaddr_in);
        inaddr->sin_family = AF_INET;
        inaddr->sin_port = htons(port);
   da818:	f8ad 0026 	strh.w	r0, [sp, #38]	; 0x26
        const auto& a = addr.raw();
        inaddr->sin_addr.s_addr = a.ipv4;
   da81c:	930a      	str	r3, [sp, #40]	; 0x28
}

int joinLeaveMulticast(int sock, const IPAddress& addr, uint8_t ifindex, bool join) {
    sockaddr_storage s = {};
    ipAddressPortToSockaddr(addr, 0, (struct sockaddr*)&s);
    if (s.ss_family == AF_INET) {
   da81e:	f89d 3025 	ldrb.w	r3, [sp, #37]	; 0x25
   da822:	2b02      	cmp	r3, #2
   da824:	d12e      	bne.n	da884 <_ZN12_GLOBAL__N_118joinLeaveMulticastEiRK9IPAddresshb.constprop.5+0xd4>
        struct ip_mreq mreq = {};
   da826:	2300      	movs	r3, #0
   da828:	9305      	str	r3, [sp, #20]
        mreq.imr_multiaddr = ((struct sockaddr_in*)&s)->sin_addr;
   da82a:	9b0a      	ldr	r3, [sp, #40]	; 0x28
   da82c:	9304      	str	r3, [sp, #16]
        mreq.imr_interface.s_addr = INADDR_ANY;
#if HAL_PLATFORM_IFAPI
        if (ifindex != 0) {
   da82e:	b1df      	cbz	r7, da868 <_ZN12_GLOBAL__N_118joinLeaveMulticastEiRK9IPAddresshb.constprop.5+0xb8>
            if_t iface;
            if (!if_get_by_index(ifindex, &iface)) {
   da830:	a902      	add	r1, sp, #8
   da832:	4638      	mov	r0, r7
   da834:	f7fe fb24 	bl	d8e80 <if_get_by_index>
   da838:	b9b0      	cbnz	r0, da868 <_ZN12_GLOBAL__N_118joinLeaveMulticastEiRK9IPAddresshb.constprop.5+0xb8>
                struct if_addrs* addrs = nullptr;
   da83a:	a910      	add	r1, sp, #64	; 0x40
   da83c:	f841 0d34 	str.w	r0, [r1, #-52]!
                SCOPE_GUARD({
                    if_free_if_addrs(addrs);
                });
                // Query interface IP address
                if (!if_get_addrs(iface, &addrs)) {
   da840:	9802      	ldr	r0, [sp, #8]
   da842:	f7fe fb25 	bl	d8e90 <if_get_addrs>
   da846:	b960      	cbnz	r0, da862 <_ZN12_GLOBAL__N_118joinLeaveMulticastEiRK9IPAddresshb.constprop.5+0xb2>
                    for (auto a = addrs; a != nullptr; a = a->next) {
   da848:	9b03      	ldr	r3, [sp, #12]
   da84a:	b153      	cbz	r3, da862 <_ZN12_GLOBAL__N_118joinLeaveMulticastEiRK9IPAddresshb.constprop.5+0xb2>
                        auto ifaddr = a->if_addr->addr;
   da84c:	68da      	ldr	r2, [r3, #12]
   da84e:	6812      	ldr	r2, [r2, #0]
                        if (ifaddr->sa_family == AF_INET) {
   da850:	7851      	ldrb	r1, [r2, #1]
   da852:	2902      	cmp	r1, #2
   da854:	d103      	bne.n	da85e <_ZN12_GLOBAL__N_118joinLeaveMulticastEiRK9IPAddresshb.constprop.5+0xae>
                            struct sockaddr_in* inaddr = (struct sockaddr_in*)ifaddr;
                            if (inaddr->sin_addr.s_addr != INADDR_ANY) {
   da856:	6852      	ldr	r2, [r2, #4]
   da858:	b10a      	cbz	r2, da85e <_ZN12_GLOBAL__N_118joinLeaveMulticastEiRK9IPAddresshb.constprop.5+0xae>
                                mreq.imr_interface.s_addr = inaddr->sin_addr.s_addr;
   da85a:	9205      	str	r2, [sp, #20]
   da85c:	e001      	b.n	da862 <_ZN12_GLOBAL__N_118joinLeaveMulticastEiRK9IPAddresshb.constprop.5+0xb2>
                SCOPE_GUARD({
                    if_free_if_addrs(addrs);
                });
                // Query interface IP address
                if (!if_get_addrs(iface, &addrs)) {
                    for (auto a = addrs; a != nullptr; a = a->next) {
   da85e:	681b      	ldr	r3, [r3, #0]
   da860:	e7f3      	b.n	da84a <_ZN12_GLOBAL__N_118joinLeaveMulticastEiRK9IPAddresshb.constprop.5+0x9a>
#if HAL_PLATFORM_IFAPI
        if (ifindex != 0) {
            if_t iface;
            if (!if_get_by_index(ifindex, &iface)) {
                struct if_addrs* addrs = nullptr;
                SCOPE_GUARD({
   da862:	9803      	ldr	r0, [sp, #12]
   da864:	f7fe fb1c 	bl	d8ea0 <if_free_if_addrs>
                    }
                }
            }
        }
#endif // HAL_PLATFORM_IFAPI
        return sock_setsockopt(sock, IPPROTO_IP, join ? IP_ADD_MEMBERSHIP : IP_DROP_MEMBERSHIP,
   da868:	2e00      	cmp	r6, #0
                    (void*)&mreq, sizeof(mreq));
   da86a:	f04f 0308 	mov.w	r3, #8
   da86e:	9300      	str	r3, [sp, #0]
   da870:	bf18      	it	ne
   da872:	2203      	movne	r2, #3
   da874:	ab04      	add	r3, sp, #16
   da876:	bf08      	it	eq
   da878:	2204      	moveq	r2, #4
   da87a:	2100      	movs	r1, #0
   da87c:	4628      	mov	r0, r5
   da87e:	f7fe fb5f 	bl	d8f40 <sock_setsockopt>
   da882:	e01e      	b.n	da8c2 <_ZN12_GLOBAL__N_118joinLeaveMulticastEiRK9IPAddresshb.constprop.5+0x112>
#if HAL_IPv6
    } else if (s.ss_family == AF_INET6) {
   da884:	2b0a      	cmp	r3, #10
   da886:	d11a      	bne.n	da8be <_ZN12_GLOBAL__N_118joinLeaveMulticastEiRK9IPAddresshb.constprop.5+0x10e>
        struct ipv6_mreq mreq = {};
   da888:	ac04      	add	r4, sp, #16
   da88a:	2214      	movs	r2, #20
   da88c:	2100      	movs	r1, #0
   da88e:	4620      	mov	r0, r4
   da890:	f001 face 	bl	dbe30 <memset>
        mreq.ipv6mr_multiaddr = ((struct sockaddr_in6*)&s)->sin6_addr;
   da894:	ab0b      	add	r3, sp, #44	; 0x2c
   da896:	cb0f      	ldmia	r3, {r0, r1, r2, r3}
        mreq.ipv6mr_interface = ifindex;
        CHECK(sock_setsockopt(sock, IPPROTO_IPV6, join ? IPV6_JOIN_GROUP : IPV6_LEAVE_GROUP,
   da898:	2e00      	cmp	r6, #0
        return sock_setsockopt(sock, IPPROTO_IP, join ? IP_ADD_MEMBERSHIP : IP_DROP_MEMBERSHIP,
                    (void*)&mreq, sizeof(mreq));
#if HAL_IPv6
    } else if (s.ss_family == AF_INET6) {
        struct ipv6_mreq mreq = {};
        mreq.ipv6mr_multiaddr = ((struct sockaddr_in6*)&s)->sin6_addr;
   da89a:	e884 000f 	stmia.w	r4, {r0, r1, r2, r3}
        mreq.ipv6mr_interface = ifindex;
        CHECK(sock_setsockopt(sock, IPPROTO_IPV6, join ? IPV6_JOIN_GROUP : IPV6_LEAVE_GROUP,
   da89e:	f04f 0314 	mov.w	r3, #20
   da8a2:	9300      	str	r3, [sp, #0]
   da8a4:	bf18      	it	ne
   da8a6:	220c      	movne	r2, #12
   da8a8:	4623      	mov	r3, r4
   da8aa:	bf08      	it	eq
   da8ac:	220d      	moveq	r2, #13
   da8ae:	2129      	movs	r1, #41	; 0x29
   da8b0:	4628      	mov	r0, r5
                    (void*)&mreq, sizeof(mreq));
#if HAL_IPv6
    } else if (s.ss_family == AF_INET6) {
        struct ipv6_mreq mreq = {};
        mreq.ipv6mr_multiaddr = ((struct sockaddr_in6*)&s)->sin6_addr;
        mreq.ipv6mr_interface = ifindex;
   da8b2:	9708      	str	r7, [sp, #32]
        CHECK(sock_setsockopt(sock, IPPROTO_IPV6, join ? IPV6_JOIN_GROUP : IPV6_LEAVE_GROUP,
   da8b4:	f7fe fb44 	bl	d8f40 <sock_setsockopt>
   da8b8:	ea00 70e0 	and.w	r0, r0, r0, asr #31
   da8bc:	e001      	b.n	da8c2 <_ZN12_GLOBAL__N_118joinLeaveMulticastEiRK9IPAddresshb.constprop.5+0x112>
                &mreq, sizeof(mreq)));
        return 0;
    }
#endif // HAL_IPv6
    return -1;
   da8be:	f04f 30ff 	mov.w	r0, #4294967295	; 0xffffffff
}
   da8c2:	b010      	add	sp, #64	; 0x40
   da8c4:	e8bd 81f0 	ldmia.w	sp!, {r4, r5, r6, r7, r8, pc}

000da8c8 <_ZN3UDP8remoteIPEv>:
     */
    void flush_buffer();

    const uint8_t* buffer() const { return _buffer; }

    virtual IPAddress remoteIP() { return _remoteIP; };
   da8c8:	b570      	push	{r4, r5, r6, lr}

/**
 * The IP address stored in host order.
 *
 */
class IPAddress : public Printable {
   da8ca:	4604      	mov	r4, r0
   da8cc:	4b05      	ldr	r3, [pc, #20]	; (da8e4 <_ZN3UDP8remoteIPEv+0x1c>)
   da8ce:	f844 3b04 	str.w	r3, [r4], #4
   da8d2:	f101 0520 	add.w	r5, r1, #32
   da8d6:	4606      	mov	r6, r0
   da8d8:	cd0f      	ldmia	r5!, {r0, r1, r2, r3}
   da8da:	c40f      	stmia	r4!, {r0, r1, r2, r3}
   da8dc:	682b      	ldr	r3, [r5, #0]
   da8de:	7023      	strb	r3, [r4, #0]
   da8e0:	4630      	mov	r0, r6
   da8e2:	bd70      	pop	{r4, r5, r6, pc}
   da8e4:	000de0a0 	.word	0x000de0a0

000da8e8 <_ZN3UDP10sendPacketEPKcj9IPAddresst>:
     * @param ip
     * @param port
     * @return
     */
    virtual int sendPacket(const uint8_t* buffer, size_t buffer_size, IPAddress destination, uint16_t port);
    virtual int sendPacket(const char* buffer, size_t buffer_size, IPAddress destination, uint16_t port) {
   da8e8:	b5f0      	push	{r4, r5, r6, r7, lr}
   da8ea:	4694      	mov	ip, r2
        return sendPacket((uint8_t*)buffer, buffer_size, destination, port);
   da8ec:	6802      	ldr	r2, [r0, #0]
     * @param ip
     * @param port
     * @return
     */
    virtual int sendPacket(const uint8_t* buffer, size_t buffer_size, IPAddress destination, uint16_t port);
    virtual int sendPacket(const char* buffer, size_t buffer_size, IPAddress destination, uint16_t port) {
   da8ee:	b089      	sub	sp, #36	; 0x24
        return sendPacket((uint8_t*)buffer, buffer_size, destination, port);
   da8f0:	6a97      	ldr	r7, [r2, #40]	; 0x28
   da8f2:	4a0a      	ldr	r2, [pc, #40]	; (da91c <_ZN3UDP10sendPacketEPKcj9IPAddresst+0x34>)
   da8f4:	9202      	str	r2, [sp, #8]
   da8f6:	1d1d      	adds	r5, r3, #4
     * @param ip
     * @param port
     * @return
     */
    virtual int sendPacket(const uint8_t* buffer, size_t buffer_size, IPAddress destination, uint16_t port);
    virtual int sendPacket(const char* buffer, size_t buffer_size, IPAddress destination, uint16_t port) {
   da8f8:	468e      	mov	lr, r1
   da8fa:	4606      	mov	r6, r0
   da8fc:	cd0f      	ldmia	r5!, {r0, r1, r2, r3}
   da8fe:	ac03      	add	r4, sp, #12
   da900:	c40f      	stmia	r4!, {r0, r1, r2, r3}
   da902:	682b      	ldr	r3, [r5, #0]
   da904:	7023      	strb	r3, [r4, #0]
        return sendPacket((uint8_t*)buffer, buffer_size, destination, port);
   da906:	f8bd 3038 	ldrh.w	r3, [sp, #56]	; 0x38
   da90a:	9300      	str	r3, [sp, #0]
   da90c:	4662      	mov	r2, ip
   da90e:	ab02      	add	r3, sp, #8
   da910:	4671      	mov	r1, lr
   da912:	4630      	mov	r0, r6
   da914:	47b8      	blx	r7
    }
   da916:	b009      	add	sp, #36	; 0x24
   da918:	bdf0      	pop	{r4, r5, r6, r7, pc}
   da91a:	bf00      	nop
   da91c:	000de0a0 	.word	0x000de0a0

000da920 <_ZN3UDP9endPacketEv>:
    _remotePort = port;
    flush_buffer(); // clear buffer
    return _buffer_size;
}

int UDP::endPacket() {
   da920:	b5f0      	push	{r4, r5, r6, r7, lr}
    int result = sendPacket(_buffer, _offset, _remoteIP, _remotePort);
   da922:	6803      	ldr	r3, [r0, #0]
   da924:	f8b0 e036 	ldrh.w	lr, [r0, #54]	; 0x36
   da928:	6a9f      	ldr	r7, [r3, #40]	; 0x28
   da92a:	4b0d      	ldr	r3, [pc, #52]	; (da960 <_ZN3UDP9endPacketEv+0x40>)
    _remotePort = port;
    flush_buffer(); // clear buffer
    return _buffer_size;
}

int UDP::endPacket() {
   da92c:	b089      	sub	sp, #36	; 0x24
   da92e:	f100 0620 	add.w	r6, r0, #32
   da932:	4604      	mov	r4, r0
   da934:	9302      	str	r3, [sp, #8]
   da936:	ce0f      	ldmia	r6!, {r0, r1, r2, r3}
   da938:	ad03      	add	r5, sp, #12
   da93a:	c50f      	stmia	r5!, {r0, r1, r2, r3}
   da93c:	6833      	ldr	r3, [r6, #0]
   da93e:	702b      	strb	r3, [r5, #0]
    int result = sendPacket(_buffer, _offset, _remoteIP, _remotePort);
   da940:	8ea3      	ldrh	r3, [r4, #52]	; 0x34
   da942:	9300      	str	r3, [sp, #0]
   da944:	4672      	mov	r2, lr
   da946:	ab02      	add	r3, sp, #8
   da948:	6be1      	ldr	r1, [r4, #60]	; 0x3c
   da94a:	4620      	mov	r0, r4
   da94c:	47b8      	blx	r7
    flush(); // wait for send to complete
   da94e:	6823      	ldr	r3, [r4, #0]
    flush_buffer(); // clear buffer
    return _buffer_size;
}

int UDP::endPacket() {
    int result = sendPacket(_buffer, _offset, _remoteIP, _remotePort);
   da950:	4605      	mov	r5, r0
    flush(); // wait for send to complete
   da952:	69db      	ldr	r3, [r3, #28]
   da954:	4620      	mov	r0, r4
   da956:	4798      	blx	r3
    return result;
}
   da958:	4628      	mov	r0, r5
   da95a:	b009      	add	sp, #36	; 0x24
   da95c:	bdf0      	pop	{r4, r5, r6, r7, pc}
   da95e:	bf00      	nop
   da960:	000de0a0 	.word	0x000de0a0

000da964 <_ZN3UDP10sendPacketEPKhj9IPAddresst>:

int UDP::sendPacket(const uint8_t* buffer, size_t buffer_size, IPAddress remoteIP, uint16_t port) {
   da964:	e92d 4ff0 	stmdb	sp!, {r4, r5, r6, r7, r8, r9, sl, fp, lr}
   da968:	461c      	mov	r4, r3
   da96a:	b091      	sub	sp, #68	; 0x44
    LOG(TRACE, "sendPacket size %d, %s:%d", buffer_size, remoteIP.toString().c_str(), port);
   da96c:	2320      	movs	r3, #32
   da96e:	f04f 0a00 	mov.w	sl, #0
    int result = sendPacket(_buffer, _offset, _remoteIP, _remotePort);
    flush(); // wait for send to complete
    return result;
}

int UDP::sendPacket(const uint8_t* buffer, size_t buffer_size, IPAddress remoteIP, uint16_t port) {
   da972:	4680      	mov	r8, r0
   da974:	4689      	mov	r9, r1

    virtual size_t printTo(Print& p) const;

    void clear() { memset(&address, 0, sizeof (address)); }

    String toString() const { return String(*this); }
   da976:	a804      	add	r0, sp, #16
   da978:	4621      	mov	r1, r4
   da97a:	4617      	mov	r7, r2
   da97c:	f8bd 6068 	ldrh.w	r6, [sp, #104]	; 0x68
    LOG(TRACE, "sendPacket size %d, %s:%d", buffer_size, remoteIP.toString().c_str(), port);
   da980:	9308      	str	r3, [sp, #32]
   da982:	f8cd a024 	str.w	sl, [sp, #36]	; 0x24
   da986:	f7ff fd23 	bl	da3d0 <_ZN6StringC1ERK9Printable>
   da98a:	9b04      	ldr	r3, [sp, #16]
   da98c:	9302      	str	r3, [sp, #8]
   da98e:	ad08      	add	r5, sp, #32
   da990:	4b27      	ldr	r3, [pc, #156]	; (daa30 <_ZN3UDP10sendPacketEPKhj9IPAddresst+0xcc>)
   da992:	4928      	ldr	r1, [pc, #160]	; (daa34 <_ZN3UDP10sendPacketEPKhj9IPAddresst+0xd0>)
   da994:	9300      	str	r3, [sp, #0]
   da996:	462a      	mov	r2, r5
   da998:	4653      	mov	r3, sl
   da99a:	2001      	movs	r0, #1
   da99c:	9603      	str	r6, [sp, #12]
   da99e:	9701      	str	r7, [sp, #4]
   da9a0:	f7fe fbb6 	bl	d9110 <log_message>
	sockaddr_storage s = {};
   da9a4:	f04f 0b1c 	mov.w	fp, #28
    flush(); // wait for send to complete
    return result;
}

int UDP::sendPacket(const uint8_t* buffer, size_t buffer_size, IPAddress remoteIP, uint16_t port) {
    LOG(TRACE, "sendPacket size %d, %s:%d", buffer_size, remoteIP.toString().c_str(), port);
   da9a8:	a804      	add	r0, sp, #16
   da9aa:	f7ff fbd7 	bl	da15c <_ZN6StringD1Ev>
	sockaddr_storage s = {};
   da9ae:	465a      	mov	r2, fp
   da9b0:	4651      	mov	r1, sl
   da9b2:	4628      	mov	r0, r5
   da9b4:	f001 fa3c 	bl	dbe30 <memset>
   da9b8:	7d23      	ldrb	r3, [r4, #20]
    }
#endif // HAL_IPv6
}

inline void ipAddressPortToSockaddr(const IPAddress& addr, uint16_t port, struct sockaddr* saddr) {
    if (addr.version() == 6) {
   da9ba:	2b06      	cmp	r3, #6
   da9bc:	d115      	bne.n	da9ea <_ZN3UDP10sendPacketEPKhj9IPAddresst+0x86>
        struct sockaddr_in6* in6addr = (struct sockaddr_in6*)saddr;
        in6addr->sin6_len = sizeof(sockaddr_in6);
        in6addr->sin6_family = AF_INET6;
   da9be:	230a      	movs	r3, #10
        in6addr->sin6_port = htons(port);
   da9c0:	4630      	mov	r0, r6

inline void ipAddressPortToSockaddr(const IPAddress& addr, uint16_t port, struct sockaddr* saddr) {
    if (addr.version() == 6) {
        struct sockaddr_in6* in6addr = (struct sockaddr_in6*)saddr;
        in6addr->sin6_len = sizeof(sockaddr_in6);
        in6addr->sin6_family = AF_INET6;
   da9c2:	f88d 3021 	strb.w	r3, [sp, #33]	; 0x21
}

inline void ipAddressPortToSockaddr(const IPAddress& addr, uint16_t port, struct sockaddr* saddr) {
    if (addr.version() == 6) {
        struct sockaddr_in6* in6addr = (struct sockaddr_in6*)saddr;
        in6addr->sin6_len = sizeof(sockaddr_in6);
   da9c6:	f88d b020 	strb.w	fp, [sp, #32]
        in6addr->sin6_family = AF_INET6;
        in6addr->sin6_port = htons(port);
   da9ca:	f7fe fa89 	bl	d8ee0 <inet_htons>
        const auto& a = addr.raw();
        memcpy(in6addr->sin6_addr.s6_addr, a.ipv6, sizeof(a.ipv6));
   da9ce:	ae0a      	add	r6, sp, #40	; 0x28
   da9d0:	1d23      	adds	r3, r4, #4
inline void ipAddressPortToSockaddr(const IPAddress& addr, uint16_t port, struct sockaddr* saddr) {
    if (addr.version() == 6) {
        struct sockaddr_in6* in6addr = (struct sockaddr_in6*)saddr;
        in6addr->sin6_len = sizeof(sockaddr_in6);
        in6addr->sin6_family = AF_INET6;
        in6addr->sin6_port = htons(port);
   da9d2:	f8ad 0022 	strh.w	r0, [sp, #34]	; 0x22
        const auto& a = addr.raw();
        memcpy(in6addr->sin6_addr.s6_addr, a.ipv6, sizeof(a.ipv6));
   da9d6:	3414      	adds	r4, #20
   da9d8:	6818      	ldr	r0, [r3, #0]
   da9da:	6859      	ldr	r1, [r3, #4]
   da9dc:	4632      	mov	r2, r6
   da9de:	c203      	stmia	r2!, {r0, r1}
   da9e0:	3308      	adds	r3, #8
   da9e2:	42a3      	cmp	r3, r4
   da9e4:	4616      	mov	r6, r2
   da9e6:	d1f7      	bne.n	da9d8 <_ZN3UDP10sendPacketEPKhj9IPAddresst+0x74>
   da9e8:	e00e      	b.n	daa08 <_ZN3UDP10sendPacketEPKhj9IPAddresst+0xa4>
    } else if (addr.version() == 4) {
   da9ea:	2b04      	cmp	r3, #4
   da9ec:	d10c      	bne.n	daa08 <_ZN3UDP10sendPacketEPKhj9IPAddresst+0xa4>
        struct sockaddr_in* inaddr = (struct sockaddr_in*)saddr;
        inaddr->sin_len = sizeof(sockaddr_in);
   da9ee:	2310      	movs	r3, #16
   da9f0:	f88d 3020 	strb.w	r3, [sp, #32]
        inaddr->sin_family = AF_INET;
        inaddr->sin_port = htons(port);
   da9f4:	4630      	mov	r0, r6
        const auto& a = addr.raw();
        memcpy(in6addr->sin6_addr.s6_addr, a.ipv6, sizeof(a.ipv6));
    } else if (addr.version() == 4) {
        struct sockaddr_in* inaddr = (struct sockaddr_in*)saddr;
        inaddr->sin_len = sizeof(sockaddr_in);
        inaddr->sin_family = AF_INET;
   da9f6:	2302      	movs	r3, #2
   da9f8:	f88d 3021 	strb.w	r3, [sp, #33]	; 0x21
        inaddr->sin_port = htons(port);
   da9fc:	f7fe fa70 	bl	d8ee0 <inet_htons>
        const auto& a = addr.raw();
        inaddr->sin_addr.s_addr = a.ipv4;
   daa00:	6863      	ldr	r3, [r4, #4]
        memcpy(in6addr->sin6_addr.s6_addr, a.ipv6, sizeof(a.ipv6));
    } else if (addr.version() == 4) {
        struct sockaddr_in* inaddr = (struct sockaddr_in*)saddr;
        inaddr->sin_len = sizeof(sockaddr_in);
        inaddr->sin_family = AF_INET;
        inaddr->sin_port = htons(port);
   daa02:	f8ad 0022 	strh.w	r0, [sp, #34]	; 0x22
        const auto& a = addr.raw();
        inaddr->sin_addr.s_addr = a.ipv4;
   daa06:	9309      	str	r3, [sp, #36]	; 0x24

int UDP::sendPacket(const uint8_t* buffer, size_t buffer_size, IPAddress remoteIP, uint16_t port) {
    LOG(TRACE, "sendPacket size %d, %s:%d", buffer_size, remoteIP.toString().c_str(), port);
	sockaddr_storage s = {};
    ipAddressPortToSockaddr(remoteIP, port, (struct sockaddr*)&s);
    if (s.ss_family == AF_UNSPEC) {
   daa08:	f89d 3021 	ldrb.w	r3, [sp, #33]	; 0x21
   daa0c:	b153      	cbz	r3, daa24 <_ZN3UDP10sendPacketEPKhj9IPAddresst+0xc0>
        return -1;
    }

    return sock_sendto(_sock, buffer, buffer_size, 0, (const struct sockaddr*)&s, sizeof(s));
   daa0e:	231c      	movs	r3, #28
   daa10:	9301      	str	r3, [sp, #4]
   daa12:	9500      	str	r5, [sp, #0]
   daa14:	2300      	movs	r3, #0
   daa16:	463a      	mov	r2, r7
   daa18:	4649      	mov	r1, r9
   daa1a:	f8d8 0014 	ldr.w	r0, [r8, #20]
   daa1e:	f7fe faa7 	bl	d8f70 <sock_sendto>
   daa22:	e001      	b.n	daa28 <_ZN3UDP10sendPacketEPKhj9IPAddresst+0xc4>
int UDP::sendPacket(const uint8_t* buffer, size_t buffer_size, IPAddress remoteIP, uint16_t port) {
    LOG(TRACE, "sendPacket size %d, %s:%d", buffer_size, remoteIP.toString().c_str(), port);
	sockaddr_storage s = {};
    ipAddressPortToSockaddr(remoteIP, port, (struct sockaddr*)&s);
    if (s.ss_family == AF_UNSPEC) {
        return -1;
   daa24:	f04f 30ff 	mov.w	r0, #4294967295	; 0xffffffff
    }

    return sock_sendto(_sock, buffer, buffer_size, 0, (const struct sockaddr*)&s, sizeof(s));
}
   daa28:	b011      	add	sp, #68	; 0x44
   daa2a:	e8bd 8ff0 	ldmia.w	sp!, {r4, r5, r6, r7, r8, r9, sl, fp, pc}
   daa2e:	bf00      	nop
   daa30:	000de23e 	.word	0x000de23e
   daa34:	000de1b1 	.word	0x000de1b1

000daa38 <_ZN3UDPC1Ev>:
    return -1;
}

} // anonymous

UDP::UDP()
   daa38:	b538      	push	{r3, r4, r5, lr}
   daa3a:	f44f 737a 	mov.w	r3, #1000	; 0x3e8
   daa3e:	6083      	str	r3, [r0, #8]
        : _sock(-1),
          _offset(0),
          _total(0),
          _buffer(0),
          _buffer_size(512),
          _nif(0) {
   daa40:	4b0b      	ldr	r3, [pc, #44]	; (daa70 <_ZN3UDPC1Ev+0x38>)
   daa42:	f103 0208 	add.w	r2, r3, #8
   daa46:	336c      	adds	r3, #108	; 0x6c
   daa48:	2500      	movs	r5, #0
   daa4a:	6103      	str	r3, [r0, #16]
   daa4c:	f04f 33ff 	mov.w	r3, #4294967295	; 0xffffffff
    return -1;
}

} // anonymous

UDP::UDP()
   daa50:	4604      	mov	r4, r0
   daa52:	6045      	str	r5, [r0, #4]
        : _sock(-1),
          _offset(0),
          _total(0),
          _buffer(0),
          _buffer_size(512),
          _nif(0) {
   daa54:	6002      	str	r2, [r0, #0]
   daa56:	6143      	str	r3, [r0, #20]
   daa58:	301c      	adds	r0, #28
   daa5a:	f7fe fff3 	bl	d9a44 <_ZN9IPAddressC1Ev>
   daa5e:	f44f 7300 	mov.w	r3, #512	; 0x200
   daa62:	86e5      	strh	r5, [r4, #54]	; 0x36
   daa64:	8725      	strh	r5, [r4, #56]	; 0x38
   daa66:	63e5      	str	r5, [r4, #60]	; 0x3c
   daa68:	6423      	str	r3, [r4, #64]	; 0x40
   daa6a:	6465      	str	r5, [r4, #68]	; 0x44
}
   daa6c:	4620      	mov	r0, r4
   daa6e:	bd38      	pop	{r3, r4, r5, pc}
   daa70:	000de26c 	.word	0x000de26c

000daa74 <_ZN3UDP13releaseBufferEv>:
        _buffer_size = buf_size;
    }
    return _buffer_size;
}

void UDP::releaseBuffer() {
   daa74:	b510      	push	{r4, lr}
    if (_buffer_allocated && _buffer) {
   daa76:	f890 3048 	ldrb.w	r3, [r0, #72]	; 0x48
        _buffer_size = buf_size;
    }
    return _buffer_size;
}

void UDP::releaseBuffer() {
   daa7a:	4604      	mov	r4, r0
    if (_buffer_allocated && _buffer) {
   daa7c:	b11b      	cbz	r3, daa86 <_ZN3UDP13releaseBufferEv+0x12>
   daa7e:	6bc0      	ldr	r0, [r0, #60]	; 0x3c
   daa80:	b108      	cbz	r0, daa86 <_ZN3UDP13releaseBufferEv+0x12>
        delete _buffer;
   daa82:	f7f9 fb0c 	bl	d409e <_ZdlPv>
    }
    _buffer = NULL;
   daa86:	2300      	movs	r3, #0
   daa88:	63e3      	str	r3, [r4, #60]	; 0x3c
    _buffer_allocated = false;
   daa8a:	f884 3048 	strb.w	r3, [r4, #72]	; 0x48
    _buffer_size = 0;
   daa8e:	6423      	str	r3, [r4, #64]	; 0x40

void UDP::flush() {
}

void UDP::flush_buffer() {
    _offset = 0;
   daa90:	86e3      	strh	r3, [r4, #54]	; 0x36
    _total = 0;
   daa92:	8723      	strh	r3, [r4, #56]	; 0x38
   daa94:	bd10      	pop	{r4, pc}

000daa96 <_ZN3UDP9setBufferEjPh>:
          _buffer(0),
          _buffer_size(512),
          _nif(0) {
}

bool UDP::setBuffer(size_t buf_size, uint8_t* buffer) {
   daa96:	b570      	push	{r4, r5, r6, lr}
   daa98:	4604      	mov	r4, r0
   daa9a:	4616      	mov	r6, r2
   daa9c:	460d      	mov	r5, r1
    releaseBuffer();
   daa9e:	f7ff ffe9 	bl	daa74 <_ZN3UDP13releaseBufferEv>

    _buffer = buffer;
    _buffer_size = 0;
   daaa2:	2300      	movs	r3, #0
}

bool UDP::setBuffer(size_t buf_size, uint8_t* buffer) {
    releaseBuffer();

    _buffer = buffer;
   daaa4:	63e6      	str	r6, [r4, #60]	; 0x3c
    _buffer_size = 0;
   daaa6:	6423      	str	r3, [r4, #64]	; 0x40
    if (!_buffer && buf_size) {         // requested allocation
   daaa8:	b93e      	cbnz	r6, daaba <_ZN3UDP9setBufferEjPh+0x24>
   daaaa:	b135      	cbz	r5, daaba <_ZN3UDP9setBufferEjPh+0x24>
        _buffer = new uint8_t[buf_size];
   daaac:	4628      	mov	r0, r5
   daaae:	f7f9 faf4 	bl	d409a <_Znaj>
        _buffer_allocated = true;
   daab2:	2301      	movs	r3, #1
    releaseBuffer();

    _buffer = buffer;
    _buffer_size = 0;
    if (!_buffer && buf_size) {         // requested allocation
        _buffer = new uint8_t[buf_size];
   daab4:	63e0      	str	r0, [r4, #60]	; 0x3c
        _buffer_allocated = true;
   daab6:	f884 3048 	strb.w	r3, [r4, #72]	; 0x48
    }
    if (_buffer) {
   daaba:	6be3      	ldr	r3, [r4, #60]	; 0x3c
   daabc:	b103      	cbz	r3, daac0 <_ZN3UDP9setBufferEjPh+0x2a>
        _buffer_size = buf_size;
   daabe:	6425      	str	r5, [r4, #64]	; 0x40
    }
    return _buffer_size;
   daac0:	6c20      	ldr	r0, [r4, #64]	; 0x40
}
   daac2:	3000      	adds	r0, #0
   daac4:	bf18      	it	ne
   daac6:	2001      	movne	r0, #1
   daac8:	bd70      	pop	{r4, r5, r6, pc}

000daaca <_ZN3UDP11parsePacketEv>:
    memcpy(_buffer + _offset, buffer, size);
    _offset += size;
    return size;
}

int UDP::parsePacket() {
   daaca:	b510      	push	{r4, lr}
    if (!_buffer && _buffer_size) {
   daacc:	6bc2      	ldr	r2, [r0, #60]	; 0x3c
    memcpy(_buffer + _offset, buffer, size);
    _offset += size;
    return size;
}

int UDP::parsePacket() {
   daace:	4604      	mov	r4, r0
    if (!_buffer && _buffer_size) {
   daad0:	b91a      	cbnz	r2, daada <_ZN3UDP11parsePacketEv+0x10>
   daad2:	6c01      	ldr	r1, [r0, #64]	; 0x40
   daad4:	b109      	cbz	r1, daada <_ZN3UDP11parsePacketEv+0x10>
        setBuffer(_buffer_size);
   daad6:	f7ff ffde 	bl	daa96 <_ZN3UDP9setBufferEjPh>
    }

    flush_buffer();         // start a new read - discard the old data
    if (_buffer && _buffer_size) {
   daada:	6be1      	ldr	r1, [r4, #60]	; 0x3c

void UDP::flush() {
}

void UDP::flush_buffer() {
    _offset = 0;
   daadc:	2300      	movs	r3, #0
   daade:	86e3      	strh	r3, [r4, #54]	; 0x36
    _total = 0;
   daae0:	8723      	strh	r3, [r4, #56]	; 0x38
    if (!_buffer && _buffer_size) {
        setBuffer(_buffer_size);
    }

    flush_buffer();         // start a new read - discard the old data
    if (_buffer && _buffer_size) {
   daae2:	b141      	cbz	r1, daaf6 <_ZN3UDP11parsePacketEv+0x2c>
   daae4:	6c22      	ldr	r2, [r4, #64]	; 0x40
   daae6:	b132      	cbz	r2, daaf6 <_ZN3UDP11parsePacketEv+0x2c>
        int result = receivePacket(_buffer, _buffer_size);
   daae8:	6823      	ldr	r3, [r4, #0]
   daaea:	4620      	mov	r0, r4
   daaec:	6b1b      	ldr	r3, [r3, #48]	; 0x30
   daaee:	4798      	blx	r3
        if (result > 0) {
   daaf0:	2800      	cmp	r0, #0
            _total = result;
   daaf2:	bfc8      	it	gt
   daaf4:	8720      	strhgt	r0, [r4, #56]	; 0x38
        }
    }
    return available();
   daaf6:	6823      	ldr	r3, [r4, #0]
   daaf8:	4620      	mov	r0, r4
   daafa:	691b      	ldr	r3, [r3, #16]
}
   daafc:	e8bd 4010 	ldmia.w	sp!, {r4, lr}
        int result = receivePacket(_buffer, _buffer_size);
        if (result > 0) {
            _total = result;
        }
    }
    return available();
   dab00:	4718      	bx	r3
	...

000dab04 <_ZN3UDP11beginPacketE9IPAddresst>:
    }

    return -1;
}

int UDP::beginPacket(IPAddress ip, uint16_t port) {
   dab04:	b5f0      	push	{r4, r5, r6, r7, lr}
   dab06:	b091      	sub	sp, #68	; 0x44
	LOG(TRACE, "begin packet %s:%d", ip.toString().c_str(), port);
   dab08:	2320      	movs	r3, #32
    }

    return -1;
}

int UDP::beginPacket(IPAddress ip, uint16_t port) {
   dab0a:	4605      	mov	r5, r0
	LOG(TRACE, "begin packet %s:%d", ip.toString().c_str(), port);
   dab0c:	2600      	movs	r6, #0
   dab0e:	a804      	add	r0, sp, #16
    }

    return -1;
}

int UDP::beginPacket(IPAddress ip, uint16_t port) {
   dab10:	4617      	mov	r7, r2
   dab12:	460c      	mov	r4, r1
	LOG(TRACE, "begin packet %s:%d", ip.toString().c_str(), port);
   dab14:	9308      	str	r3, [sp, #32]
   dab16:	9609      	str	r6, [sp, #36]	; 0x24
   dab18:	f7ff fc5a 	bl	da3d0 <_ZN6StringC1ERK9Printable>
   dab1c:	9b04      	ldr	r3, [sp, #16]
   dab1e:	9301      	str	r3, [sp, #4]
   dab20:	4b10      	ldr	r3, [pc, #64]	; (dab64 <_ZN3UDP11beginPacketE9IPAddresst+0x60>)
   dab22:	9300      	str	r3, [sp, #0]
   dab24:	aa08      	add	r2, sp, #32
   dab26:	4633      	mov	r3, r6
   dab28:	490f      	ldr	r1, [pc, #60]	; (dab68 <_ZN3UDP11beginPacketE9IPAddresst+0x64>)
   dab2a:	9702      	str	r7, [sp, #8]
   dab2c:	2001      	movs	r0, #1
   dab2e:	f7fe faef 	bl	d9110 <log_message>
   dab32:	a804      	add	r0, sp, #16
   dab34:	f7ff fb12 	bl	da15c <_ZN6StringD1Ev>
    // default behavior previously was to use a 512 byte buffer, so instantiate that if not already done
    if (!_buffer && _buffer_size) {
   dab38:	6bea      	ldr	r2, [r5, #60]	; 0x3c
   dab3a:	b922      	cbnz	r2, dab46 <_ZN3UDP11beginPacketE9IPAddresst+0x42>
   dab3c:	6c29      	ldr	r1, [r5, #64]	; 0x40
   dab3e:	b111      	cbz	r1, dab46 <_ZN3UDP11beginPacketE9IPAddresst+0x42>
        setBuffer(_buffer_size);
   dab40:	4628      	mov	r0, r5
   dab42:	f7ff ffa8 	bl	daa96 <_ZN3UDP9setBufferEjPh>

/**
 * The IP address stored in host order.
 *
 */
class IPAddress : public Printable {
   dab46:	3404      	adds	r4, #4
   dab48:	cc0f      	ldmia	r4!, {r0, r1, r2, r3}
   dab4a:	f105 0620 	add.w	r6, r5, #32
   dab4e:	c60f      	stmia	r6!, {r0, r1, r2, r3}
   dab50:	6823      	ldr	r3, [r4, #0]
   dab52:	7033      	strb	r3, [r6, #0]

    _remoteIP = ip;
    _remotePort = port;
    flush_buffer(); // clear buffer
    return _buffer_size;
}
   dab54:	6c28      	ldr	r0, [r5, #64]	; 0x40
    if (!_buffer && _buffer_size) {
        setBuffer(_buffer_size);
    }

    _remoteIP = ip;
    _remotePort = port;
   dab56:	86af      	strh	r7, [r5, #52]	; 0x34

void UDP::flush() {
}

void UDP::flush_buffer() {
    _offset = 0;
   dab58:	2300      	movs	r3, #0
   dab5a:	86eb      	strh	r3, [r5, #54]	; 0x36
    _total = 0;
   dab5c:	872b      	strh	r3, [r5, #56]	; 0x38

    _remoteIP = ip;
    _remotePort = port;
    flush_buffer(); // clear buffer
    return _buffer_size;
}
   dab5e:	b011      	add	sp, #68	; 0x44
   dab60:	bdf0      	pop	{r4, r5, r6, r7, pc}
   dab62:	bf00      	nop
   dab64:	000de258 	.word	0x000de258
   dab68:	000de1b1 	.word	0x000de1b1

000dab6c <_ZN3UDP13joinMulticastERK9IPAddress>:
    // can't use available() since this is a `const` method, and available is part of the Stream interface, and is non-const.
    int size = _total - _offset;
    return p.write(_buffer + _offset, size);
}

int UDP::joinMulticast(const IPAddress& ip) {
   dab6c:	4602      	mov	r2, r0
    if (!isOpen(_sock)) {
   dab6e:	6940      	ldr	r0, [r0, #20]
   dab70:	2800      	cmp	r0, #0
   dab72:	db04      	blt.n	dab7e <_ZN3UDP13joinMulticastERK9IPAddress+0x12>
        return -1;
    }
    return joinLeaveMulticast(_sock, ip, _nif, true);
   dab74:	2301      	movs	r3, #1
   dab76:	f892 2044 	ldrb.w	r2, [r2, #68]	; 0x44
   dab7a:	f7ff be19 	b.w	da7b0 <_ZN12_GLOBAL__N_118joinLeaveMulticastEiRK9IPAddresshb.constprop.5>
}
   dab7e:	f04f 30ff 	mov.w	r0, #4294967295	; 0xffffffff
   dab82:	4770      	bx	lr

000dab84 <_ZN11USARTSerialD1Ev>:
private:
  HAL_USART_Serial _serial;
  bool _blocking;
public:
  USARTSerial(HAL_USART_Serial serial, Ring_Buffer *rx_buffer, Ring_Buffer *tx_buffer);
  virtual ~USARTSerial() {};
   dab84:	4770      	bx	lr

000dab86 <_ZN11USARTSerial14blockOnOverrunEb>:
    HAL_USART_Half_Duplex(_serial, Enable);
}

void USARTSerial::blockOnOverrun(bool block)
{
  _blocking = block;
   dab86:	7441      	strb	r1, [r0, #17]
   dab88:	4770      	bx	lr

000dab8a <_ZN11USARTSerial17availableForWriteEv>:
}


int USARTSerial::availableForWrite(void)
{
  return HAL_USART_Available_Data_For_Write(_serial);
   dab8a:	7c00      	ldrb	r0, [r0, #16]
   dab8c:	f7fe ba78 	b.w	d9080 <HAL_USART_Available_Data_For_Write>

000dab90 <_ZN11USARTSerial9availableEv>:
}

int USARTSerial::available(void)
{
  return HAL_USART_Available_Data(_serial);
   dab90:	7c00      	ldrb	r0, [r0, #16]
   dab92:	f7fe ba4d 	b.w	d9030 <HAL_USART_Available_Data>

000dab96 <_ZN11USARTSerial4peekEv>:
}

int USARTSerial::peek(void)
{
  return HAL_USART_Peek_Data(_serial);
   dab96:	7c00      	ldrb	r0, [r0, #16]
   dab98:	f7fe ba5a 	b.w	d9050 <HAL_USART_Peek_Data>

000dab9c <_ZN11USARTSerial4readEv>:
}

int USARTSerial::read(void)
{
  return HAL_USART_Read_Data(_serial);
   dab9c:	7c00      	ldrb	r0, [r0, #16]
   dab9e:	f7fe ba4f 	b.w	d9040 <HAL_USART_Read_Data>

000daba2 <_ZN11USARTSerial5flushEv>:
}

void USARTSerial::flush()
{
  HAL_USART_Flush_Data(_serial);
   daba2:	7c00      	ldrb	r0, [r0, #16]
   daba4:	f7fe ba5c 	b.w	d9060 <HAL_USART_Flush_Data>

000daba8 <_ZN11USARTSerialD0Ev>:
   daba8:	b510      	push	{r4, lr}
   dabaa:	4604      	mov	r4, r0
   dabac:	f7f9 fa77 	bl	d409e <_ZdlPv>
   dabb0:	4620      	mov	r0, r4
   dabb2:	bd10      	pop	{r4, pc}

000dabb4 <_ZN11USARTSerial5writeEh>:
}

size_t USARTSerial::write(uint8_t c)
{
   dabb4:	b570      	push	{r4, r5, r6, lr}
  // attempt a write if blocking, or for non-blocking if there is room.
  if (_blocking || HAL_USART_Available_Data_For_Write(_serial) > 0) {
   dabb6:	7c45      	ldrb	r5, [r0, #17]
{
  HAL_USART_Flush_Data(_serial);
}

size_t USARTSerial::write(uint8_t c)
{
   dabb8:	4604      	mov	r4, r0
   dabba:	460e      	mov	r6, r1
  // attempt a write if blocking, or for non-blocking if there is room.
  if (_blocking || HAL_USART_Available_Data_For_Write(_serial) > 0) {
   dabbc:	b925      	cbnz	r5, dabc8 <_ZN11USARTSerial5writeEh+0x14>
   dabbe:	7c00      	ldrb	r0, [r0, #16]
   dabc0:	f7fe fa5e 	bl	d9080 <HAL_USART_Available_Data_For_Write>
   dabc4:	2800      	cmp	r0, #0
   dabc6:	dd05      	ble.n	dabd4 <_ZN11USARTSerial5writeEh+0x20>
    // the HAL always blocks.
	  return HAL_USART_Write_Data(_serial, c);
   dabc8:	4631      	mov	r1, r6
   dabca:	7c20      	ldrb	r0, [r4, #16]
  }
  return 0;
}
   dabcc:	e8bd 4070 	ldmia.w	sp!, {r4, r5, r6, lr}
size_t USARTSerial::write(uint8_t c)
{
  // attempt a write if blocking, or for non-blocking if there is room.
  if (_blocking || HAL_USART_Available_Data_For_Write(_serial) > 0) {
    // the HAL always blocks.
	  return HAL_USART_Write_Data(_serial, c);
   dabd0:	f7fe ba26 	b.w	d9020 <HAL_USART_Write_Data>
  }
  return 0;
}
   dabd4:	4628      	mov	r0, r5
   dabd6:	bd70      	pop	{r4, r5, r6, pc}

000dabd8 <_ZN11USARTSerialC1E16HAL_USART_SerialP11Ring_BufferS2_>:
#include "spark_wiring_constants.h"
#include "module_info.h"

// Constructors ////////////////////////////////////////////////////////////////

USARTSerial::USARTSerial(HAL_USART_Serial serial, Ring_Buffer *rx_buffer, Ring_Buffer *tx_buffer)
   dabd8:	b510      	push	{r4, lr}
   dabda:	4604      	mov	r4, r0
   dabdc:	4608      	mov	r0, r1
   dabde:	4611      	mov	r1, r2
   dabe0:	2200      	movs	r2, #0
   dabe2:	6062      	str	r2, [r4, #4]
   dabe4:	f44f 727a 	mov.w	r2, #1000	; 0x3e8
   dabe8:	60a2      	str	r2, [r4, #8]
   dabea:	4a05      	ldr	r2, [pc, #20]	; (dac00 <_ZN11USARTSerialC1E16HAL_USART_SerialP11Ring_BufferS2_+0x28>)
   dabec:	6022      	str	r2, [r4, #0]
{
  _serial = serial;
  // Default is blocking mode
  _blocking = true;
   dabee:	2201      	movs	r2, #1

// Constructors ////////////////////////////////////////////////////////////////

USARTSerial::USARTSerial(HAL_USART_Serial serial, Ring_Buffer *rx_buffer, Ring_Buffer *tx_buffer)
{
  _serial = serial;
   dabf0:	7420      	strb	r0, [r4, #16]
  // Default is blocking mode
  _blocking = true;
   dabf2:	7462      	strb	r2, [r4, #17]
  HAL_USART_Init(serial, rx_buffer, tx_buffer);
   dabf4:	461a      	mov	r2, r3
   dabf6:	f7fe fa0b 	bl	d9010 <HAL_USART_Init>
}
   dabfa:	4620      	mov	r0, r4
   dabfc:	bd10      	pop	{r4, pc}
   dabfe:	bf00      	nop
   dac00:	000de2e4 	.word	0x000de2e4

000dac04 <_ZN11USARTSerial9isEnabledEv>:
USARTSerial::operator bool() {
  return true;
}

bool USARTSerial::isEnabled() {
  return HAL_USART_Is_Enabled(_serial);
   dac04:	7c00      	ldrb	r0, [r0, #16]
   dac06:	f7fe ba33 	b.w	d9070 <HAL_USART_Is_Enabled>
	...

000dac0c <_Z22__fetch_global_Serial1v>:
static Ring_Buffer* serial1_rx_buffer = NULL;
static Ring_Buffer* serial1_tx_buffer = NULL;
#endif

USARTSerial& __fetch_global_Serial1()
{
   dac0c:	b538      	push	{r3, r4, r5, lr}
#if ((MODULE_FUNCTION == MOD_FUNC_USER_PART) || (MODULE_FUNCTION == MOD_FUNC_MONO_FIRMWARE))
	static USARTSerial serial1(HAL_USART_SERIAL1, &serial1_rx_buffer, &serial1_tx_buffer);
   dac0e:	4d0c      	ldr	r5, [pc, #48]	; (dac40 <_Z22__fetch_global_Serial1v+0x34>)
   dac10:	6829      	ldr	r1, [r5, #0]
   dac12:	f011 0401 	ands.w	r4, r1, #1
   dac16:	d111      	bne.n	dac3c <_Z22__fetch_global_Serial1v+0x30>
   dac18:	4628      	mov	r0, r5
   dac1a:	f7f9 fa5b 	bl	d40d4 <__cxa_guard_acquire>
   dac1e:	b168      	cbz	r0, dac3c <_Z22__fetch_global_Serial1v+0x30>
   dac20:	4a08      	ldr	r2, [pc, #32]	; (dac44 <_Z22__fetch_global_Serial1v+0x38>)
   dac22:	4b09      	ldr	r3, [pc, #36]	; (dac48 <_Z22__fetch_global_Serial1v+0x3c>)
   dac24:	4809      	ldr	r0, [pc, #36]	; (dac4c <_Z22__fetch_global_Serial1v+0x40>)
   dac26:	4621      	mov	r1, r4
   dac28:	f7ff ffd6 	bl	dabd8 <_ZN11USARTSerialC1E16HAL_USART_SerialP11Ring_BufferS2_>
   dac2c:	4628      	mov	r0, r5
   dac2e:	f7f9 fa56 	bl	d40de <__cxa_guard_release>
   dac32:	4a07      	ldr	r2, [pc, #28]	; (dac50 <_Z22__fetch_global_Serial1v+0x44>)
   dac34:	4907      	ldr	r1, [pc, #28]	; (dac54 <_Z22__fetch_global_Serial1v+0x48>)
   dac36:	4805      	ldr	r0, [pc, #20]	; (dac4c <_Z22__fetch_global_Serial1v+0x40>)
   dac38:	f000 fa84 	bl	db144 <__aeabi_atexit>
    serial1_tx_buffer = new Ring_Buffer();
  }
  static USARTSerial serial1(HAL_USART_SERIAL1, serial1_rx_buffer, serial1_tx_buffer);
#endif
	return serial1;
}
   dac3c:	4803      	ldr	r0, [pc, #12]	; (dac4c <_Z22__fetch_global_Serial1v+0x40>)
   dac3e:	bd38      	pop	{r3, r4, r5, pc}
   dac40:	2003e678 	.word	0x2003e678
   dac44:	2003e67c 	.word	0x2003e67c
   dac48:	2003e5f4 	.word	0x2003e5f4
   dac4c:	2003e5e0 	.word	0x2003e5e0
   dac50:	2003e12c 	.word	0x2003e12c
   dac54:	000dab85 	.word	0x000dab85

000dac58 <_ZN9USBSerial14blockOnOverrunEb>:
  HAL_USB_USART_Flush_Data(_serial);
}

void USBSerial::blockOnOverrun(bool block)
{
  _blocking = block;
   dac58:	7441      	strb	r1, [r0, #17]
   dac5a:	4770      	bx	lr

000dac5c <_ZN9USBSerialD1Ev>:
#include "usb_hal.h"
#include "system_task.h"
#include "spark_wiring_startup.h"
#include "concurrent_hal.h"

class USBSerial : public Stream
   dac5c:	4770      	bx	lr

000dac5e <_ZN9USBSerial4readEv>:


// Read data from buffer
int USBSerial::read()
{
	return HAL_USB_USART_Receive_Data(_serial, false);
   dac5e:	2100      	movs	r1, #0
   dac60:	7c00      	ldrb	r0, [r0, #16]
   dac62:	f7fe ba35 	b.w	d90d0 <HAL_USB_USART_Receive_Data>

000dac66 <_ZN9USBSerial4peekEv>:
  _blocking = block;
}

int USBSerial::peek()
{
	return HAL_USB_USART_Receive_Data(_serial, true);
   dac66:	2101      	movs	r1, #1
   dac68:	7c00      	ldrb	r0, [r0, #16]
   dac6a:	f7fe ba31 	b.w	d90d0 <HAL_USB_USART_Receive_Data>

000dac6e <_ZN9USBSerial17availableForWriteEv>:
	return HAL_USB_USART_Receive_Data(_serial, false);
}

int USBSerial::availableForWrite()
{
  return HAL_USB_USART_Available_Data_For_Write(_serial);
   dac6e:	7c00      	ldrb	r0, [r0, #16]
   dac70:	f7fe ba26 	b.w	d90c0 <HAL_USB_USART_Available_Data_For_Write>

000dac74 <_ZN9USBSerial9availableEv>:
}

int USBSerial::available()
{
	return HAL_USB_USART_Available_Data(_serial);
   dac74:	7c00      	ldrb	r0, [r0, #16]
   dac76:	f7fe ba1b 	b.w	d90b0 <HAL_USB_USART_Available_Data>

000dac7a <_ZN9USBSerial5writeEh>:
}

size_t USBSerial::write(uint8_t byte)
{
   dac7a:	b538      	push	{r3, r4, r5, lr}
   dac7c:	4604      	mov	r4, r0
  if (HAL_USB_USART_Available_Data_For_Write(_serial) > 0 || _blocking) {
   dac7e:	7c00      	ldrb	r0, [r0, #16]
{
	return HAL_USB_USART_Available_Data(_serial);
}

size_t USBSerial::write(uint8_t byte)
{
   dac80:	460d      	mov	r5, r1
  if (HAL_USB_USART_Available_Data_For_Write(_serial) > 0 || _blocking) {
   dac82:	f7fe fa1d 	bl	d90c0 <HAL_USB_USART_Available_Data_For_Write>
   dac86:	2800      	cmp	r0, #0
   dac88:	dc01      	bgt.n	dac8e <_ZN9USBSerial5writeEh+0x14>
   dac8a:	7c60      	ldrb	r0, [r4, #17]
   dac8c:	b120      	cbz	r0, dac98 <_ZN9USBSerial5writeEh+0x1e>
    HAL_USB_USART_Send_Data(_serial, byte);
   dac8e:	4629      	mov	r1, r5
   dac90:	7c20      	ldrb	r0, [r4, #16]
   dac92:	f7fe fa25 	bl	d90e0 <HAL_USB_USART_Send_Data>
    return 1;
   dac96:	2001      	movs	r0, #1
  }
  return 0;
}
   dac98:	bd38      	pop	{r3, r4, r5, pc}

000dac9a <_ZN9USBSerial5flushEv>:

void USBSerial::flush()
{
  HAL_USB_USART_Flush_Data(_serial);
   dac9a:	7c00      	ldrb	r0, [r0, #16]
   dac9c:	f7fe ba28 	b.w	d90f0 <HAL_USB_USART_Flush_Data>

000daca0 <_ZN9USBSerialD0Ev>:
   daca0:	b510      	push	{r4, lr}
   daca2:	4604      	mov	r4, r0
   daca4:	f7f9 f9fb 	bl	d409e <_ZdlPv>
   daca8:	4620      	mov	r0, r4
   dacaa:	bd10      	pop	{r4, pc}

000dacac <_ZN9USBSerialC1E20HAL_USB_USART_SerialRK20HAL_USB_USART_Config>:

  HAL_USB_USART_Config conf = acquireSerialBuffer();
  HAL_USB_USART_Init(_serial, &conf);
}

USBSerial::USBSerial(HAL_USB_USART_Serial serial, const HAL_USB_USART_Config& conf)
   dacac:	b510      	push	{r4, lr}
   dacae:	4604      	mov	r4, r0
   dacb0:	2300      	movs	r3, #0
   dacb2:	6063      	str	r3, [r4, #4]
   dacb4:	f44f 737a 	mov.w	r3, #1000	; 0x3e8
   dacb8:	60a3      	str	r3, [r4, #8]
   dacba:	4b05      	ldr	r3, [pc, #20]	; (dacd0 <_ZN9USBSerialC1E20HAL_USB_USART_SerialRK20HAL_USB_USART_Config+0x24>)
   dacbc:	6023      	str	r3, [r4, #0]
{
  _serial = serial;
  _blocking = true;
   dacbe:	2301      	movs	r3, #1

  HAL_USB_USART_Config conf = acquireSerialBuffer();
  HAL_USB_USART_Init(_serial, &conf);
}

USBSerial::USBSerial(HAL_USB_USART_Serial serial, const HAL_USB_USART_Config& conf)
   dacc0:	4608      	mov	r0, r1
{
  _serial = serial;
   dacc2:	7421      	strb	r1, [r4, #16]
  _blocking = true;
   dacc4:	7463      	strb	r3, [r4, #17]

  HAL_USB_USART_Init(_serial, &conf);
   dacc6:	4611      	mov	r1, r2
   dacc8:	f7fe f9e2 	bl	d9090 <HAL_USB_USART_Init>
}
   daccc:	4620      	mov	r0, r4
   dacce:	bd10      	pop	{r4, pc}
   dacd0:	000de314 	.word	0x000de314

000dacd4 <_ZN9USBSerial5beginEl>:
// Public methods
//

void USBSerial::begin(long speed)
{
    HAL_USB_USART_Begin(_serial, speed, NULL);
   dacd4:	2200      	movs	r2, #0
   dacd6:	7c00      	ldrb	r0, [r0, #16]
   dacd8:	f7fe b9e2 	b.w	d90a0 <HAL_USB_USART_Begin>

000dacdc <_Z19acquireSerialBufferv>:

// Preinstantiate Objects //////////////////////////////////////////////////////
#ifdef SPARK_USB_SERIAL

HAL_USB_USART_Config __attribute__((weak)) acquireSerialBuffer()
{
   dacdc:	b510      	push	{r4, lr}
  HAL_USB_USART_Config conf = {0};
   dacde:	2214      	movs	r2, #20

// Preinstantiate Objects //////////////////////////////////////////////////////
#ifdef SPARK_USB_SERIAL

HAL_USB_USART_Config __attribute__((weak)) acquireSerialBuffer()
{
   dace0:	4604      	mov	r4, r0
  HAL_USB_USART_Config conf = {0};
   dace2:	2100      	movs	r1, #0
   dace4:	f001 f8a4 	bl	dbe30 <memset>
  conf.rx_buffer_size = USB_RX_BUFFER_SIZE;
  conf.tx_buffer_size = USB_TX_BUFFER_SIZE;
#endif

  return conf;
}
   dace8:	4620      	mov	r0, r4
   dacea:	bd10      	pop	{r4, pc}

000dacec <_Z16_fetch_usbserialv>:

USBSerial& _fetch_usbserial()
{
   dacec:	b530      	push	{r4, r5, lr}
  HAL_USB_USART_Config conf = acquireSerialBuffer();
	static USBSerial _usbserial(HAL_USB_USART_SERIAL, conf);
   dacee:	4d0e      	ldr	r5, [pc, #56]	; (dad28 <_Z16_fetch_usbserialv+0x3c>)

  return conf;
}

USBSerial& _fetch_usbserial()
{
   dacf0:	b087      	sub	sp, #28
  HAL_USB_USART_Config conf = acquireSerialBuffer();
   dacf2:	a801      	add	r0, sp, #4
   dacf4:	f7ff fff2 	bl	dacdc <_Z19acquireSerialBufferv>
	static USBSerial _usbserial(HAL_USB_USART_SERIAL, conf);
   dacf8:	6829      	ldr	r1, [r5, #0]
   dacfa:	f011 0401 	ands.w	r4, r1, #1
   dacfe:	d110      	bne.n	dad22 <_Z16_fetch_usbserialv+0x36>
   dad00:	4628      	mov	r0, r5
   dad02:	f7f9 f9e7 	bl	d40d4 <__cxa_guard_acquire>
   dad06:	b160      	cbz	r0, dad22 <_Z16_fetch_usbserialv+0x36>
   dad08:	aa01      	add	r2, sp, #4
   dad0a:	4621      	mov	r1, r4
   dad0c:	4807      	ldr	r0, [pc, #28]	; (dad2c <_Z16_fetch_usbserialv+0x40>)
   dad0e:	f7ff ffcd 	bl	dacac <_ZN9USBSerialC1E20HAL_USB_USART_SerialRK20HAL_USB_USART_Config>
   dad12:	4628      	mov	r0, r5
   dad14:	f7f9 f9e3 	bl	d40de <__cxa_guard_release>
   dad18:	4a05      	ldr	r2, [pc, #20]	; (dad30 <_Z16_fetch_usbserialv+0x44>)
   dad1a:	4906      	ldr	r1, [pc, #24]	; (dad34 <_Z16_fetch_usbserialv+0x48>)
   dad1c:	4803      	ldr	r0, [pc, #12]	; (dad2c <_Z16_fetch_usbserialv+0x40>)
   dad1e:	f000 fa11 	bl	db144 <__aeabi_atexit>
	return _usbserial;
}
   dad22:	4802      	ldr	r0, [pc, #8]	; (dad2c <_Z16_fetch_usbserialv+0x40>)
   dad24:	b007      	add	sp, #28
   dad26:	bd30      	pop	{r4, r5, pc}
   dad28:	2003e700 	.word	0x2003e700
   dad2c:	2003e704 	.word	0x2003e704
   dad30:	2003e12c 	.word	0x2003e12c
   dad34:	000dac5d 	.word	0x000dac5d

000dad38 <_Z11str_reversePc>:

//------------------------------------------------------------------------------------------
#define BUFSIZE (sizeof(long) * 8 + 1)

//utility function used by ultoa()
__attribute__((weak)) void str_reverse(char* buffer){
   dad38:	b510      	push	{r4, lr}
   dad3a:	4604      	mov	r4, r0
	char *i, *j;
	char c;
	i=buffer;
	j=buffer + strlen(buffer)-1;
   dad3c:	f001 f8dd 	bl	dbefa <strlen>
   dad40:	3801      	subs	r0, #1
   dad42:	1823      	adds	r3, r4, r0
   dad44:	4620      	mov	r0, r4
	while(i<j){
   dad46:	4298      	cmp	r0, r3
   dad48:	d206      	bcs.n	dad58 <_Z11str_reversePc+0x20>
		c = *i;
   dad4a:	7802      	ldrb	r2, [r0, #0]
		*i = *j;
   dad4c:	7819      	ldrb	r1, [r3, #0]
   dad4e:	f800 1b01 	strb.w	r1, [r0], #1
		*j = c;
   dad52:	f803 2901 	strb.w	r2, [r3], #-1
__attribute__((weak)) void str_reverse(char* buffer){
	char *i, *j;
	char c;
	i=buffer;
	j=buffer + strlen(buffer)-1;
	while(i<j){
   dad56:	e7f6      	b.n	dad46 <_Z11str_reversePc+0xe>
   dad58:	bd10      	pop	{r4, pc}

000dad5a <ltoa>:



//convert long to string
__attribute__((weak)) char *ltoa(long N, char *str, int base)
{
   dad5a:	e92d 41f0 	stmdb	sp!, {r4, r5, r6, r7, r8, lr}
      int i = 2;
      long uarg;
      char *tail, *head = str, buf[BUFSIZE];

      if (36 < base || 2 > base)
   dad5e:	1e93      	subs	r3, r2, #2
            base = 10;                    /* can only use 0-9, A-Z        */
   dad60:	2b23      	cmp	r3, #35	; 0x23



//convert long to string
__attribute__((weak)) char *ltoa(long N, char *str, int base)
{
   dad62:	4615      	mov	r5, r2
   dad64:	b08c      	sub	sp, #48	; 0x30
      int i = 2;
      long uarg;
      char *tail, *head = str, buf[BUFSIZE];

      if (36 < base || 2 > base)
            base = 10;                    /* can only use 0-9, A-Z        */
   dad66:	bf34      	ite	cc
   dad68:	4615      	movcc	r5, r2
   dad6a:	250a      	movcs	r5, #10
      tail = &buf[BUFSIZE - 1];           /* last character position      */
      *tail-- = '\0';
   dad6c:	2300      	movs	r3, #0

      if (10 == base && N < 0L)
   dad6e:	2d0a      	cmp	r5, #10



//convert long to string
__attribute__((weak)) char *ltoa(long N, char *str, int base)
{
   dad70:	460c      	mov	r4, r1
      char *tail, *head = str, buf[BUFSIZE];

      if (36 < base || 2 > base)
            base = 10;                    /* can only use 0-9, A-Z        */
      tail = &buf[BUFSIZE - 1];           /* last character position      */
      *tail-- = '\0';
   dad72:	f88d 302c 	strb.w	r3, [sp, #44]	; 0x2c

      if (10 == base && N < 0L)
   dad76:	d107      	bne.n	dad88 <ltoa+0x2e>
   dad78:	4298      	cmp	r0, r3
   dad7a:	da05      	bge.n	dad88 <ltoa+0x2e>
      {
            *head++ = '-';
   dad7c:	232d      	movs	r3, #45	; 0x2d
   dad7e:	f101 0801 	add.w	r8, r1, #1
   dad82:	700b      	strb	r3, [r1, #0]
            uarg    = -N;
   dad84:	4240      	negs	r0, r0
   dad86:	e001      	b.n	dad8c <ltoa+0x32>
      }
      else  uarg = N;

      if (uarg)
   dad88:	b1b0      	cbz	r0, dadb8 <ltoa+0x5e>
   dad8a:	46a0      	mov	r8, r4
   dad8c:	f10d 062b 	add.w	r6, sp, #43	; 0x2b
   dad90:	2701      	movs	r7, #1
      {
            for (i = 1; uarg; ++i)
            {
                  ldiv_t r;

                  r       = ldiv(uarg, base);
   dad92:	462a      	mov	r2, r5
   dad94:	4601      	mov	r1, r0
   dad96:	a801      	add	r0, sp, #4
   dad98:	f001 f81c 	bl	dbdd4 <ldiv>
   dad9c:	9b02      	ldr	r3, [sp, #8]
                  *tail-- = (char)(r.rem + ((9L < r.rem) ?
                                  ('A' - 10L) : '0'));
                  uarg    = r.quot;
   dad9e:	9801      	ldr	r0, [sp, #4]
            {
                  ldiv_t r;

                  r       = ldiv(uarg, base);
                  *tail-- = (char)(r.rem + ((9L < r.rem) ?
                                  ('A' - 10L) : '0'));
   dada0:	2b09      	cmp	r3, #9
   dada2:	bfcc      	ite	gt
   dada4:	2237      	movgt	r2, #55	; 0x37
   dada6:	2230      	movle	r2, #48	; 0x30
   dada8:	fa52 f383 	uxtab	r3, r2, r3
   dadac:	f806 3901 	strb.w	r3, [r6], #-1
      }
      else  uarg = N;

      if (uarg)
      {
            for (i = 1; uarg; ++i)
   dadb0:	3701      	adds	r7, #1
   dadb2:	2800      	cmp	r0, #0
   dadb4:	d1ed      	bne.n	dad92 <ltoa+0x38>
   dadb6:	e006      	b.n	dadc6 <ltoa+0x6c>
                  *tail-- = (char)(r.rem + ((9L < r.rem) ?
                                  ('A' - 10L) : '0'));
                  uarg    = r.quot;
            }
      }
      else  *tail-- = '0';
   dadb8:	2330      	movs	r3, #48	; 0x30
   dadba:	f88d 302b 	strb.w	r3, [sp, #43]	; 0x2b
   dadbe:	46a0      	mov	r8, r4
   dadc0:	f10d 062a 	add.w	r6, sp, #42	; 0x2a


//convert long to string
__attribute__((weak)) char *ltoa(long N, char *str, int base)
{
      int i = 2;
   dadc4:	2702      	movs	r7, #2
                  uarg    = r.quot;
            }
      }
      else  *tail-- = '0';

      memcpy(head, ++tail, i);
   dadc6:	463a      	mov	r2, r7
   dadc8:	1c71      	adds	r1, r6, #1
   dadca:	4640      	mov	r0, r8
   dadcc:	f001 f825 	bl	dbe1a <memcpy>
      return str;
}
   dadd0:	4620      	mov	r0, r4
   dadd2:	b00c      	add	sp, #48	; 0x30
   dadd4:	e8bd 81f0 	ldmia.w	sp!, {r4, r5, r6, r7, r8, pc}

000dadd8 <ultoa>:

//convert unsigned long to string
__attribute__((weak)) char* ultoa(unsigned long a, char* buffer, int radix, char pad){
   dadd8:	b570      	push	{r4, r5, r6, lr}
   dadda:	460c      	mov	r4, r1
	if(radix<2 || radix>36){
   daddc:	1e91      	subs	r1, r2, #2
   dadde:	2922      	cmp	r1, #34	; 0x22
   dade0:	d820      	bhi.n	dae24 <ultoa+0x4c>
   dade2:	4625      	mov	r5, r4
   dade4:	4629      	mov	r1, r5
		return NULL;
	}
	char* ptr=buffer;

	div_t result;
	while(a){
   dade6:	b910      	cbnz	r0, dadee <ultoa+0x16>
                *ptr += 'a'-10;
            }
            ++ptr;
            a = result.quot;
	}
        while (ptr < buffer+pad)
   dade8:	4423      	add	r3, r4
            *ptr++ = '0';
   dadea:	2230      	movs	r2, #48	; 0x30
   dadec:	e00e      	b.n	dae0c <ultoa+0x34>
	div_t result;
	while(a){
            /* toolchain bug??
            result = div(a, radix);
            */
            result.quot = a/radix;
   dadee:	fbb0 f6f2 	udiv	r6, r0, r2
            result.rem = a%radix;
   dadf2:	fb02 0016 	mls	r0, r2, r6, r0
            *ptr = result.rem;
   dadf6:	b2c1      	uxtb	r1, r0
   dadf8:	f805 1b01 	strb.w	r1, [r5], #1
            if(result.rem<10){
   dadfc:	2809      	cmp	r0, #9
                *ptr += '0';
   dadfe:	bf94      	ite	ls
   dae00:	3130      	addls	r1, #48	; 0x30
            }else{
                *ptr += 'a'-10;
   dae02:	3157      	addhi	r1, #87	; 0x57
   dae04:	f805 1c01 	strb.w	r1, [r5, #-1]
            }
            ++ptr;
            a = result.quot;
   dae08:	4630      	mov	r0, r6
		return NULL;
	}
	char* ptr=buffer;

	div_t result;
	while(a){
   dae0a:	e7eb      	b.n	dade4 <ultoa+0xc>
                *ptr += 'a'-10;
            }
            ++ptr;
            a = result.quot;
	}
        while (ptr < buffer+pad)
   dae0c:	4299      	cmp	r1, r3
   dae0e:	d202      	bcs.n	dae16 <ultoa+0x3e>
            *ptr++ = '0';
   dae10:	f801 2b01 	strb.w	r2, [r1], #1
                *ptr += 'a'-10;
            }
            ++ptr;
            a = result.quot;
	}
        while (ptr < buffer+pad)
   dae14:	e7fa      	b.n	dae0c <ultoa+0x34>
            *ptr++ = '0';

	*ptr = '\0';
   dae16:	2300      	movs	r3, #0
	str_reverse(buffer);
   dae18:	4620      	mov	r0, r4
            a = result.quot;
	}
        while (ptr < buffer+pad)
            *ptr++ = '0';

	*ptr = '\0';
   dae1a:	700b      	strb	r3, [r1, #0]
	str_reverse(buffer);
   dae1c:	f7ff ff8c 	bl	dad38 <_Z11str_reversePc>
	return buffer;
   dae20:	4620      	mov	r0, r4
   dae22:	bd70      	pop	{r4, r5, r6, pc}
}

//convert unsigned long to string
__attribute__((weak)) char* ultoa(unsigned long a, char* buffer, int radix, char pad){
	if(radix<2 || radix>36){
		return NULL;
   dae24:	2000      	movs	r0, #0
            *ptr++ = '0';

	*ptr = '\0';
	str_reverse(buffer);
	return buffer;
}
   dae26:	bd70      	pop	{r4, r5, r6, pc}

000dae28 <itoa>:

__attribute__((weak)) char* itoa(int a, char* buffer, int radix){
   dae28:	b538      	push	{r3, r4, r5, lr}
	if(a<0){
   dae2a:	1e03      	subs	r3, r0, #0
	*ptr = '\0';
	str_reverse(buffer);
	return buffer;
}

__attribute__((weak)) char* itoa(int a, char* buffer, int radix){
   dae2c:	460c      	mov	r4, r1
   dae2e:	4615      	mov	r5, r2
	if(a<0){
   dae30:	da0b      	bge.n	dae4a <itoa+0x22>
		*buffer = '-';
		unsigned v = a==INT_MIN ? ((unsigned)INT_MAX+1) : -a;
   dae32:	f1b3 4f00 	cmp.w	r3, #2147483648	; 0x80000000
	return buffer;
}

__attribute__((weak)) char* itoa(int a, char* buffer, int radix){
	if(a<0){
		*buffer = '-';
   dae36:	f04f 022d 	mov.w	r2, #45	; 0x2d
		unsigned v = a==INT_MIN ? ((unsigned)INT_MAX+1) : -a;
   dae3a:	bf14      	ite	ne
   dae3c:	4258      	negne	r0, r3
   dae3e:	4618      	moveq	r0, r3
		ultoa((unsigned)v, buffer + 1, radix);
   dae40:	2301      	movs	r3, #1
	return buffer;
}

__attribute__((weak)) char* itoa(int a, char* buffer, int radix){
	if(a<0){
		*buffer = '-';
   dae42:	700a      	strb	r2, [r1, #0]
		unsigned v = a==INT_MIN ? ((unsigned)INT_MAX+1) : -a;
		ultoa((unsigned)v, buffer + 1, radix);
   dae44:	462a      	mov	r2, r5
   dae46:	4419      	add	r1, r3
   dae48:	e000      	b.n	dae4c <itoa+0x24>
	}else{
		ultoa(a, buffer, radix);
   dae4a:	2301      	movs	r3, #1
   dae4c:	f7ff ffc4 	bl	dadd8 <ultoa>
	}
	return buffer;
}
   dae50:	4620      	mov	r0, r4
   dae52:	bd38      	pop	{r3, r4, r5, pc}

000dae54 <serialEventRun>:

/**
 * Provides background processing of serial data.
 */
void serialEventRun()
{
   dae54:	b508      	push	{r3, lr}
    if (serialEvent && Serial.available()>0)
   dae56:	4b0c      	ldr	r3, [pc, #48]	; (dae88 <serialEventRun+0x34>)
   dae58:	b133      	cbz	r3, dae68 <serialEventRun+0x14>
   dae5a:	f7ff ff47 	bl	dacec <_Z16_fetch_usbserialv>
   dae5e:	6803      	ldr	r3, [r0, #0]
   dae60:	691b      	ldr	r3, [r3, #16]
   dae62:	4798      	blx	r3
   dae64:	2800      	cmp	r0, #0
   dae66:	dc09      	bgt.n	dae7c <serialEventRun+0x28>
        serialEvent();

    if (serialEvent1 && Serial1.available()>0)
   dae68:	4b08      	ldr	r3, [pc, #32]	; (dae8c <serialEventRun+0x38>)
   dae6a:	b163      	cbz	r3, dae86 <serialEventRun+0x32>
   dae6c:	f7ff fece 	bl	dac0c <_Z22__fetch_global_Serial1v>
   dae70:	6803      	ldr	r3, [r0, #0]
   dae72:	691b      	ldr	r3, [r3, #16]
   dae74:	4798      	blx	r3
   dae76:	2800      	cmp	r0, #0
   dae78:	dc03      	bgt.n	dae82 <serialEventRun+0x2e>
   dae7a:	bd08      	pop	{r3, pc}
 * Provides background processing of serial data.
 */
void serialEventRun()
{
    if (serialEvent && Serial.available()>0)
        serialEvent();
   dae7c:	f3af 8000 	nop.w
   dae80:	e7f2      	b.n	dae68 <serialEventRun+0x14>

    if (serialEvent1 && Serial1.available()>0)
        serialEvent1();
   dae82:	f3af 8000 	nop.w
   dae86:	bd08      	pop	{r3, pc}
	...

000dae90 <_post_loop>:
#if Wiring_Serial5
void serialEvent5() __attribute__((weak));
#endif

void _post_loop()
{
   dae90:	b508      	push	{r3, lr}
	serialEventRun();
   dae92:	f7ff ffdf 	bl	dae54 <serialEventRun>
		return !timeout_fn;
	}

	static inline system_tick_t current_time()
	{
		return HAL_Timer_Get_Milli_Seconds();
   dae96:	f7fd ff1b 	bl	d8cd0 <HAL_Timer_Get_Milli_Seconds>
	/**
	 * Lifesign that the application is still working normally.
	 */
	static void checkin()
	{
		last_checkin = current_time();
   dae9a:	4b01      	ldr	r3, [pc, #4]	; (daea0 <_post_loop+0x10>)
   dae9c:	6018      	str	r0, [r3, #0]
   dae9e:	bd08      	pop	{r3, pc}
   daea0:	2003e71c 	.word	0x2003e71c

000daea4 <_Z27ctrl_request_custom_handlerP12ctrl_request>:
bool __backup_ram_was_valid() { return false; }

#endif

// Default handler for CTRL_REQUEST_APP_CUSTOM requests
void __attribute((weak)) ctrl_request_custom_handler(ctrl_request* req) {
   daea4:	b507      	push	{r0, r1, r2, lr}
    system_ctrl_set_result(req, SYSTEM_ERROR_NOT_SUPPORTED, nullptr, nullptr, nullptr);
   daea6:	2300      	movs	r3, #0
   daea8:	9300      	str	r3, [sp, #0]
   daeaa:	461a      	mov	r2, r3
   daeac:	f06f 0177 	mvn.w	r1, #119	; 0x77
   daeb0:	f7fe f968 	bl	d9184 <system_ctrl_set_result>
}
   daeb4:	b003      	add	sp, #12
   daeb6:	f85d fb04 	ldr.w	pc, [sp], #4
	...

000daebc <_ZL20ctrl_request_handlerP12ctrl_request>:
// Callback invoked to process a logging configuration request
void(*log_process_ctrl_request_callback)(ctrl_request* req) = nullptr;
#endif

// Application handler for control requests
static void ctrl_request_handler(ctrl_request* req) {
   daebc:	b507      	push	{r0, r1, r2, lr}
    switch (req->type) {
   daebe:	8843      	ldrh	r3, [r0, #2]
   daec0:	2b0a      	cmp	r3, #10
   daec2:	d008      	beq.n	daed6 <_ZL20ctrl_request_handlerP12ctrl_request+0x1a>
   daec4:	2b50      	cmp	r3, #80	; 0x50
   daec6:	d109      	bne.n	daedc <_ZL20ctrl_request_handlerP12ctrl_request+0x20>
#if Wiring_LogConfig
    case CTRL_REQUEST_LOG_CONFIG: {
        if (log_process_ctrl_request_callback) {
   daec8:	4b09      	ldr	r3, [pc, #36]	; (daef0 <_ZL20ctrl_request_handlerP12ctrl_request+0x34>)
   daeca:	681b      	ldr	r3, [r3, #0]
   daecc:	b13b      	cbz	r3, daede <_ZL20ctrl_request_handlerP12ctrl_request+0x22>
    }
    default:
        system_ctrl_set_result(req, SYSTEM_ERROR_NOT_SUPPORTED, nullptr, nullptr, nullptr);
        break;
    }
}
   daece:	b003      	add	sp, #12
   daed0:	f85d eb04 	ldr.w	lr, [sp], #4
static void ctrl_request_handler(ctrl_request* req) {
    switch (req->type) {
#if Wiring_LogConfig
    case CTRL_REQUEST_LOG_CONFIG: {
        if (log_process_ctrl_request_callback) {
            log_process_ctrl_request_callback(req);
   daed4:	4718      	bx	r3
        }
        break;
    }
#endif
    case CTRL_REQUEST_APP_CUSTOM: {
        ctrl_request_custom_handler(req);
   daed6:	f7ff ffe5 	bl	daea4 <_Z27ctrl_request_custom_handlerP12ctrl_request>
        break;
   daeda:	e006      	b.n	daeea <_ZL20ctrl_request_handlerP12ctrl_request+0x2e>
    }
    default:
        system_ctrl_set_result(req, SYSTEM_ERROR_NOT_SUPPORTED, nullptr, nullptr, nullptr);
   daedc:	2300      	movs	r3, #0
   daede:	9300      	str	r3, [sp, #0]
   daee0:	461a      	mov	r2, r3
   daee2:	f06f 0177 	mvn.w	r1, #119	; 0x77
   daee6:	f7fe f94d 	bl	d9184 <system_ctrl_set_result>
        break;
    }
}
   daeea:	b003      	add	sp, #12
   daeec:	f85d fb04 	ldr.w	pc, [sp], #4
   daef0:	2003e718 	.word	0x2003e718

000daef4 <module_user_init_hook>:

void module_user_init_hook()
{
   daef4:	b508      	push	{r3, lr}
        uint32_t seed = HAL_RNG_GetRandomNumber();
        random_seed_from_cloud(seed);
    }
#endif
    // Register the random_seed_from_cloud handler
    spark_set_random_seed_from_cloud_handler(&random_seed_from_cloud, nullptr);
   daef6:	2100      	movs	r1, #0
   daef8:	4804      	ldr	r0, [pc, #16]	; (daf0c <module_user_init_hook+0x18>)
   daefa:	f7fe f989 	bl	d9210 <spark_set_random_seed_from_cloud_handler>

    // Register application handler for the control requests
    system_ctrl_set_app_request_handler(ctrl_request_handler, nullptr);
   daefe:	2100      	movs	r1, #0
   daf00:	4803      	ldr	r0, [pc, #12]	; (daf10 <module_user_init_hook+0x1c>)
}
   daf02:	e8bd 4008 	ldmia.w	sp!, {r3, lr}
#endif
    // Register the random_seed_from_cloud handler
    spark_set_random_seed_from_cloud_handler(&random_seed_from_cloud, nullptr);

    // Register application handler for the control requests
    system_ctrl_set_app_request_handler(ctrl_request_handler, nullptr);
   daf06:	f7fe b933 	b.w	d9170 <system_ctrl_set_app_request_handler>
   daf0a:	bf00      	nop
   daf0c:	00000000 	.word	0x00000000
   daf10:	000daebd 	.word	0x000daebd

000daf14 <pinAvailable>:

/*
 * @brief Perform safety check on desired pin to see if it's already
 * being used.  Return 0 if used, otherwise return 1 if available.
 */
bool pinAvailable(uint16_t pin) {
   daf14:	b510      	push	{r4, lr}
   daf16:	4604      	mov	r4, r0

  // SPI safety check
#ifndef SPARK_WIRING_NO_SPI
  if(SPI.isEnabled() == true && (pin == SCK || pin == MOSI || pin == MISO))
   daf18:	480f      	ldr	r0, [pc, #60]	; (daf58 <pinAvailable+0x44>)
   daf1a:	f7ff f915 	bl	da148 <_ZN8SPIClass9isEnabledEv>
   daf1e:	b128      	cbz	r0, daf2c <pinAvailable+0x18>
   daf20:	f1a4 030b 	sub.w	r3, r4, #11
   daf24:	2b02      	cmp	r3, #2
   daf26:	d801      	bhi.n	daf2c <pinAvailable+0x18>
  {
    return 0; // 'pin' is used
   daf28:	2000      	movs	r0, #0
   daf2a:	bd10      	pop	{r4, pc}
  }
#endif
  // I2C safety check
#ifndef SPARK_WIRING_NO_I2C
  if(Wire.isEnabled() == true && (pin == SCL || pin == SDA))
   daf2c:	f000 f8c8 	bl	db0c0 <_Z19__fetch_global_Wirev>
   daf30:	f7fe fd14 	bl	d995c <_ZN7TwoWire9isEnabledEv>
   daf34:	b108      	cbz	r0, daf3a <pinAvailable+0x26>
   daf36:	2c01      	cmp	r4, #1
   daf38:	d9f6      	bls.n	daf28 <pinAvailable+0x14>
    return 0; // 'pin' is used
  }
#endif
#ifndef SPARK_WIRING_NO_USART_SERIAL
  // Serial1 safety check
  if(Serial1.isEnabled() == true && (pin == RX || pin == TX))
   daf3a:	f7ff fe67 	bl	dac0c <_Z22__fetch_global_Serial1v>
   daf3e:	f7ff fe61 	bl	dac04 <_ZN11USARTSerial9isEnabledEv>
   daf42:	b118      	cbz	r0, daf4c <pinAvailable+0x38>
   daf44:	f1a4 0309 	sub.w	r3, r4, #9
   daf48:	2b01      	cmp	r3, #1
   daf4a:	d9ed      	bls.n	daf28 <pinAvailable+0x14>
  {
    return 0; // 'pin' is used
  }
#endif

  if (pin >= TOTAL_PINS)
   daf4c:	2c1e      	cmp	r4, #30
   daf4e:	bf8c      	ite	hi
   daf50:	2000      	movhi	r0, #0
   daf52:	2001      	movls	r0, #1
    return 0;
  else
    return 1; // 'pin' is available
}
   daf54:	bd10      	pop	{r4, pc}
   daf56:	bf00      	nop
   daf58:	2003e740 	.word	0x2003e740

000daf5c <pinMode>:
 * or INPUT_PULLDOWN
 */
void pinMode(uint16_t pin, PinMode setMode)
{

  if(pin >= TOTAL_PINS || setMode == PIN_MODE_NONE )
   daf5c:	281e      	cmp	r0, #30
/*
 * @brief Set the mode of the pin to OUTPUT, INPUT, INPUT_PULLUP,
 * or INPUT_PULLDOWN
 */
void pinMode(uint16_t pin, PinMode setMode)
{
   daf5e:	b538      	push	{r3, r4, r5, lr}
   daf60:	4604      	mov	r4, r0
   daf62:	460d      	mov	r5, r1

  if(pin >= TOTAL_PINS || setMode == PIN_MODE_NONE )
   daf64:	d80a      	bhi.n	daf7c <pinMode+0x20>
   daf66:	29ff      	cmp	r1, #255	; 0xff
   daf68:	d008      	beq.n	daf7c <pinMode+0x20>
  {
    return;
  }

  // Safety check
  if( !pinAvailable(pin) ) {
   daf6a:	f7ff ffd3 	bl	daf14 <pinAvailable>
   daf6e:	b128      	cbz	r0, daf7c <pinMode+0x20>
    return;
  }

  HAL_Pin_Mode(pin, setMode);
   daf70:	4629      	mov	r1, r5
   daf72:	4620      	mov	r0, r4
}
   daf74:	e8bd 4038 	ldmia.w	sp!, {r3, r4, r5, lr}
  // Safety check
  if( !pinAvailable(pin) ) {
    return;
  }

  HAL_Pin_Mode(pin, setMode);
   daf78:	f7fd bed2 	b.w	d8d20 <HAL_Pin_Mode>
   daf7c:	bd38      	pop	{r3, r4, r5, pc}

000daf7e <digitalWrite>:

/*
 * @brief Sets a GPIO pin to HIGH or LOW.
 */
void digitalWrite(pin_t pin, uint8_t value)
{
   daf7e:	b538      	push	{r3, r4, r5, lr}
   daf80:	4604      	mov	r4, r0
   daf82:	460d      	mov	r5, r1
    PinMode mode = HAL_Get_Pin_Mode(pin);
   daf84:	f7fd fed4 	bl	d8d30 <HAL_Get_Pin_Mode>
    if (mode==PIN_MODE_NONE || is_input_mode(mode))
   daf88:	28ff      	cmp	r0, #255	; 0xff
   daf8a:	d010      	beq.n	dafae <digitalWrite+0x30>
}

inline bool is_input_mode(PinMode mode) {
    return  mode == INPUT ||
            mode == INPUT_PULLUP ||
            mode == INPUT_PULLDOWN ||
   daf8c:	2806      	cmp	r0, #6
   daf8e:	d804      	bhi.n	daf9a <digitalWrite+0x1c>
   daf90:	234d      	movs	r3, #77	; 0x4d
   daf92:	fa23 f000 	lsr.w	r0, r3, r0
   daf96:	07c3      	lsls	r3, r0, #31
   daf98:	d409      	bmi.n	dafae <digitalWrite+0x30>
{
    PinMode mode = HAL_Get_Pin_Mode(pin);
    if (mode==PIN_MODE_NONE || is_input_mode(mode))
        return;
  // Safety check
  if( !pinAvailable(pin) ) {
   daf9a:	4620      	mov	r0, r4
   daf9c:	f7ff ffba 	bl	daf14 <pinAvailable>
   dafa0:	b128      	cbz	r0, dafae <digitalWrite+0x30>
    return;
  }

  HAL_GPIO_Write(pin, value);
   dafa2:	4629      	mov	r1, r5
   dafa4:	4620      	mov	r0, r4
}
   dafa6:	e8bd 4038 	ldmia.w	sp!, {r3, r4, r5, lr}
  // Safety check
  if( !pinAvailable(pin) ) {
    return;
  }

  HAL_GPIO_Write(pin, value);
   dafaa:	f7fd bec9 	b.w	d8d40 <HAL_GPIO_Write>
   dafae:	bd38      	pop	{r3, r4, r5, pc}

000dafb0 <digitalRead>:

/*
 * @brief Reads the value of a GPIO pin. Should return either 1 (HIGH) or 0 (LOW).
 */
int32_t digitalRead(pin_t pin)
{
   dafb0:	b510      	push	{r4, lr}
   dafb2:	4604      	mov	r4, r0
    PinMode mode = HAL_Get_Pin_Mode(pin);
   dafb4:	f7fd febc 	bl	d8d30 <HAL_Get_Pin_Mode>
    if (is_af_output_mode(mode))
   dafb8:	3804      	subs	r0, #4
   dafba:	b2c0      	uxtb	r0, r0
   dafbc:	2801      	cmp	r0, #1
   dafbe:	d908      	bls.n	dafd2 <digitalRead+0x22>
        return LOW;

    // Safety check
    if( !pinAvailable(pin) ) {
   dafc0:	4620      	mov	r0, r4
   dafc2:	f7ff ffa7 	bl	daf14 <pinAvailable>
   dafc6:	b120      	cbz	r0, dafd2 <digitalRead+0x22>
      return LOW;
    }

    return HAL_GPIO_Read(pin);
   dafc8:	4620      	mov	r0, r4
}
   dafca:	e8bd 4010 	ldmia.w	sp!, {r4, lr}
    // Safety check
    if( !pinAvailable(pin) ) {
      return LOW;
    }

    return HAL_GPIO_Read(pin);
   dafce:	f7fd bebf 	b.w	d8d50 <HAL_GPIO_Read>
}
   dafd2:	2000      	movs	r0, #0
   dafd4:	bd10      	pop	{r4, pc}

000dafd6 <analogRead>:
 * Note: ADC is 12-bit. Currently it returns 0-4095
 */
int32_t analogRead(pin_t pin)
{
  // Allow people to use 0-7 to define analog pins by checking to see if the values are too low.
  if(pin < FIRST_ANALOG_PIN)
   dafd6:	280d      	cmp	r0, #13
 * @brief Read the analog value of a pin.
 * Should return a 16-bit value, 0-65536 (0 = LOW, 65536 = HIGH)
 * Note: ADC is 12-bit. Currently it returns 0-4095
 */
int32_t analogRead(pin_t pin)
{
   dafd8:	b510      	push	{r4, lr}
   dafda:	4604      	mov	r4, r0
  // Allow people to use 0-7 to define analog pins by checking to see if the values are too low.
  if(pin < FIRST_ANALOG_PIN)
  {
    pin = pin + FIRST_ANALOG_PIN;
   dafdc:	bf9c      	itt	ls
   dafde:	340e      	addls	r4, #14
   dafe0:	b2a4      	uxthls	r4, r4
  }

  // Safety check
  if( !pinAvailable(pin) ) {
   dafe2:	4620      	mov	r0, r4
   dafe4:	f7ff ff96 	bl	daf14 <pinAvailable>
   dafe8:	b150      	cbz	r0, db000 <analogRead+0x2a>
    return LOW;
  }

  if(HAL_Validate_Pin_Function(pin, PF_ADC)!=PF_ADC)
   dafea:	2103      	movs	r1, #3
   dafec:	4620      	mov	r0, r4
   dafee:	f7fd fe8f 	bl	d8d10 <HAL_Validate_Pin_Function>
   daff2:	2803      	cmp	r0, #3
   daff4:	d104      	bne.n	db000 <analogRead+0x2a>
  {
    return LOW;
  }

  return HAL_ADC_Read(pin);
   daff6:	4620      	mov	r0, r4
}
   daff8:	e8bd 4010 	ldmia.w	sp!, {r4, lr}
  if(HAL_Validate_Pin_Function(pin, PF_ADC)!=PF_ADC)
  {
    return LOW;
  }

  return HAL_ADC_Read(pin);
   daffc:	f7fd bec8 	b.w	d8d90 <HAL_ADC_Read>
}
   db000:	2000      	movs	r0, #0
   db002:	bd10      	pop	{r4, pc}

000db004 <_Z11analogWritetm>:
/*
 * @brief Should take an integer 0-255 and create a 500Hz PWM signal with a duty cycle from 0-100%.
 * On Photon, DAC1 and DAC2 act as true analog outputs(values: 0 to 4095) using onchip DAC peripheral
 */
void analogWrite(pin_t pin, uint32_t value)
{
   db004:	b538      	push	{r3, r4, r5, lr}
   db006:	4604      	mov	r4, r0
   db008:	460d      	mov	r5, r1
    // Safety check
    if (!pinAvailable(pin))
   db00a:	f7ff ff83 	bl	daf14 <pinAvailable>
   db00e:	b1f0      	cbz	r0, db04e <_Z11analogWritetm+0x4a>
    {
        return;
    }

    if (HAL_Validate_Pin_Function(pin, PF_DAC) == PF_DAC)
   db010:	2104      	movs	r1, #4
   db012:	4620      	mov	r0, r4
   db014:	f7fd fe7c 	bl	d8d10 <HAL_Validate_Pin_Function>
   db018:	2804      	cmp	r0, #4
   db01a:	d105      	bne.n	db028 <_Z11analogWritetm+0x24>
    {
        HAL_DAC_Write(pin, value);
   db01c:	b2a9      	uxth	r1, r5
   db01e:	4620      	mov	r0, r4
            return;
        }

        HAL_PWM_Write_Ext(pin, value);
    }
}
   db020:	e8bd 4038 	ldmia.w	sp!, {r3, r4, r5, lr}
        return;
    }

    if (HAL_Validate_Pin_Function(pin, PF_DAC) == PF_DAC)
    {
        HAL_DAC_Write(pin, value);
   db024:	f7fd beac 	b.w	d8d80 <HAL_DAC_Write>
    }
    else if (HAL_Validate_Pin_Function(pin, PF_TIMER) == PF_TIMER)
   db028:	2102      	movs	r1, #2
   db02a:	4620      	mov	r0, r4
   db02c:	f7fd fe70 	bl	d8d10 <HAL_Validate_Pin_Function>
   db030:	2802      	cmp	r0, #2
   db032:	d10c      	bne.n	db04e <_Z11analogWritetm+0x4a>
    {
        PinMode mode = HAL_Get_Pin_Mode(pin);
   db034:	4620      	mov	r0, r4
   db036:	f7fd fe7b 	bl	d8d30 <HAL_Get_Pin_Mode>

        if (mode != OUTPUT && mode != AF_OUTPUT_PUSHPULL)
   db03a:	2801      	cmp	r0, #1
   db03c:	d001      	beq.n	db042 <_Z11analogWritetm+0x3e>
   db03e:	2804      	cmp	r0, #4
   db040:	d105      	bne.n	db04e <_Z11analogWritetm+0x4a>
        {
            return;
        }

        HAL_PWM_Write_Ext(pin, value);
   db042:	4629      	mov	r1, r5
   db044:	4620      	mov	r0, r4
    }
}
   db046:	e8bd 4038 	ldmia.w	sp!, {r3, r4, r5, lr}
        if (mode != OUTPUT && mode != AF_OUTPUT_PUSHPULL)
        {
            return;
        }

        HAL_PWM_Write_Ext(pin, value);
   db04a:	f7fd bea9 	b.w	d8da0 <HAL_PWM_Write_Ext>
   db04e:	bd38      	pop	{r3, r4, r5, pc}

000db050 <shiftOut>:
  }
  return value;
}

void shiftOut(uint8_t dataPin, uint8_t clockPin, uint8_t bitOrder, uint8_t val)
{
   db050:	e92d 41f0 	stmdb	sp!, {r4, r5, r6, r7, r8, lr}
   db054:	4690      	mov	r8, r2
   db056:	461e      	mov	r6, r3
   db058:	2407      	movs	r4, #7
   db05a:	4607      	mov	r7, r0
    if (bitOrder == LSBFIRST)
      digitalWrite(dataPin, !!(val & (1 << i)));
    else
      digitalWrite(dataPin, !!(val & (1 << (7 - i))));

    digitalWrite(clockPin, HIGH);
   db05c:	460d      	mov	r5, r1
void shiftOut(uint8_t dataPin, uint8_t clockPin, uint8_t bitOrder, uint8_t val)
{
  uint8_t i;

  for (i = 0; i < 8; i++)  {
    if (bitOrder == LSBFIRST)
   db05e:	f1b8 0f00 	cmp.w	r8, #0
   db062:	d104      	bne.n	db06e <shiftOut+0x1e>
      digitalWrite(dataPin, !!(val & (1 << i)));
   db064:	f1c4 0107 	rsb	r1, r4, #7
   db068:	fa46 f101 	asr.w	r1, r6, r1
   db06c:	e001      	b.n	db072 <shiftOut+0x22>
    else
      digitalWrite(dataPin, !!(val & (1 << (7 - i))));
   db06e:	fa46 f104 	asr.w	r1, r6, r4
   db072:	f001 0101 	and.w	r1, r1, #1
   db076:	4638      	mov	r0, r7
   db078:	f7ff ff81 	bl	daf7e <digitalWrite>

    digitalWrite(clockPin, HIGH);
   db07c:	2101      	movs	r1, #1
   db07e:	4628      	mov	r0, r5
   db080:	f7ff ff7d 	bl	daf7e <digitalWrite>
    digitalWrite(clockPin, LOW);
   db084:	2100      	movs	r1, #0
   db086:	4628      	mov	r0, r5
   db088:	f7ff ff79 	bl	daf7e <digitalWrite>

void shiftOut(uint8_t dataPin, uint8_t clockPin, uint8_t bitOrder, uint8_t val)
{
  uint8_t i;

  for (i = 0; i < 8; i++)  {
   db08c:	f114 34ff 	adds.w	r4, r4, #4294967295	; 0xffffffff
   db090:	d2e5      	bcs.n	db05e <shiftOut+0xe>
      digitalWrite(dataPin, !!(val & (1 << (7 - i))));

    digitalWrite(clockPin, HIGH);
    digitalWrite(clockPin, LOW);
  }
}
   db092:	e8bd 81f0 	ldmia.w	sp!, {r4, r5, r6, r7, r8, pc}
	...

000db098 <_Z21__fetch_global_EEPROMv>:

// we don't use this global instance since there's no actual instance data
// Having this keeps the unoptimized build happy

EEPROMClass& __fetch_global_EEPROM()
{
   db098:	b510      	push	{r4, lr}
	static EEPROMClass eeprom;
   db09a:	4c07      	ldr	r4, [pc, #28]	; (db0b8 <_Z21__fetch_global_EEPROMv+0x20>)
   db09c:	6823      	ldr	r3, [r4, #0]
   db09e:	07db      	lsls	r3, r3, #31
   db0a0:	d408      	bmi.n	db0b4 <_Z21__fetch_global_EEPROMv+0x1c>
   db0a2:	4620      	mov	r0, r4
   db0a4:	f7f9 f816 	bl	d40d4 <__cxa_guard_acquire>
   db0a8:	b120      	cbz	r0, db0b4 <_Z21__fetch_global_EEPROMv+0x1c>

struct EEPROMClass{

	EEPROMClass()
    {
    		HAL_EEPROM_Init();
   db0aa:	f7fd fe19 	bl	d8ce0 <HAL_EEPROM_Init>
   db0ae:	4620      	mov	r0, r4
   db0b0:	f7f9 f815 	bl	d40de <__cxa_guard_release>
	return eeprom;
}
   db0b4:	4801      	ldr	r0, [pc, #4]	; (db0bc <_Z21__fetch_global_EEPROMv+0x24>)
   db0b6:	bd10      	pop	{r4, pc}
   db0b8:	2003e720 	.word	0x2003e720
   db0bc:	2003e724 	.word	0x2003e724

000db0c0 <_Z19__fetch_global_Wirev>:
#include "i2c_hal.h"

#ifndef SPARK_WIRING_NO_I2C

TwoWire& __fetch_global_Wire()
{
   db0c0:	b538      	push	{r3, r4, r5, lr}
	static TwoWire wire(HAL_I2C_INTERFACE1);
   db0c2:	4d0b      	ldr	r5, [pc, #44]	; (db0f0 <_Z19__fetch_global_Wirev+0x30>)
   db0c4:	6829      	ldr	r1, [r5, #0]
   db0c6:	f011 0401 	ands.w	r4, r1, #1
   db0ca:	d10f      	bne.n	db0ec <_Z19__fetch_global_Wirev+0x2c>
   db0cc:	4628      	mov	r0, r5
   db0ce:	f7f9 f801 	bl	d40d4 <__cxa_guard_acquire>
   db0d2:	b158      	cbz	r0, db0ec <_Z19__fetch_global_Wirev+0x2c>
   db0d4:	4621      	mov	r1, r4
   db0d6:	4807      	ldr	r0, [pc, #28]	; (db0f4 <_Z19__fetch_global_Wirev+0x34>)
   db0d8:	f7fe fc0c 	bl	d98f4 <_ZN7TwoWireC1E17HAL_I2C_Interface>
   db0dc:	4628      	mov	r0, r5
   db0de:	f7f8 fffe 	bl	d40de <__cxa_guard_release>
   db0e2:	4a05      	ldr	r2, [pc, #20]	; (db0f8 <_Z19__fetch_global_Wirev+0x38>)
   db0e4:	4905      	ldr	r1, [pc, #20]	; (db0fc <_Z19__fetch_global_Wirev+0x3c>)
   db0e6:	4803      	ldr	r0, [pc, #12]	; (db0f4 <_Z19__fetch_global_Wirev+0x34>)
   db0e8:	f000 f82c 	bl	db144 <__aeabi_atexit>
	return wire;
}
   db0ec:	4801      	ldr	r0, [pc, #4]	; (db0f4 <_Z19__fetch_global_Wirev+0x34>)
   db0ee:	bd38      	pop	{r3, r4, r5, pc}
   db0f0:	2003e728 	.word	0x2003e728
   db0f4:	2003e72c 	.word	0x2003e72c
   db0f8:	2003e12c 	.word	0x2003e12c
   db0fc:	000d989d 	.word	0x000d989d

000db100 <_GLOBAL__sub_I_SPI>:
#ifndef SPARK_WIRING_NO_SPI

SPIClass SPI(HAL_SPI_INTERFACE1);

#if Wiring_SPI1
SPIClass SPI1(HAL_SPI_INTERFACE2);
   db100:	b570      	push	{r4, r5, r6, lr}
#include "core_hal.h"
#include "spark_macros.h"

#ifndef SPARK_WIRING_NO_SPI

SPIClass SPI(HAL_SPI_INTERFACE1);
   db102:	4c0c      	ldr	r4, [pc, #48]	; (db134 <_GLOBAL__sub_I_SPI+0x34>)
   db104:	4e0c      	ldr	r6, [pc, #48]	; (db138 <_GLOBAL__sub_I_SPI+0x38>)
   db106:	4d0d      	ldr	r5, [pc, #52]	; (db13c <_GLOBAL__sub_I_SPI+0x3c>)
   db108:	2100      	movs	r1, #0
   db10a:	4620      	mov	r0, r4
   db10c:	f7fe ff9c 	bl	da048 <_ZN8SPIClassC1E17HAL_SPI_Interface>
   db110:	4620      	mov	r0, r4

#if Wiring_SPI1
SPIClass SPI1(HAL_SPI_INTERFACE2);
   db112:	4c0b      	ldr	r4, [pc, #44]	; (db140 <_GLOBAL__sub_I_SPI+0x40>)
#include "core_hal.h"
#include "spark_macros.h"

#ifndef SPARK_WIRING_NO_SPI

SPIClass SPI(HAL_SPI_INTERFACE1);
   db114:	4632      	mov	r2, r6
   db116:	4629      	mov	r1, r5
   db118:	f000 f814 	bl	db144 <__aeabi_atexit>

#if Wiring_SPI1
SPIClass SPI1(HAL_SPI_INTERFACE2);
   db11c:	2101      	movs	r1, #1
   db11e:	4620      	mov	r0, r4
   db120:	f7fe ff92 	bl	da048 <_ZN8SPIClassC1E17HAL_SPI_Interface>
   db124:	4632      	mov	r2, r6
   db126:	4629      	mov	r1, r5
   db128:	4620      	mov	r0, r4
   db12a:	e8bd 4070 	ldmia.w	sp!, {r4, r5, r6, lr}
   db12e:	f000 b809 	b.w	db144 <__aeabi_atexit>
   db132:	bf00      	nop
   db134:	2003e740 	.word	0x2003e740
   db138:	2003e12c 	.word	0x2003e12c
   db13c:	000da039 	.word	0x000da039
   db140:	2003e750 	.word	0x2003e750

000db144 <__aeabi_atexit>:
   db144:	460b      	mov	r3, r1
   db146:	4601      	mov	r1, r0
   db148:	4618      	mov	r0, r3
   db14a:	f000 be35 	b.w	dbdb8 <__cxa_atexit>

000db14e <_ZSt25__throw_bad_function_callv>:
   db14e:	b508      	push	{r3, lr}
   db150:	f7fe f8ae 	bl	d92b0 <abort>

000db154 <_GLOBAL__sub_I__ZNSt12ctype_bynameIwEC2ERKSsj>:
   db154:	4b24      	ldr	r3, [pc, #144]	; (db1e8 <_GLOBAL__sub_I__ZNSt12ctype_bynameIwEC2ERKSsj+0x94>)
   db156:	681a      	ldr	r2, [r3, #0]
   db158:	07d0      	lsls	r0, r2, #31
   db15a:	bf5c      	itt	pl
   db15c:	2201      	movpl	r2, #1
   db15e:	601a      	strpl	r2, [r3, #0]
   db160:	4b22      	ldr	r3, [pc, #136]	; (db1ec <_GLOBAL__sub_I__ZNSt12ctype_bynameIwEC2ERKSsj+0x98>)
   db162:	681a      	ldr	r2, [r3, #0]
   db164:	07d1      	lsls	r1, r2, #31
   db166:	bf5c      	itt	pl
   db168:	2201      	movpl	r2, #1
   db16a:	601a      	strpl	r2, [r3, #0]
   db16c:	4b20      	ldr	r3, [pc, #128]	; (db1f0 <_GLOBAL__sub_I__ZNSt12ctype_bynameIwEC2ERKSsj+0x9c>)
   db16e:	681a      	ldr	r2, [r3, #0]
   db170:	07d2      	lsls	r2, r2, #31
   db172:	bf5c      	itt	pl
   db174:	2201      	movpl	r2, #1
   db176:	601a      	strpl	r2, [r3, #0]
   db178:	4b1e      	ldr	r3, [pc, #120]	; (db1f4 <_GLOBAL__sub_I__ZNSt12ctype_bynameIwEC2ERKSsj+0xa0>)
   db17a:	681a      	ldr	r2, [r3, #0]
   db17c:	07d0      	lsls	r0, r2, #31
   db17e:	bf5c      	itt	pl
   db180:	2201      	movpl	r2, #1
   db182:	601a      	strpl	r2, [r3, #0]
   db184:	4b1c      	ldr	r3, [pc, #112]	; (db1f8 <_GLOBAL__sub_I__ZNSt12ctype_bynameIwEC2ERKSsj+0xa4>)
   db186:	681a      	ldr	r2, [r3, #0]
   db188:	07d1      	lsls	r1, r2, #31
   db18a:	bf5c      	itt	pl
   db18c:	2201      	movpl	r2, #1
   db18e:	601a      	strpl	r2, [r3, #0]
   db190:	4b1a      	ldr	r3, [pc, #104]	; (db1fc <_GLOBAL__sub_I__ZNSt12ctype_bynameIwEC2ERKSsj+0xa8>)
   db192:	681a      	ldr	r2, [r3, #0]
   db194:	07d2      	lsls	r2, r2, #31
   db196:	bf5c      	itt	pl
   db198:	2201      	movpl	r2, #1
   db19a:	601a      	strpl	r2, [r3, #0]
   db19c:	4b18      	ldr	r3, [pc, #96]	; (db200 <_GLOBAL__sub_I__ZNSt12ctype_bynameIwEC2ERKSsj+0xac>)
   db19e:	681a      	ldr	r2, [r3, #0]
   db1a0:	07d0      	lsls	r0, r2, #31
   db1a2:	bf5c      	itt	pl
   db1a4:	2201      	movpl	r2, #1
   db1a6:	601a      	strpl	r2, [r3, #0]
   db1a8:	4b16      	ldr	r3, [pc, #88]	; (db204 <_GLOBAL__sub_I__ZNSt12ctype_bynameIwEC2ERKSsj+0xb0>)
   db1aa:	681a      	ldr	r2, [r3, #0]
   db1ac:	07d1      	lsls	r1, r2, #31
   db1ae:	bf5c      	itt	pl
   db1b0:	2201      	movpl	r2, #1
   db1b2:	601a      	strpl	r2, [r3, #0]
   db1b4:	4b14      	ldr	r3, [pc, #80]	; (db208 <_GLOBAL__sub_I__ZNSt12ctype_bynameIwEC2ERKSsj+0xb4>)
   db1b6:	681a      	ldr	r2, [r3, #0]
   db1b8:	07d2      	lsls	r2, r2, #31
   db1ba:	bf5c      	itt	pl
   db1bc:	2201      	movpl	r2, #1
   db1be:	601a      	strpl	r2, [r3, #0]
   db1c0:	4b12      	ldr	r3, [pc, #72]	; (db20c <_GLOBAL__sub_I__ZNSt12ctype_bynameIwEC2ERKSsj+0xb8>)
   db1c2:	681a      	ldr	r2, [r3, #0]
   db1c4:	07d0      	lsls	r0, r2, #31
   db1c6:	bf5c      	itt	pl
   db1c8:	2201      	movpl	r2, #1
   db1ca:	601a      	strpl	r2, [r3, #0]
   db1cc:	4b10      	ldr	r3, [pc, #64]	; (db210 <_GLOBAL__sub_I__ZNSt12ctype_bynameIwEC2ERKSsj+0xbc>)
   db1ce:	681a      	ldr	r2, [r3, #0]
   db1d0:	07d1      	lsls	r1, r2, #31
   db1d2:	bf5c      	itt	pl
   db1d4:	2201      	movpl	r2, #1
   db1d6:	601a      	strpl	r2, [r3, #0]
   db1d8:	4b0e      	ldr	r3, [pc, #56]	; (db214 <_GLOBAL__sub_I__ZNSt12ctype_bynameIwEC2ERKSsj+0xc0>)
   db1da:	681a      	ldr	r2, [r3, #0]
   db1dc:	07d2      	lsls	r2, r2, #31
   db1de:	bf5c      	itt	pl
   db1e0:	2201      	movpl	r2, #1
   db1e2:	601a      	strpl	r2, [r3, #0]
   db1e4:	4770      	bx	lr
   db1e6:	bf00      	nop
   db1e8:	2003e78c 	.word	0x2003e78c
   db1ec:	2003e788 	.word	0x2003e788
   db1f0:	2003e784 	.word	0x2003e784
   db1f4:	2003e780 	.word	0x2003e780
   db1f8:	2003e77c 	.word	0x2003e77c
   db1fc:	2003e778 	.word	0x2003e778
   db200:	2003e774 	.word	0x2003e774
   db204:	2003e770 	.word	0x2003e770
   db208:	2003e76c 	.word	0x2003e76c
   db20c:	2003e768 	.word	0x2003e768
   db210:	2003e764 	.word	0x2003e764
   db214:	2003e760 	.word	0x2003e760

000db218 <_GLOBAL__sub_I__ZNSt12ctype_bynameIcEC2ERKNSt7__cxx1112basic_stringIcSt11char_traitsIcESaIcEEEj>:
   db218:	4b18      	ldr	r3, [pc, #96]	; (db27c <_GLOBAL__sub_I__ZNSt12ctype_bynameIcEC2ERKNSt7__cxx1112basic_stringIcSt11char_traitsIcESaIcEEEj+0x64>)
   db21a:	681a      	ldr	r2, [r3, #0]
   db21c:	07d1      	lsls	r1, r2, #31
   db21e:	bf5c      	itt	pl
   db220:	2201      	movpl	r2, #1
   db222:	601a      	strpl	r2, [r3, #0]
   db224:	4b16      	ldr	r3, [pc, #88]	; (db280 <_GLOBAL__sub_I__ZNSt12ctype_bynameIcEC2ERKNSt7__cxx1112basic_stringIcSt11char_traitsIcESaIcEEEj+0x68>)
   db226:	681a      	ldr	r2, [r3, #0]
   db228:	07d2      	lsls	r2, r2, #31
   db22a:	bf5c      	itt	pl
   db22c:	2201      	movpl	r2, #1
   db22e:	601a      	strpl	r2, [r3, #0]
   db230:	4b14      	ldr	r3, [pc, #80]	; (db284 <_GLOBAL__sub_I__ZNSt12ctype_bynameIcEC2ERKNSt7__cxx1112basic_stringIcSt11char_traitsIcESaIcEEEj+0x6c>)
   db232:	681a      	ldr	r2, [r3, #0]
   db234:	07d0      	lsls	r0, r2, #31
   db236:	bf5c      	itt	pl
   db238:	2201      	movpl	r2, #1
   db23a:	601a      	strpl	r2, [r3, #0]
   db23c:	4b12      	ldr	r3, [pc, #72]	; (db288 <_GLOBAL__sub_I__ZNSt12ctype_bynameIcEC2ERKNSt7__cxx1112basic_stringIcSt11char_traitsIcESaIcEEEj+0x70>)
   db23e:	681a      	ldr	r2, [r3, #0]
   db240:	07d1      	lsls	r1, r2, #31
   db242:	bf5c      	itt	pl
   db244:	2201      	movpl	r2, #1
   db246:	601a      	strpl	r2, [r3, #0]
   db248:	4b10      	ldr	r3, [pc, #64]	; (db28c <_GLOBAL__sub_I__ZNSt12ctype_bynameIcEC2ERKNSt7__cxx1112basic_stringIcSt11char_traitsIcESaIcEEEj+0x74>)
   db24a:	681a      	ldr	r2, [r3, #0]
   db24c:	07d2      	lsls	r2, r2, #31
   db24e:	bf5c      	itt	pl
   db250:	2201      	movpl	r2, #1
   db252:	601a      	strpl	r2, [r3, #0]
   db254:	4b0e      	ldr	r3, [pc, #56]	; (db290 <_GLOBAL__sub_I__ZNSt12ctype_bynameIcEC2ERKNSt7__cxx1112basic_stringIcSt11char_traitsIcESaIcEEEj+0x78>)
   db256:	681a      	ldr	r2, [r3, #0]
   db258:	07d0      	lsls	r0, r2, #31
   db25a:	bf5c      	itt	pl
   db25c:	2201      	movpl	r2, #1
   db25e:	601a      	strpl	r2, [r3, #0]
   db260:	4b0c      	ldr	r3, [pc, #48]	; (db294 <_GLOBAL__sub_I__ZNSt12ctype_bynameIcEC2ERKNSt7__cxx1112basic_stringIcSt11char_traitsIcESaIcEEEj+0x7c>)
   db262:	681a      	ldr	r2, [r3, #0]
   db264:	07d1      	lsls	r1, r2, #31
   db266:	bf5c      	itt	pl
   db268:	2201      	movpl	r2, #1
   db26a:	601a      	strpl	r2, [r3, #0]
   db26c:	4b0a      	ldr	r3, [pc, #40]	; (db298 <_GLOBAL__sub_I__ZNSt12ctype_bynameIcEC2ERKNSt7__cxx1112basic_stringIcSt11char_traitsIcESaIcEEEj+0x80>)
   db26e:	681a      	ldr	r2, [r3, #0]
   db270:	07d2      	lsls	r2, r2, #31
   db272:	bf5c      	itt	pl
   db274:	2201      	movpl	r2, #1
   db276:	601a      	strpl	r2, [r3, #0]
   db278:	4770      	bx	lr
   db27a:	bf00      	nop
   db27c:	2003e7ac 	.word	0x2003e7ac
   db280:	2003e7a8 	.word	0x2003e7a8
   db284:	2003e7a4 	.word	0x2003e7a4
   db288:	2003e7a0 	.word	0x2003e7a0
   db28c:	2003e79c 	.word	0x2003e79c
   db290:	2003e798 	.word	0x2003e798
   db294:	2003e794 	.word	0x2003e794
   db298:	2003e790 	.word	0x2003e790

000db29c <_GLOBAL__sub_I__ZNSt12ctype_bynameIwEC2ERKNSt7__cxx1112basic_stringIcSt11char_traitsIcESaIcEEEj>:
   db29c:	4b18      	ldr	r3, [pc, #96]	; (db300 <_GLOBAL__sub_I__ZNSt12ctype_bynameIwEC2ERKNSt7__cxx1112basic_stringIcSt11char_traitsIcESaIcEEEj+0x64>)
   db29e:	681a      	ldr	r2, [r3, #0]
   db2a0:	07d1      	lsls	r1, r2, #31
   db2a2:	bf5c      	itt	pl
   db2a4:	2201      	movpl	r2, #1
   db2a6:	601a      	strpl	r2, [r3, #0]
   db2a8:	4b16      	ldr	r3, [pc, #88]	; (db304 <_GLOBAL__sub_I__ZNSt12ctype_bynameIwEC2ERKNSt7__cxx1112basic_stringIcSt11char_traitsIcESaIcEEEj+0x68>)
   db2aa:	681a      	ldr	r2, [r3, #0]
   db2ac:	07d2      	lsls	r2, r2, #31
   db2ae:	bf5c      	itt	pl
   db2b0:	2201      	movpl	r2, #1
   db2b2:	601a      	strpl	r2, [r3, #0]
   db2b4:	4b14      	ldr	r3, [pc, #80]	; (db308 <_GLOBAL__sub_I__ZNSt12ctype_bynameIwEC2ERKNSt7__cxx1112basic_stringIcSt11char_traitsIcESaIcEEEj+0x6c>)
   db2b6:	681a      	ldr	r2, [r3, #0]
   db2b8:	07d0      	lsls	r0, r2, #31
   db2ba:	bf5c      	itt	pl
   db2bc:	2201      	movpl	r2, #1
   db2be:	601a      	strpl	r2, [r3, #0]
   db2c0:	4b12      	ldr	r3, [pc, #72]	; (db30c <_GLOBAL__sub_I__ZNSt12ctype_bynameIwEC2ERKNSt7__cxx1112basic_stringIcSt11char_traitsIcESaIcEEEj+0x70>)
   db2c2:	681a      	ldr	r2, [r3, #0]
   db2c4:	07d1      	lsls	r1, r2, #31
   db2c6:	bf5c      	itt	pl
   db2c8:	2201      	movpl	r2, #1
   db2ca:	601a      	strpl	r2, [r3, #0]
   db2cc:	4b10      	ldr	r3, [pc, #64]	; (db310 <_GLOBAL__sub_I__ZNSt12ctype_bynameIwEC2ERKNSt7__cxx1112basic_stringIcSt11char_traitsIcESaIcEEEj+0x74>)
   db2ce:	681a      	ldr	r2, [r3, #0]
   db2d0:	07d2      	lsls	r2, r2, #31
   db2d2:	bf5c      	itt	pl
   db2d4:	2201      	movpl	r2, #1
   db2d6:	601a      	strpl	r2, [r3, #0]
   db2d8:	4b0e      	ldr	r3, [pc, #56]	; (db314 <_GLOBAL__sub_I__ZNSt12ctype_bynameIwEC2ERKNSt7__cxx1112basic_stringIcSt11char_traitsIcESaIcEEEj+0x78>)
   db2da:	681a      	ldr	r2, [r3, #0]
   db2dc:	07d0      	lsls	r0, r2, #31
   db2de:	bf5c      	itt	pl
   db2e0:	2201      	movpl	r2, #1
   db2e2:	601a      	strpl	r2, [r3, #0]
   db2e4:	4b0c      	ldr	r3, [pc, #48]	; (db318 <_GLOBAL__sub_I__ZNSt12ctype_bynameIwEC2ERKNSt7__cxx1112basic_stringIcSt11char_traitsIcESaIcEEEj+0x7c>)
   db2e6:	681a      	ldr	r2, [r3, #0]
   db2e8:	07d1      	lsls	r1, r2, #31
   db2ea:	bf5c      	itt	pl
   db2ec:	2201      	movpl	r2, #1
   db2ee:	601a      	strpl	r2, [r3, #0]
   db2f0:	4b0a      	ldr	r3, [pc, #40]	; (db31c <_GLOBAL__sub_I__ZNSt12ctype_bynameIwEC2ERKNSt7__cxx1112basic_stringIcSt11char_traitsIcESaIcEEEj+0x80>)
   db2f2:	681a      	ldr	r2, [r3, #0]
   db2f4:	07d2      	lsls	r2, r2, #31
   db2f6:	bf5c      	itt	pl
   db2f8:	2201      	movpl	r2, #1
   db2fa:	601a      	strpl	r2, [r3, #0]
   db2fc:	4770      	bx	lr
   db2fe:	bf00      	nop
   db300:	2003e7cc 	.word	0x2003e7cc
   db304:	2003e7c8 	.word	0x2003e7c8
   db308:	2003e7c4 	.word	0x2003e7c4
   db30c:	2003e7c0 	.word	0x2003e7c0
   db310:	2003e7bc 	.word	0x2003e7bc
   db314:	2003e7b8 	.word	0x2003e7b8
   db318:	2003e7b4 	.word	0x2003e7b4
   db31c:	2003e7b0 	.word	0x2003e7b0

000db320 <_GLOBAL__sub_I__ZNSt12ctype_bynameIcEC2ERKSsj>:
   db320:	4b24      	ldr	r3, [pc, #144]	; (db3b4 <_GLOBAL__sub_I__ZNSt12ctype_bynameIcEC2ERKSsj+0x94>)
   db322:	681a      	ldr	r2, [r3, #0]
   db324:	07d0      	lsls	r0, r2, #31
   db326:	bf5c      	itt	pl
   db328:	2201      	movpl	r2, #1
   db32a:	601a      	strpl	r2, [r3, #0]
   db32c:	4b22      	ldr	r3, [pc, #136]	; (db3b8 <_GLOBAL__sub_I__ZNSt12ctype_bynameIcEC2ERKSsj+0x98>)
   db32e:	681a      	ldr	r2, [r3, #0]
   db330:	07d1      	lsls	r1, r2, #31
   db332:	bf5c      	itt	pl
   db334:	2201      	movpl	r2, #1
   db336:	601a      	strpl	r2, [r3, #0]
   db338:	4b20      	ldr	r3, [pc, #128]	; (db3bc <_GLOBAL__sub_I__ZNSt12ctype_bynameIcEC2ERKSsj+0x9c>)
   db33a:	681a      	ldr	r2, [r3, #0]
   db33c:	07d2      	lsls	r2, r2, #31
   db33e:	bf5c      	itt	pl
   db340:	2201      	movpl	r2, #1
   db342:	601a      	strpl	r2, [r3, #0]
   db344:	4b1e      	ldr	r3, [pc, #120]	; (db3c0 <_GLOBAL__sub_I__ZNSt12ctype_bynameIcEC2ERKSsj+0xa0>)
   db346:	681a      	ldr	r2, [r3, #0]
   db348:	07d0      	lsls	r0, r2, #31
   db34a:	bf5c      	itt	pl
   db34c:	2201      	movpl	r2, #1
   db34e:	601a      	strpl	r2, [r3, #0]
   db350:	4b1c      	ldr	r3, [pc, #112]	; (db3c4 <_GLOBAL__sub_I__ZNSt12ctype_bynameIcEC2ERKSsj+0xa4>)
   db352:	681a      	ldr	r2, [r3, #0]
   db354:	07d1      	lsls	r1, r2, #31
   db356:	bf5c      	itt	pl
   db358:	2201      	movpl	r2, #1
   db35a:	601a      	strpl	r2, [r3, #0]
   db35c:	4b1a      	ldr	r3, [pc, #104]	; (db3c8 <_GLOBAL__sub_I__ZNSt12ctype_bynameIcEC2ERKSsj+0xa8>)
   db35e:	681a      	ldr	r2, [r3, #0]
   db360:	07d2      	lsls	r2, r2, #31
   db362:	bf5c      	itt	pl
   db364:	2201      	movpl	r2, #1
   db366:	601a      	strpl	r2, [r3, #0]
   db368:	4b18      	ldr	r3, [pc, #96]	; (db3cc <_GLOBAL__sub_I__ZNSt12ctype_bynameIcEC2ERKSsj+0xac>)
   db36a:	681a      	ldr	r2, [r3, #0]
   db36c:	07d0      	lsls	r0, r2, #31
   db36e:	bf5c      	itt	pl
   db370:	2201      	movpl	r2, #1
   db372:	601a      	strpl	r2, [r3, #0]
   db374:	4b16      	ldr	r3, [pc, #88]	; (db3d0 <_GLOBAL__sub_I__ZNSt12ctype_bynameIcEC2ERKSsj+0xb0>)
   db376:	681a      	ldr	r2, [r3, #0]
   db378:	07d1      	lsls	r1, r2, #31
   db37a:	bf5c      	itt	pl
   db37c:	2201      	movpl	r2, #1
   db37e:	601a      	strpl	r2, [r3, #0]
   db380:	4b14      	ldr	r3, [pc, #80]	; (db3d4 <_GLOBAL__sub_I__ZNSt12ctype_bynameIcEC2ERKSsj+0xb4>)
   db382:	681a      	ldr	r2, [r3, #0]
   db384:	07d2      	lsls	r2, r2, #31
   db386:	bf5c      	itt	pl
   db388:	2201      	movpl	r2, #1
   db38a:	601a      	strpl	r2, [r3, #0]
   db38c:	4b12      	ldr	r3, [pc, #72]	; (db3d8 <_GLOBAL__sub_I__ZNSt12ctype_bynameIcEC2ERKSsj+0xb8>)
   db38e:	681a      	ldr	r2, [r3, #0]
   db390:	07d0      	lsls	r0, r2, #31
   db392:	bf5c      	itt	pl
   db394:	2201      	movpl	r2, #1
   db396:	601a      	strpl	r2, [r3, #0]
   db398:	4b10      	ldr	r3, [pc, #64]	; (db3dc <_GLOBAL__sub_I__ZNSt12ctype_bynameIcEC2ERKSsj+0xbc>)
   db39a:	681a      	ldr	r2, [r3, #0]
   db39c:	07d1      	lsls	r1, r2, #31
   db39e:	bf5c      	itt	pl
   db3a0:	2201      	movpl	r2, #1
   db3a2:	601a      	strpl	r2, [r3, #0]
   db3a4:	4b0e      	ldr	r3, [pc, #56]	; (db3e0 <_GLOBAL__sub_I__ZNSt12ctype_bynameIcEC2ERKSsj+0xc0>)
   db3a6:	681a      	ldr	r2, [r3, #0]
   db3a8:	07d2      	lsls	r2, r2, #31
   db3aa:	bf5c      	itt	pl
   db3ac:	2201      	movpl	r2, #1
   db3ae:	601a      	strpl	r2, [r3, #0]
   db3b0:	4770      	bx	lr
   db3b2:	bf00      	nop
   db3b4:	2003e7fc 	.word	0x2003e7fc
   db3b8:	2003e7f8 	.word	0x2003e7f8
   db3bc:	2003e7f4 	.word	0x2003e7f4
   db3c0:	2003e7f0 	.word	0x2003e7f0
   db3c4:	2003e7ec 	.word	0x2003e7ec
   db3c8:	2003e7e8 	.word	0x2003e7e8
   db3cc:	2003e7e4 	.word	0x2003e7e4
   db3d0:	2003e7e0 	.word	0x2003e7e0
   db3d4:	2003e7dc 	.word	0x2003e7dc
   db3d8:	2003e7d8 	.word	0x2003e7d8
   db3dc:	2003e7d4 	.word	0x2003e7d4
   db3e0:	2003e7d0 	.word	0x2003e7d0

000db3e4 <__aeabi_drsub>:
   db3e4:	f081 4100 	eor.w	r1, r1, #2147483648	; 0x80000000
   db3e8:	e002      	b.n	db3f0 <__adddf3>
   db3ea:	bf00      	nop

000db3ec <__aeabi_dsub>:
   db3ec:	f083 4300 	eor.w	r3, r3, #2147483648	; 0x80000000

000db3f0 <__adddf3>:
   db3f0:	b530      	push	{r4, r5, lr}
   db3f2:	ea4f 0441 	mov.w	r4, r1, lsl #1
   db3f6:	ea4f 0543 	mov.w	r5, r3, lsl #1
   db3fa:	ea94 0f05 	teq	r4, r5
   db3fe:	bf08      	it	eq
   db400:	ea90 0f02 	teqeq	r0, r2
   db404:	bf1f      	itttt	ne
   db406:	ea54 0c00 	orrsne.w	ip, r4, r0
   db40a:	ea55 0c02 	orrsne.w	ip, r5, r2
   db40e:	ea7f 5c64 	mvnsne.w	ip, r4, asr #21
   db412:	ea7f 5c65 	mvnsne.w	ip, r5, asr #21
   db416:	f000 80e2 	beq.w	db5de <__adddf3+0x1ee>
   db41a:	ea4f 5454 	mov.w	r4, r4, lsr #21
   db41e:	ebd4 5555 	rsbs	r5, r4, r5, lsr #21
   db422:	bfb8      	it	lt
   db424:	426d      	neglt	r5, r5
   db426:	dd0c      	ble.n	db442 <__adddf3+0x52>
   db428:	442c      	add	r4, r5
   db42a:	ea80 0202 	eor.w	r2, r0, r2
   db42e:	ea81 0303 	eor.w	r3, r1, r3
   db432:	ea82 0000 	eor.w	r0, r2, r0
   db436:	ea83 0101 	eor.w	r1, r3, r1
   db43a:	ea80 0202 	eor.w	r2, r0, r2
   db43e:	ea81 0303 	eor.w	r3, r1, r3
   db442:	2d36      	cmp	r5, #54	; 0x36
   db444:	bf88      	it	hi
   db446:	bd30      	pophi	{r4, r5, pc}
   db448:	f011 4f00 	tst.w	r1, #2147483648	; 0x80000000
   db44c:	ea4f 3101 	mov.w	r1, r1, lsl #12
   db450:	f44f 1c80 	mov.w	ip, #1048576	; 0x100000
   db454:	ea4c 3111 	orr.w	r1, ip, r1, lsr #12
   db458:	d002      	beq.n	db460 <__adddf3+0x70>
   db45a:	4240      	negs	r0, r0
   db45c:	eb61 0141 	sbc.w	r1, r1, r1, lsl #1
   db460:	f013 4f00 	tst.w	r3, #2147483648	; 0x80000000
   db464:	ea4f 3303 	mov.w	r3, r3, lsl #12
   db468:	ea4c 3313 	orr.w	r3, ip, r3, lsr #12
   db46c:	d002      	beq.n	db474 <__adddf3+0x84>
   db46e:	4252      	negs	r2, r2
   db470:	eb63 0343 	sbc.w	r3, r3, r3, lsl #1
   db474:	ea94 0f05 	teq	r4, r5
   db478:	f000 80a7 	beq.w	db5ca <__adddf3+0x1da>
   db47c:	f1a4 0401 	sub.w	r4, r4, #1
   db480:	f1d5 0e20 	rsbs	lr, r5, #32
   db484:	db0d      	blt.n	db4a2 <__adddf3+0xb2>
   db486:	fa02 fc0e 	lsl.w	ip, r2, lr
   db48a:	fa22 f205 	lsr.w	r2, r2, r5
   db48e:	1880      	adds	r0, r0, r2
   db490:	f141 0100 	adc.w	r1, r1, #0
   db494:	fa03 f20e 	lsl.w	r2, r3, lr
   db498:	1880      	adds	r0, r0, r2
   db49a:	fa43 f305 	asr.w	r3, r3, r5
   db49e:	4159      	adcs	r1, r3
   db4a0:	e00e      	b.n	db4c0 <__adddf3+0xd0>
   db4a2:	f1a5 0520 	sub.w	r5, r5, #32
   db4a6:	f10e 0e20 	add.w	lr, lr, #32
   db4aa:	2a01      	cmp	r2, #1
   db4ac:	fa03 fc0e 	lsl.w	ip, r3, lr
   db4b0:	bf28      	it	cs
   db4b2:	f04c 0c02 	orrcs.w	ip, ip, #2
   db4b6:	fa43 f305 	asr.w	r3, r3, r5
   db4ba:	18c0      	adds	r0, r0, r3
   db4bc:	eb51 71e3 	adcs.w	r1, r1, r3, asr #31
   db4c0:	f001 4500 	and.w	r5, r1, #2147483648	; 0x80000000
   db4c4:	d507      	bpl.n	db4d6 <__adddf3+0xe6>
   db4c6:	f04f 0e00 	mov.w	lr, #0
   db4ca:	f1dc 0c00 	rsbs	ip, ip, #0
   db4ce:	eb7e 0000 	sbcs.w	r0, lr, r0
   db4d2:	eb6e 0101 	sbc.w	r1, lr, r1
   db4d6:	f5b1 1f80 	cmp.w	r1, #1048576	; 0x100000
   db4da:	d31b      	bcc.n	db514 <__adddf3+0x124>
   db4dc:	f5b1 1f00 	cmp.w	r1, #2097152	; 0x200000
   db4e0:	d30c      	bcc.n	db4fc <__adddf3+0x10c>
   db4e2:	0849      	lsrs	r1, r1, #1
   db4e4:	ea5f 0030 	movs.w	r0, r0, rrx
   db4e8:	ea4f 0c3c 	mov.w	ip, ip, rrx
   db4ec:	f104 0401 	add.w	r4, r4, #1
   db4f0:	ea4f 5244 	mov.w	r2, r4, lsl #21
   db4f4:	f512 0f80 	cmn.w	r2, #4194304	; 0x400000
   db4f8:	f080 809a 	bcs.w	db630 <__adddf3+0x240>
   db4fc:	f1bc 4f00 	cmp.w	ip, #2147483648	; 0x80000000
   db500:	bf08      	it	eq
   db502:	ea5f 0c50 	movseq.w	ip, r0, lsr #1
   db506:	f150 0000 	adcs.w	r0, r0, #0
   db50a:	eb41 5104 	adc.w	r1, r1, r4, lsl #20
   db50e:	ea41 0105 	orr.w	r1, r1, r5
   db512:	bd30      	pop	{r4, r5, pc}
   db514:	ea5f 0c4c 	movs.w	ip, ip, lsl #1
   db518:	4140      	adcs	r0, r0
   db51a:	eb41 0101 	adc.w	r1, r1, r1
   db51e:	f411 1f80 	tst.w	r1, #1048576	; 0x100000
   db522:	f1a4 0401 	sub.w	r4, r4, #1
   db526:	d1e9      	bne.n	db4fc <__adddf3+0x10c>
   db528:	f091 0f00 	teq	r1, #0
   db52c:	bf04      	itt	eq
   db52e:	4601      	moveq	r1, r0
   db530:	2000      	moveq	r0, #0
   db532:	fab1 f381 	clz	r3, r1
   db536:	bf08      	it	eq
   db538:	3320      	addeq	r3, #32
   db53a:	f1a3 030b 	sub.w	r3, r3, #11
   db53e:	f1b3 0220 	subs.w	r2, r3, #32
   db542:	da0c      	bge.n	db55e <__adddf3+0x16e>
   db544:	320c      	adds	r2, #12
   db546:	dd08      	ble.n	db55a <__adddf3+0x16a>
   db548:	f102 0c14 	add.w	ip, r2, #20
   db54c:	f1c2 020c 	rsb	r2, r2, #12
   db550:	fa01 f00c 	lsl.w	r0, r1, ip
   db554:	fa21 f102 	lsr.w	r1, r1, r2
   db558:	e00c      	b.n	db574 <__adddf3+0x184>
   db55a:	f102 0214 	add.w	r2, r2, #20
   db55e:	bfd8      	it	le
   db560:	f1c2 0c20 	rsble	ip, r2, #32
   db564:	fa01 f102 	lsl.w	r1, r1, r2
   db568:	fa20 fc0c 	lsr.w	ip, r0, ip
   db56c:	bfdc      	itt	le
   db56e:	ea41 010c 	orrle.w	r1, r1, ip
   db572:	4090      	lslle	r0, r2
   db574:	1ae4      	subs	r4, r4, r3
   db576:	bfa2      	ittt	ge
   db578:	eb01 5104 	addge.w	r1, r1, r4, lsl #20
   db57c:	4329      	orrge	r1, r5
   db57e:	bd30      	popge	{r4, r5, pc}
   db580:	ea6f 0404 	mvn.w	r4, r4
   db584:	3c1f      	subs	r4, #31
   db586:	da1c      	bge.n	db5c2 <__adddf3+0x1d2>
   db588:	340c      	adds	r4, #12
   db58a:	dc0e      	bgt.n	db5aa <__adddf3+0x1ba>
   db58c:	f104 0414 	add.w	r4, r4, #20
   db590:	f1c4 0220 	rsb	r2, r4, #32
   db594:	fa20 f004 	lsr.w	r0, r0, r4
   db598:	fa01 f302 	lsl.w	r3, r1, r2
   db59c:	ea40 0003 	orr.w	r0, r0, r3
   db5a0:	fa21 f304 	lsr.w	r3, r1, r4
   db5a4:	ea45 0103 	orr.w	r1, r5, r3
   db5a8:	bd30      	pop	{r4, r5, pc}
   db5aa:	f1c4 040c 	rsb	r4, r4, #12
   db5ae:	f1c4 0220 	rsb	r2, r4, #32
   db5b2:	fa20 f002 	lsr.w	r0, r0, r2
   db5b6:	fa01 f304 	lsl.w	r3, r1, r4
   db5ba:	ea40 0003 	orr.w	r0, r0, r3
   db5be:	4629      	mov	r1, r5
   db5c0:	bd30      	pop	{r4, r5, pc}
   db5c2:	fa21 f004 	lsr.w	r0, r1, r4
   db5c6:	4629      	mov	r1, r5
   db5c8:	bd30      	pop	{r4, r5, pc}
   db5ca:	f094 0f00 	teq	r4, #0
   db5ce:	f483 1380 	eor.w	r3, r3, #1048576	; 0x100000
   db5d2:	bf06      	itte	eq
   db5d4:	f481 1180 	eoreq.w	r1, r1, #1048576	; 0x100000
   db5d8:	3401      	addeq	r4, #1
   db5da:	3d01      	subne	r5, #1
   db5dc:	e74e      	b.n	db47c <__adddf3+0x8c>
   db5de:	ea7f 5c64 	mvns.w	ip, r4, asr #21
   db5e2:	bf18      	it	ne
   db5e4:	ea7f 5c65 	mvnsne.w	ip, r5, asr #21
   db5e8:	d029      	beq.n	db63e <__adddf3+0x24e>
   db5ea:	ea94 0f05 	teq	r4, r5
   db5ee:	bf08      	it	eq
   db5f0:	ea90 0f02 	teqeq	r0, r2
   db5f4:	d005      	beq.n	db602 <__adddf3+0x212>
   db5f6:	ea54 0c00 	orrs.w	ip, r4, r0
   db5fa:	bf04      	itt	eq
   db5fc:	4619      	moveq	r1, r3
   db5fe:	4610      	moveq	r0, r2
   db600:	bd30      	pop	{r4, r5, pc}
   db602:	ea91 0f03 	teq	r1, r3
   db606:	bf1e      	ittt	ne
   db608:	2100      	movne	r1, #0
   db60a:	2000      	movne	r0, #0
   db60c:	bd30      	popne	{r4, r5, pc}
   db60e:	ea5f 5c54 	movs.w	ip, r4, lsr #21
   db612:	d105      	bne.n	db620 <__adddf3+0x230>
   db614:	0040      	lsls	r0, r0, #1
   db616:	4149      	adcs	r1, r1
   db618:	bf28      	it	cs
   db61a:	f041 4100 	orrcs.w	r1, r1, #2147483648	; 0x80000000
   db61e:	bd30      	pop	{r4, r5, pc}
   db620:	f514 0480 	adds.w	r4, r4, #4194304	; 0x400000
   db624:	bf3c      	itt	cc
   db626:	f501 1180 	addcc.w	r1, r1, #1048576	; 0x100000
   db62a:	bd30      	popcc	{r4, r5, pc}
   db62c:	f001 4500 	and.w	r5, r1, #2147483648	; 0x80000000
   db630:	f045 41fe 	orr.w	r1, r5, #2130706432	; 0x7f000000
   db634:	f441 0170 	orr.w	r1, r1, #15728640	; 0xf00000
   db638:	f04f 0000 	mov.w	r0, #0
   db63c:	bd30      	pop	{r4, r5, pc}
   db63e:	ea7f 5c64 	mvns.w	ip, r4, asr #21
   db642:	bf1a      	itte	ne
   db644:	4619      	movne	r1, r3
   db646:	4610      	movne	r0, r2
   db648:	ea7f 5c65 	mvnseq.w	ip, r5, asr #21
   db64c:	bf1c      	itt	ne
   db64e:	460b      	movne	r3, r1
   db650:	4602      	movne	r2, r0
   db652:	ea50 3401 	orrs.w	r4, r0, r1, lsl #12
   db656:	bf06      	itte	eq
   db658:	ea52 3503 	orrseq.w	r5, r2, r3, lsl #12
   db65c:	ea91 0f03 	teqeq	r1, r3
   db660:	f441 2100 	orrne.w	r1, r1, #524288	; 0x80000
   db664:	bd30      	pop	{r4, r5, pc}
   db666:	bf00      	nop

000db668 <__aeabi_ui2d>:
   db668:	f090 0f00 	teq	r0, #0
   db66c:	bf04      	itt	eq
   db66e:	2100      	moveq	r1, #0
   db670:	4770      	bxeq	lr
   db672:	b530      	push	{r4, r5, lr}
   db674:	f44f 6480 	mov.w	r4, #1024	; 0x400
   db678:	f104 0432 	add.w	r4, r4, #50	; 0x32
   db67c:	f04f 0500 	mov.w	r5, #0
   db680:	f04f 0100 	mov.w	r1, #0
   db684:	e750      	b.n	db528 <__adddf3+0x138>
   db686:	bf00      	nop

000db688 <__aeabi_i2d>:
   db688:	f090 0f00 	teq	r0, #0
   db68c:	bf04      	itt	eq
   db68e:	2100      	moveq	r1, #0
   db690:	4770      	bxeq	lr
   db692:	b530      	push	{r4, r5, lr}
   db694:	f44f 6480 	mov.w	r4, #1024	; 0x400
   db698:	f104 0432 	add.w	r4, r4, #50	; 0x32
   db69c:	f010 4500 	ands.w	r5, r0, #2147483648	; 0x80000000
   db6a0:	bf48      	it	mi
   db6a2:	4240      	negmi	r0, r0
   db6a4:	f04f 0100 	mov.w	r1, #0
   db6a8:	e73e      	b.n	db528 <__adddf3+0x138>
   db6aa:	bf00      	nop

000db6ac <__aeabi_f2d>:
   db6ac:	0042      	lsls	r2, r0, #1
   db6ae:	ea4f 01e2 	mov.w	r1, r2, asr #3
   db6b2:	ea4f 0131 	mov.w	r1, r1, rrx
   db6b6:	ea4f 7002 	mov.w	r0, r2, lsl #28
   db6ba:	bf1f      	itttt	ne
   db6bc:	f012 437f 	andsne.w	r3, r2, #4278190080	; 0xff000000
   db6c0:	f093 4f7f 	teqne	r3, #4278190080	; 0xff000000
   db6c4:	f081 5160 	eorne.w	r1, r1, #939524096	; 0x38000000
   db6c8:	4770      	bxne	lr
   db6ca:	f092 0f00 	teq	r2, #0
   db6ce:	bf14      	ite	ne
   db6d0:	f093 4f7f 	teqne	r3, #4278190080	; 0xff000000
   db6d4:	4770      	bxeq	lr
   db6d6:	b530      	push	{r4, r5, lr}
   db6d8:	f44f 7460 	mov.w	r4, #896	; 0x380
   db6dc:	f001 4500 	and.w	r5, r1, #2147483648	; 0x80000000
   db6e0:	f021 4100 	bic.w	r1, r1, #2147483648	; 0x80000000
   db6e4:	e720      	b.n	db528 <__adddf3+0x138>
   db6e6:	bf00      	nop

000db6e8 <__aeabi_ul2d>:
   db6e8:	ea50 0201 	orrs.w	r2, r0, r1
   db6ec:	bf08      	it	eq
   db6ee:	4770      	bxeq	lr
   db6f0:	b530      	push	{r4, r5, lr}
   db6f2:	f04f 0500 	mov.w	r5, #0
   db6f6:	e00a      	b.n	db70e <__aeabi_l2d+0x16>

000db6f8 <__aeabi_l2d>:
   db6f8:	ea50 0201 	orrs.w	r2, r0, r1
   db6fc:	bf08      	it	eq
   db6fe:	4770      	bxeq	lr
   db700:	b530      	push	{r4, r5, lr}
   db702:	f011 4500 	ands.w	r5, r1, #2147483648	; 0x80000000
   db706:	d502      	bpl.n	db70e <__aeabi_l2d+0x16>
   db708:	4240      	negs	r0, r0
   db70a:	eb61 0141 	sbc.w	r1, r1, r1, lsl #1
   db70e:	f44f 6480 	mov.w	r4, #1024	; 0x400
   db712:	f104 0432 	add.w	r4, r4, #50	; 0x32
   db716:	ea5f 5c91 	movs.w	ip, r1, lsr #22
   db71a:	f43f aedc 	beq.w	db4d6 <__adddf3+0xe6>
   db71e:	f04f 0203 	mov.w	r2, #3
   db722:	ea5f 0cdc 	movs.w	ip, ip, lsr #3
   db726:	bf18      	it	ne
   db728:	3203      	addne	r2, #3
   db72a:	ea5f 0cdc 	movs.w	ip, ip, lsr #3
   db72e:	bf18      	it	ne
   db730:	3203      	addne	r2, #3
   db732:	eb02 02dc 	add.w	r2, r2, ip, lsr #3
   db736:	f1c2 0320 	rsb	r3, r2, #32
   db73a:	fa00 fc03 	lsl.w	ip, r0, r3
   db73e:	fa20 f002 	lsr.w	r0, r0, r2
   db742:	fa01 fe03 	lsl.w	lr, r1, r3
   db746:	ea40 000e 	orr.w	r0, r0, lr
   db74a:	fa21 f102 	lsr.w	r1, r1, r2
   db74e:	4414      	add	r4, r2
   db750:	e6c1      	b.n	db4d6 <__adddf3+0xe6>
   db752:	bf00      	nop

000db754 <__aeabi_dmul>:
   db754:	b570      	push	{r4, r5, r6, lr}
   db756:	f04f 0cff 	mov.w	ip, #255	; 0xff
   db75a:	f44c 6ce0 	orr.w	ip, ip, #1792	; 0x700
   db75e:	ea1c 5411 	ands.w	r4, ip, r1, lsr #20
   db762:	bf1d      	ittte	ne
   db764:	ea1c 5513 	andsne.w	r5, ip, r3, lsr #20
   db768:	ea94 0f0c 	teqne	r4, ip
   db76c:	ea95 0f0c 	teqne	r5, ip
   db770:	f000 f8de 	bleq	db930 <__aeabi_dmul+0x1dc>
   db774:	442c      	add	r4, r5
   db776:	ea81 0603 	eor.w	r6, r1, r3
   db77a:	ea21 514c 	bic.w	r1, r1, ip, lsl #21
   db77e:	ea23 534c 	bic.w	r3, r3, ip, lsl #21
   db782:	ea50 3501 	orrs.w	r5, r0, r1, lsl #12
   db786:	bf18      	it	ne
   db788:	ea52 3503 	orrsne.w	r5, r2, r3, lsl #12
   db78c:	f441 1180 	orr.w	r1, r1, #1048576	; 0x100000
   db790:	f443 1380 	orr.w	r3, r3, #1048576	; 0x100000
   db794:	d038      	beq.n	db808 <__aeabi_dmul+0xb4>
   db796:	fba0 ce02 	umull	ip, lr, r0, r2
   db79a:	f04f 0500 	mov.w	r5, #0
   db79e:	fbe1 e502 	umlal	lr, r5, r1, r2
   db7a2:	f006 4200 	and.w	r2, r6, #2147483648	; 0x80000000
   db7a6:	fbe0 e503 	umlal	lr, r5, r0, r3
   db7aa:	f04f 0600 	mov.w	r6, #0
   db7ae:	fbe1 5603 	umlal	r5, r6, r1, r3
   db7b2:	f09c 0f00 	teq	ip, #0
   db7b6:	bf18      	it	ne
   db7b8:	f04e 0e01 	orrne.w	lr, lr, #1
   db7bc:	f1a4 04ff 	sub.w	r4, r4, #255	; 0xff
   db7c0:	f5b6 7f00 	cmp.w	r6, #512	; 0x200
   db7c4:	f564 7440 	sbc.w	r4, r4, #768	; 0x300
   db7c8:	d204      	bcs.n	db7d4 <__aeabi_dmul+0x80>
   db7ca:	ea5f 0e4e 	movs.w	lr, lr, lsl #1
   db7ce:	416d      	adcs	r5, r5
   db7d0:	eb46 0606 	adc.w	r6, r6, r6
   db7d4:	ea42 21c6 	orr.w	r1, r2, r6, lsl #11
   db7d8:	ea41 5155 	orr.w	r1, r1, r5, lsr #21
   db7dc:	ea4f 20c5 	mov.w	r0, r5, lsl #11
   db7e0:	ea40 505e 	orr.w	r0, r0, lr, lsr #21
   db7e4:	ea4f 2ece 	mov.w	lr, lr, lsl #11
   db7e8:	f1b4 0cfd 	subs.w	ip, r4, #253	; 0xfd
   db7ec:	bf88      	it	hi
   db7ee:	f5bc 6fe0 	cmphi.w	ip, #1792	; 0x700
   db7f2:	d81e      	bhi.n	db832 <__aeabi_dmul+0xde>
   db7f4:	f1be 4f00 	cmp.w	lr, #2147483648	; 0x80000000
   db7f8:	bf08      	it	eq
   db7fa:	ea5f 0e50 	movseq.w	lr, r0, lsr #1
   db7fe:	f150 0000 	adcs.w	r0, r0, #0
   db802:	eb41 5104 	adc.w	r1, r1, r4, lsl #20
   db806:	bd70      	pop	{r4, r5, r6, pc}
   db808:	f006 4600 	and.w	r6, r6, #2147483648	; 0x80000000
   db80c:	ea46 0101 	orr.w	r1, r6, r1
   db810:	ea40 0002 	orr.w	r0, r0, r2
   db814:	ea81 0103 	eor.w	r1, r1, r3
   db818:	ebb4 045c 	subs.w	r4, r4, ip, lsr #1
   db81c:	bfc2      	ittt	gt
   db81e:	ebd4 050c 	rsbsgt	r5, r4, ip
   db822:	ea41 5104 	orrgt.w	r1, r1, r4, lsl #20
   db826:	bd70      	popgt	{r4, r5, r6, pc}
   db828:	f441 1180 	orr.w	r1, r1, #1048576	; 0x100000
   db82c:	f04f 0e00 	mov.w	lr, #0
   db830:	3c01      	subs	r4, #1
   db832:	f300 80ab 	bgt.w	db98c <__aeabi_dmul+0x238>
   db836:	f114 0f36 	cmn.w	r4, #54	; 0x36
   db83a:	bfde      	ittt	le
   db83c:	2000      	movle	r0, #0
   db83e:	f001 4100 	andle.w	r1, r1, #2147483648	; 0x80000000
   db842:	bd70      	pople	{r4, r5, r6, pc}
   db844:	f1c4 0400 	rsb	r4, r4, #0
   db848:	3c20      	subs	r4, #32
   db84a:	da35      	bge.n	db8b8 <__aeabi_dmul+0x164>
   db84c:	340c      	adds	r4, #12
   db84e:	dc1b      	bgt.n	db888 <__aeabi_dmul+0x134>
   db850:	f104 0414 	add.w	r4, r4, #20
   db854:	f1c4 0520 	rsb	r5, r4, #32
   db858:	fa00 f305 	lsl.w	r3, r0, r5
   db85c:	fa20 f004 	lsr.w	r0, r0, r4
   db860:	fa01 f205 	lsl.w	r2, r1, r5
   db864:	ea40 0002 	orr.w	r0, r0, r2
   db868:	f001 4200 	and.w	r2, r1, #2147483648	; 0x80000000
   db86c:	f021 4100 	bic.w	r1, r1, #2147483648	; 0x80000000
   db870:	eb10 70d3 	adds.w	r0, r0, r3, lsr #31
   db874:	fa21 f604 	lsr.w	r6, r1, r4
   db878:	eb42 0106 	adc.w	r1, r2, r6
   db87c:	ea5e 0e43 	orrs.w	lr, lr, r3, lsl #1
   db880:	bf08      	it	eq
   db882:	ea20 70d3 	biceq.w	r0, r0, r3, lsr #31
   db886:	bd70      	pop	{r4, r5, r6, pc}
   db888:	f1c4 040c 	rsb	r4, r4, #12
   db88c:	f1c4 0520 	rsb	r5, r4, #32
   db890:	fa00 f304 	lsl.w	r3, r0, r4
   db894:	fa20 f005 	lsr.w	r0, r0, r5
   db898:	fa01 f204 	lsl.w	r2, r1, r4
   db89c:	ea40 0002 	orr.w	r0, r0, r2
   db8a0:	f001 4100 	and.w	r1, r1, #2147483648	; 0x80000000
   db8a4:	eb10 70d3 	adds.w	r0, r0, r3, lsr #31
   db8a8:	f141 0100 	adc.w	r1, r1, #0
   db8ac:	ea5e 0e43 	orrs.w	lr, lr, r3, lsl #1
   db8b0:	bf08      	it	eq
   db8b2:	ea20 70d3 	biceq.w	r0, r0, r3, lsr #31
   db8b6:	bd70      	pop	{r4, r5, r6, pc}
   db8b8:	f1c4 0520 	rsb	r5, r4, #32
   db8bc:	fa00 f205 	lsl.w	r2, r0, r5
   db8c0:	ea4e 0e02 	orr.w	lr, lr, r2
   db8c4:	fa20 f304 	lsr.w	r3, r0, r4
   db8c8:	fa01 f205 	lsl.w	r2, r1, r5
   db8cc:	ea43 0302 	orr.w	r3, r3, r2
   db8d0:	fa21 f004 	lsr.w	r0, r1, r4
   db8d4:	f001 4100 	and.w	r1, r1, #2147483648	; 0x80000000
   db8d8:	fa21 f204 	lsr.w	r2, r1, r4
   db8dc:	ea20 0002 	bic.w	r0, r0, r2
   db8e0:	eb00 70d3 	add.w	r0, r0, r3, lsr #31
   db8e4:	ea5e 0e43 	orrs.w	lr, lr, r3, lsl #1
   db8e8:	bf08      	it	eq
   db8ea:	ea20 70d3 	biceq.w	r0, r0, r3, lsr #31
   db8ee:	bd70      	pop	{r4, r5, r6, pc}
   db8f0:	f094 0f00 	teq	r4, #0
   db8f4:	d10f      	bne.n	db916 <__aeabi_dmul+0x1c2>
   db8f6:	f001 4600 	and.w	r6, r1, #2147483648	; 0x80000000
   db8fa:	0040      	lsls	r0, r0, #1
   db8fc:	eb41 0101 	adc.w	r1, r1, r1
   db900:	f411 1f80 	tst.w	r1, #1048576	; 0x100000
   db904:	bf08      	it	eq
   db906:	3c01      	subeq	r4, #1
   db908:	d0f7      	beq.n	db8fa <__aeabi_dmul+0x1a6>
   db90a:	ea41 0106 	orr.w	r1, r1, r6
   db90e:	f095 0f00 	teq	r5, #0
   db912:	bf18      	it	ne
   db914:	4770      	bxne	lr
   db916:	f003 4600 	and.w	r6, r3, #2147483648	; 0x80000000
   db91a:	0052      	lsls	r2, r2, #1
   db91c:	eb43 0303 	adc.w	r3, r3, r3
   db920:	f413 1f80 	tst.w	r3, #1048576	; 0x100000
   db924:	bf08      	it	eq
   db926:	3d01      	subeq	r5, #1
   db928:	d0f7      	beq.n	db91a <__aeabi_dmul+0x1c6>
   db92a:	ea43 0306 	orr.w	r3, r3, r6
   db92e:	4770      	bx	lr
   db930:	ea94 0f0c 	teq	r4, ip
   db934:	ea0c 5513 	and.w	r5, ip, r3, lsr #20
   db938:	bf18      	it	ne
   db93a:	ea95 0f0c 	teqne	r5, ip
   db93e:	d00c      	beq.n	db95a <__aeabi_dmul+0x206>
   db940:	ea50 0641 	orrs.w	r6, r0, r1, lsl #1
   db944:	bf18      	it	ne
   db946:	ea52 0643 	orrsne.w	r6, r2, r3, lsl #1
   db94a:	d1d1      	bne.n	db8f0 <__aeabi_dmul+0x19c>
   db94c:	ea81 0103 	eor.w	r1, r1, r3
   db950:	f001 4100 	and.w	r1, r1, #2147483648	; 0x80000000
   db954:	f04f 0000 	mov.w	r0, #0
   db958:	bd70      	pop	{r4, r5, r6, pc}
   db95a:	ea50 0641 	orrs.w	r6, r0, r1, lsl #1
   db95e:	bf06      	itte	eq
   db960:	4610      	moveq	r0, r2
   db962:	4619      	moveq	r1, r3
   db964:	ea52 0643 	orrsne.w	r6, r2, r3, lsl #1
   db968:	d019      	beq.n	db99e <__aeabi_dmul+0x24a>
   db96a:	ea94 0f0c 	teq	r4, ip
   db96e:	d102      	bne.n	db976 <__aeabi_dmul+0x222>
   db970:	ea50 3601 	orrs.w	r6, r0, r1, lsl #12
   db974:	d113      	bne.n	db99e <__aeabi_dmul+0x24a>
   db976:	ea95 0f0c 	teq	r5, ip
   db97a:	d105      	bne.n	db988 <__aeabi_dmul+0x234>
   db97c:	ea52 3603 	orrs.w	r6, r2, r3, lsl #12
   db980:	bf1c      	itt	ne
   db982:	4610      	movne	r0, r2
   db984:	4619      	movne	r1, r3
   db986:	d10a      	bne.n	db99e <__aeabi_dmul+0x24a>
   db988:	ea81 0103 	eor.w	r1, r1, r3
   db98c:	f001 4100 	and.w	r1, r1, #2147483648	; 0x80000000
   db990:	f041 41fe 	orr.w	r1, r1, #2130706432	; 0x7f000000
   db994:	f441 0170 	orr.w	r1, r1, #15728640	; 0xf00000
   db998:	f04f 0000 	mov.w	r0, #0
   db99c:	bd70      	pop	{r4, r5, r6, pc}
   db99e:	f041 41fe 	orr.w	r1, r1, #2130706432	; 0x7f000000
   db9a2:	f441 0178 	orr.w	r1, r1, #16252928	; 0xf80000
   db9a6:	bd70      	pop	{r4, r5, r6, pc}

000db9a8 <__aeabi_ddiv>:
   db9a8:	b570      	push	{r4, r5, r6, lr}
   db9aa:	f04f 0cff 	mov.w	ip, #255	; 0xff
   db9ae:	f44c 6ce0 	orr.w	ip, ip, #1792	; 0x700
   db9b2:	ea1c 5411 	ands.w	r4, ip, r1, lsr #20
   db9b6:	bf1d      	ittte	ne
   db9b8:	ea1c 5513 	andsne.w	r5, ip, r3, lsr #20
   db9bc:	ea94 0f0c 	teqne	r4, ip
   db9c0:	ea95 0f0c 	teqne	r5, ip
   db9c4:	f000 f8a7 	bleq	dbb16 <__aeabi_ddiv+0x16e>
   db9c8:	eba4 0405 	sub.w	r4, r4, r5
   db9cc:	ea81 0e03 	eor.w	lr, r1, r3
   db9d0:	ea52 3503 	orrs.w	r5, r2, r3, lsl #12
   db9d4:	ea4f 3101 	mov.w	r1, r1, lsl #12
   db9d8:	f000 8088 	beq.w	dbaec <__aeabi_ddiv+0x144>
   db9dc:	ea4f 3303 	mov.w	r3, r3, lsl #12
   db9e0:	f04f 5580 	mov.w	r5, #268435456	; 0x10000000
   db9e4:	ea45 1313 	orr.w	r3, r5, r3, lsr #4
   db9e8:	ea43 6312 	orr.w	r3, r3, r2, lsr #24
   db9ec:	ea4f 2202 	mov.w	r2, r2, lsl #8
   db9f0:	ea45 1511 	orr.w	r5, r5, r1, lsr #4
   db9f4:	ea45 6510 	orr.w	r5, r5, r0, lsr #24
   db9f8:	ea4f 2600 	mov.w	r6, r0, lsl #8
   db9fc:	f00e 4100 	and.w	r1, lr, #2147483648	; 0x80000000
   dba00:	429d      	cmp	r5, r3
   dba02:	bf08      	it	eq
   dba04:	4296      	cmpeq	r6, r2
   dba06:	f144 04fd 	adc.w	r4, r4, #253	; 0xfd
   dba0a:	f504 7440 	add.w	r4, r4, #768	; 0x300
   dba0e:	d202      	bcs.n	dba16 <__aeabi_ddiv+0x6e>
   dba10:	085b      	lsrs	r3, r3, #1
   dba12:	ea4f 0232 	mov.w	r2, r2, rrx
   dba16:	1ab6      	subs	r6, r6, r2
   dba18:	eb65 0503 	sbc.w	r5, r5, r3
   dba1c:	085b      	lsrs	r3, r3, #1
   dba1e:	ea4f 0232 	mov.w	r2, r2, rrx
   dba22:	f44f 1080 	mov.w	r0, #1048576	; 0x100000
   dba26:	f44f 2c00 	mov.w	ip, #524288	; 0x80000
   dba2a:	ebb6 0e02 	subs.w	lr, r6, r2
   dba2e:	eb75 0e03 	sbcs.w	lr, r5, r3
   dba32:	bf22      	ittt	cs
   dba34:	1ab6      	subcs	r6, r6, r2
   dba36:	4675      	movcs	r5, lr
   dba38:	ea40 000c 	orrcs.w	r0, r0, ip
   dba3c:	085b      	lsrs	r3, r3, #1
   dba3e:	ea4f 0232 	mov.w	r2, r2, rrx
   dba42:	ebb6 0e02 	subs.w	lr, r6, r2
   dba46:	eb75 0e03 	sbcs.w	lr, r5, r3
   dba4a:	bf22      	ittt	cs
   dba4c:	1ab6      	subcs	r6, r6, r2
   dba4e:	4675      	movcs	r5, lr
   dba50:	ea40 005c 	orrcs.w	r0, r0, ip, lsr #1
   dba54:	085b      	lsrs	r3, r3, #1
   dba56:	ea4f 0232 	mov.w	r2, r2, rrx
   dba5a:	ebb6 0e02 	subs.w	lr, r6, r2
   dba5e:	eb75 0e03 	sbcs.w	lr, r5, r3
   dba62:	bf22      	ittt	cs
   dba64:	1ab6      	subcs	r6, r6, r2
   dba66:	4675      	movcs	r5, lr
   dba68:	ea40 009c 	orrcs.w	r0, r0, ip, lsr #2
   dba6c:	085b      	lsrs	r3, r3, #1
   dba6e:	ea4f 0232 	mov.w	r2, r2, rrx
   dba72:	ebb6 0e02 	subs.w	lr, r6, r2
   dba76:	eb75 0e03 	sbcs.w	lr, r5, r3
   dba7a:	bf22      	ittt	cs
   dba7c:	1ab6      	subcs	r6, r6, r2
   dba7e:	4675      	movcs	r5, lr
   dba80:	ea40 00dc 	orrcs.w	r0, r0, ip, lsr #3
   dba84:	ea55 0e06 	orrs.w	lr, r5, r6
   dba88:	d018      	beq.n	dbabc <__aeabi_ddiv+0x114>
   dba8a:	ea4f 1505 	mov.w	r5, r5, lsl #4
   dba8e:	ea45 7516 	orr.w	r5, r5, r6, lsr #28
   dba92:	ea4f 1606 	mov.w	r6, r6, lsl #4
   dba96:	ea4f 03c3 	mov.w	r3, r3, lsl #3
   dba9a:	ea43 7352 	orr.w	r3, r3, r2, lsr #29
   dba9e:	ea4f 02c2 	mov.w	r2, r2, lsl #3
   dbaa2:	ea5f 1c1c 	movs.w	ip, ip, lsr #4
   dbaa6:	d1c0      	bne.n	dba2a <__aeabi_ddiv+0x82>
   dbaa8:	f411 1f80 	tst.w	r1, #1048576	; 0x100000
   dbaac:	d10b      	bne.n	dbac6 <__aeabi_ddiv+0x11e>
   dbaae:	ea41 0100 	orr.w	r1, r1, r0
   dbab2:	f04f 0000 	mov.w	r0, #0
   dbab6:	f04f 4c00 	mov.w	ip, #2147483648	; 0x80000000
   dbaba:	e7b6      	b.n	dba2a <__aeabi_ddiv+0x82>
   dbabc:	f411 1f80 	tst.w	r1, #1048576	; 0x100000
   dbac0:	bf04      	itt	eq
   dbac2:	4301      	orreq	r1, r0
   dbac4:	2000      	moveq	r0, #0
   dbac6:	f1b4 0cfd 	subs.w	ip, r4, #253	; 0xfd
   dbaca:	bf88      	it	hi
   dbacc:	f5bc 6fe0 	cmphi.w	ip, #1792	; 0x700
   dbad0:	f63f aeaf 	bhi.w	db832 <__aeabi_dmul+0xde>
   dbad4:	ebb5 0c03 	subs.w	ip, r5, r3
   dbad8:	bf04      	itt	eq
   dbada:	ebb6 0c02 	subseq.w	ip, r6, r2
   dbade:	ea5f 0c50 	movseq.w	ip, r0, lsr #1
   dbae2:	f150 0000 	adcs.w	r0, r0, #0
   dbae6:	eb41 5104 	adc.w	r1, r1, r4, lsl #20
   dbaea:	bd70      	pop	{r4, r5, r6, pc}
   dbaec:	f00e 4e00 	and.w	lr, lr, #2147483648	; 0x80000000
   dbaf0:	ea4e 3111 	orr.w	r1, lr, r1, lsr #12
   dbaf4:	eb14 045c 	adds.w	r4, r4, ip, lsr #1
   dbaf8:	bfc2      	ittt	gt
   dbafa:	ebd4 050c 	rsbsgt	r5, r4, ip
   dbafe:	ea41 5104 	orrgt.w	r1, r1, r4, lsl #20
   dbb02:	bd70      	popgt	{r4, r5, r6, pc}
   dbb04:	f441 1180 	orr.w	r1, r1, #1048576	; 0x100000
   dbb08:	f04f 0e00 	mov.w	lr, #0
   dbb0c:	3c01      	subs	r4, #1
   dbb0e:	e690      	b.n	db832 <__aeabi_dmul+0xde>
   dbb10:	ea45 0e06 	orr.w	lr, r5, r6
   dbb14:	e68d      	b.n	db832 <__aeabi_dmul+0xde>
   dbb16:	ea0c 5513 	and.w	r5, ip, r3, lsr #20
   dbb1a:	ea94 0f0c 	teq	r4, ip
   dbb1e:	bf08      	it	eq
   dbb20:	ea95 0f0c 	teqeq	r5, ip
   dbb24:	f43f af3b 	beq.w	db99e <__aeabi_dmul+0x24a>
   dbb28:	ea94 0f0c 	teq	r4, ip
   dbb2c:	d10a      	bne.n	dbb44 <__aeabi_ddiv+0x19c>
   dbb2e:	ea50 3401 	orrs.w	r4, r0, r1, lsl #12
   dbb32:	f47f af34 	bne.w	db99e <__aeabi_dmul+0x24a>
   dbb36:	ea95 0f0c 	teq	r5, ip
   dbb3a:	f47f af25 	bne.w	db988 <__aeabi_dmul+0x234>
   dbb3e:	4610      	mov	r0, r2
   dbb40:	4619      	mov	r1, r3
   dbb42:	e72c      	b.n	db99e <__aeabi_dmul+0x24a>
   dbb44:	ea95 0f0c 	teq	r5, ip
   dbb48:	d106      	bne.n	dbb58 <__aeabi_ddiv+0x1b0>
   dbb4a:	ea52 3503 	orrs.w	r5, r2, r3, lsl #12
   dbb4e:	f43f aefd 	beq.w	db94c <__aeabi_dmul+0x1f8>
   dbb52:	4610      	mov	r0, r2
   dbb54:	4619      	mov	r1, r3
   dbb56:	e722      	b.n	db99e <__aeabi_dmul+0x24a>
   dbb58:	ea50 0641 	orrs.w	r6, r0, r1, lsl #1
   dbb5c:	bf18      	it	ne
   dbb5e:	ea52 0643 	orrsne.w	r6, r2, r3, lsl #1
   dbb62:	f47f aec5 	bne.w	db8f0 <__aeabi_dmul+0x19c>
   dbb66:	ea50 0441 	orrs.w	r4, r0, r1, lsl #1
   dbb6a:	f47f af0d 	bne.w	db988 <__aeabi_dmul+0x234>
   dbb6e:	ea52 0543 	orrs.w	r5, r2, r3, lsl #1
   dbb72:	f47f aeeb 	bne.w	db94c <__aeabi_dmul+0x1f8>
   dbb76:	e712      	b.n	db99e <__aeabi_dmul+0x24a>

000dbb78 <__gedf2>:
   dbb78:	f04f 3cff 	mov.w	ip, #4294967295	; 0xffffffff
   dbb7c:	e006      	b.n	dbb8c <__cmpdf2+0x4>
   dbb7e:	bf00      	nop

000dbb80 <__ledf2>:
   dbb80:	f04f 0c01 	mov.w	ip, #1
   dbb84:	e002      	b.n	dbb8c <__cmpdf2+0x4>
   dbb86:	bf00      	nop

000dbb88 <__cmpdf2>:
   dbb88:	f04f 0c01 	mov.w	ip, #1
   dbb8c:	f84d cd04 	str.w	ip, [sp, #-4]!
   dbb90:	ea4f 0c41 	mov.w	ip, r1, lsl #1
   dbb94:	ea7f 5c6c 	mvns.w	ip, ip, asr #21
   dbb98:	ea4f 0c43 	mov.w	ip, r3, lsl #1
   dbb9c:	bf18      	it	ne
   dbb9e:	ea7f 5c6c 	mvnsne.w	ip, ip, asr #21
   dbba2:	d01b      	beq.n	dbbdc <__cmpdf2+0x54>
   dbba4:	b001      	add	sp, #4
   dbba6:	ea50 0c41 	orrs.w	ip, r0, r1, lsl #1
   dbbaa:	bf0c      	ite	eq
   dbbac:	ea52 0c43 	orrseq.w	ip, r2, r3, lsl #1
   dbbb0:	ea91 0f03 	teqne	r1, r3
   dbbb4:	bf02      	ittt	eq
   dbbb6:	ea90 0f02 	teqeq	r0, r2
   dbbba:	2000      	moveq	r0, #0
   dbbbc:	4770      	bxeq	lr
   dbbbe:	f110 0f00 	cmn.w	r0, #0
   dbbc2:	ea91 0f03 	teq	r1, r3
   dbbc6:	bf58      	it	pl
   dbbc8:	4299      	cmppl	r1, r3
   dbbca:	bf08      	it	eq
   dbbcc:	4290      	cmpeq	r0, r2
   dbbce:	bf2c      	ite	cs
   dbbd0:	17d8      	asrcs	r0, r3, #31
   dbbd2:	ea6f 70e3 	mvncc.w	r0, r3, asr #31
   dbbd6:	f040 0001 	orr.w	r0, r0, #1
   dbbda:	4770      	bx	lr
   dbbdc:	ea4f 0c41 	mov.w	ip, r1, lsl #1
   dbbe0:	ea7f 5c6c 	mvns.w	ip, ip, asr #21
   dbbe4:	d102      	bne.n	dbbec <__cmpdf2+0x64>
   dbbe6:	ea50 3c01 	orrs.w	ip, r0, r1, lsl #12
   dbbea:	d107      	bne.n	dbbfc <__cmpdf2+0x74>
   dbbec:	ea4f 0c43 	mov.w	ip, r3, lsl #1
   dbbf0:	ea7f 5c6c 	mvns.w	ip, ip, asr #21
   dbbf4:	d1d6      	bne.n	dbba4 <__cmpdf2+0x1c>
   dbbf6:	ea52 3c03 	orrs.w	ip, r2, r3, lsl #12
   dbbfa:	d0d3      	beq.n	dbba4 <__cmpdf2+0x1c>
   dbbfc:	f85d 0b04 	ldr.w	r0, [sp], #4
   dbc00:	4770      	bx	lr
   dbc02:	bf00      	nop

000dbc04 <__aeabi_cdrcmple>:
   dbc04:	4684      	mov	ip, r0
   dbc06:	4610      	mov	r0, r2
   dbc08:	4662      	mov	r2, ip
   dbc0a:	468c      	mov	ip, r1
   dbc0c:	4619      	mov	r1, r3
   dbc0e:	4663      	mov	r3, ip
   dbc10:	e000      	b.n	dbc14 <__aeabi_cdcmpeq>
   dbc12:	bf00      	nop

000dbc14 <__aeabi_cdcmpeq>:
   dbc14:	b501      	push	{r0, lr}
   dbc16:	f7ff ffb7 	bl	dbb88 <__cmpdf2>
   dbc1a:	2800      	cmp	r0, #0
   dbc1c:	bf48      	it	mi
   dbc1e:	f110 0f00 	cmnmi.w	r0, #0
   dbc22:	bd01      	pop	{r0, pc}

000dbc24 <__aeabi_dcmpeq>:
   dbc24:	f84d ed08 	str.w	lr, [sp, #-8]!
   dbc28:	f7ff fff4 	bl	dbc14 <__aeabi_cdcmpeq>
   dbc2c:	bf0c      	ite	eq
   dbc2e:	2001      	moveq	r0, #1
   dbc30:	2000      	movne	r0, #0
   dbc32:	f85d fb08 	ldr.w	pc, [sp], #8
   dbc36:	bf00      	nop

000dbc38 <__aeabi_dcmplt>:
   dbc38:	f84d ed08 	str.w	lr, [sp, #-8]!
   dbc3c:	f7ff ffea 	bl	dbc14 <__aeabi_cdcmpeq>
   dbc40:	bf34      	ite	cc
   dbc42:	2001      	movcc	r0, #1
   dbc44:	2000      	movcs	r0, #0
   dbc46:	f85d fb08 	ldr.w	pc, [sp], #8
   dbc4a:	bf00      	nop

000dbc4c <__aeabi_dcmple>:
   dbc4c:	f84d ed08 	str.w	lr, [sp, #-8]!
   dbc50:	f7ff ffe0 	bl	dbc14 <__aeabi_cdcmpeq>
   dbc54:	bf94      	ite	ls
   dbc56:	2001      	movls	r0, #1
   dbc58:	2000      	movhi	r0, #0
   dbc5a:	f85d fb08 	ldr.w	pc, [sp], #8
   dbc5e:	bf00      	nop

000dbc60 <__aeabi_dcmpge>:
   dbc60:	f84d ed08 	str.w	lr, [sp, #-8]!
   dbc64:	f7ff ffce 	bl	dbc04 <__aeabi_cdrcmple>
   dbc68:	bf94      	ite	ls
   dbc6a:	2001      	movls	r0, #1
   dbc6c:	2000      	movhi	r0, #0
   dbc6e:	f85d fb08 	ldr.w	pc, [sp], #8
   dbc72:	bf00      	nop

000dbc74 <__aeabi_dcmpgt>:
   dbc74:	f84d ed08 	str.w	lr, [sp, #-8]!
   dbc78:	f7ff ffc4 	bl	dbc04 <__aeabi_cdrcmple>
   dbc7c:	bf34      	ite	cc
   dbc7e:	2001      	movcc	r0, #1
   dbc80:	2000      	movcs	r0, #0
   dbc82:	f85d fb08 	ldr.w	pc, [sp], #8
   dbc86:	bf00      	nop

000dbc88 <__aeabi_d2iz>:
   dbc88:	ea4f 0241 	mov.w	r2, r1, lsl #1
   dbc8c:	f512 1200 	adds.w	r2, r2, #2097152	; 0x200000
   dbc90:	d215      	bcs.n	dbcbe <__aeabi_d2iz+0x36>
   dbc92:	d511      	bpl.n	dbcb8 <__aeabi_d2iz+0x30>
   dbc94:	f46f 7378 	mvn.w	r3, #992	; 0x3e0
   dbc98:	ebb3 5262 	subs.w	r2, r3, r2, asr #21
   dbc9c:	d912      	bls.n	dbcc4 <__aeabi_d2iz+0x3c>
   dbc9e:	ea4f 23c1 	mov.w	r3, r1, lsl #11
   dbca2:	f043 4300 	orr.w	r3, r3, #2147483648	; 0x80000000
   dbca6:	ea43 5350 	orr.w	r3, r3, r0, lsr #21
   dbcaa:	f011 4f00 	tst.w	r1, #2147483648	; 0x80000000
   dbcae:	fa23 f002 	lsr.w	r0, r3, r2
   dbcb2:	bf18      	it	ne
   dbcb4:	4240      	negne	r0, r0
   dbcb6:	4770      	bx	lr
   dbcb8:	f04f 0000 	mov.w	r0, #0
   dbcbc:	4770      	bx	lr
   dbcbe:	ea50 3001 	orrs.w	r0, r0, r1, lsl #12
   dbcc2:	d105      	bne.n	dbcd0 <__aeabi_d2iz+0x48>
   dbcc4:	f011 4000 	ands.w	r0, r1, #2147483648	; 0x80000000
   dbcc8:	bf08      	it	eq
   dbcca:	f06f 4000 	mvneq.w	r0, #2147483648	; 0x80000000
   dbcce:	4770      	bx	lr
   dbcd0:	f04f 0000 	mov.w	r0, #0
   dbcd4:	4770      	bx	lr
   dbcd6:	bf00      	nop

000dbcd8 <__aeabi_d2uiz>:
   dbcd8:	004a      	lsls	r2, r1, #1
   dbcda:	d211      	bcs.n	dbd00 <__aeabi_d2uiz+0x28>
   dbcdc:	f512 1200 	adds.w	r2, r2, #2097152	; 0x200000
   dbce0:	d211      	bcs.n	dbd06 <__aeabi_d2uiz+0x2e>
   dbce2:	d50d      	bpl.n	dbd00 <__aeabi_d2uiz+0x28>
   dbce4:	f46f 7378 	mvn.w	r3, #992	; 0x3e0
   dbce8:	ebb3 5262 	subs.w	r2, r3, r2, asr #21
   dbcec:	d40e      	bmi.n	dbd0c <__aeabi_d2uiz+0x34>
   dbcee:	ea4f 23c1 	mov.w	r3, r1, lsl #11
   dbcf2:	f043 4300 	orr.w	r3, r3, #2147483648	; 0x80000000
   dbcf6:	ea43 5350 	orr.w	r3, r3, r0, lsr #21
   dbcfa:	fa23 f002 	lsr.w	r0, r3, r2
   dbcfe:	4770      	bx	lr
   dbd00:	f04f 0000 	mov.w	r0, #0
   dbd04:	4770      	bx	lr
   dbd06:	ea50 3001 	orrs.w	r0, r0, r1, lsl #12
   dbd0a:	d102      	bne.n	dbd12 <__aeabi_d2uiz+0x3a>
   dbd0c:	f04f 30ff 	mov.w	r0, #4294967295	; 0xffffffff
   dbd10:	4770      	bx	lr
   dbd12:	f04f 0000 	mov.w	r0, #0
   dbd16:	4770      	bx	lr

000dbd18 <__aeabi_d2f>:
   dbd18:	ea4f 0241 	mov.w	r2, r1, lsl #1
   dbd1c:	f1b2 43e0 	subs.w	r3, r2, #1879048192	; 0x70000000
   dbd20:	bf24      	itt	cs
   dbd22:	f5b3 1c00 	subscs.w	ip, r3, #2097152	; 0x200000
   dbd26:	f1dc 5cfe 	rsbscs	ip, ip, #532676608	; 0x1fc00000
   dbd2a:	d90d      	bls.n	dbd48 <__aeabi_d2f+0x30>
   dbd2c:	f001 4c00 	and.w	ip, r1, #2147483648	; 0x80000000
   dbd30:	ea4f 02c0 	mov.w	r2, r0, lsl #3
   dbd34:	ea4c 7050 	orr.w	r0, ip, r0, lsr #29
   dbd38:	f1b2 4f00 	cmp.w	r2, #2147483648	; 0x80000000
   dbd3c:	eb40 0083 	adc.w	r0, r0, r3, lsl #2
   dbd40:	bf08      	it	eq
   dbd42:	f020 0001 	biceq.w	r0, r0, #1
   dbd46:	4770      	bx	lr
   dbd48:	f011 4f80 	tst.w	r1, #1073741824	; 0x40000000
   dbd4c:	d121      	bne.n	dbd92 <__aeabi_d2f+0x7a>
   dbd4e:	f113 7238 	adds.w	r2, r3, #48234496	; 0x2e00000
   dbd52:	bfbc      	itt	lt
   dbd54:	f001 4000 	andlt.w	r0, r1, #2147483648	; 0x80000000
   dbd58:	4770      	bxlt	lr
   dbd5a:	f441 1180 	orr.w	r1, r1, #1048576	; 0x100000
   dbd5e:	ea4f 5252 	mov.w	r2, r2, lsr #21
   dbd62:	f1c2 0218 	rsb	r2, r2, #24
   dbd66:	f1c2 0c20 	rsb	ip, r2, #32
   dbd6a:	fa10 f30c 	lsls.w	r3, r0, ip
   dbd6e:	fa20 f002 	lsr.w	r0, r0, r2
   dbd72:	bf18      	it	ne
   dbd74:	f040 0001 	orrne.w	r0, r0, #1
   dbd78:	ea4f 23c1 	mov.w	r3, r1, lsl #11
   dbd7c:	ea4f 23d3 	mov.w	r3, r3, lsr #11
   dbd80:	fa03 fc0c 	lsl.w	ip, r3, ip
   dbd84:	ea40 000c 	orr.w	r0, r0, ip
   dbd88:	fa23 f302 	lsr.w	r3, r3, r2
   dbd8c:	ea4f 0343 	mov.w	r3, r3, lsl #1
   dbd90:	e7cc      	b.n	dbd2c <__aeabi_d2f+0x14>
   dbd92:	ea7f 5362 	mvns.w	r3, r2, asr #21
   dbd96:	d107      	bne.n	dbda8 <__aeabi_d2f+0x90>
   dbd98:	ea50 3301 	orrs.w	r3, r0, r1, lsl #12
   dbd9c:	bf1e      	ittt	ne
   dbd9e:	f04f 40fe 	movne.w	r0, #2130706432	; 0x7f000000
   dbda2:	f440 0040 	orrne.w	r0, r0, #12582912	; 0xc00000
   dbda6:	4770      	bxne	lr
   dbda8:	f001 4000 	and.w	r0, r1, #2147483648	; 0x80000000
   dbdac:	f040 40fe 	orr.w	r0, r0, #2130706432	; 0x7f000000
   dbdb0:	f440 0000 	orr.w	r0, r0, #8388608	; 0x800000
   dbdb4:	4770      	bx	lr
   dbdb6:	bf00      	nop

000dbdb8 <__cxa_atexit>:
   dbdb8:	b510      	push	{r4, lr}
   dbdba:	4c05      	ldr	r4, [pc, #20]	; (dbdd0 <__cxa_atexit+0x18>)
   dbdbc:	4613      	mov	r3, r2
   dbdbe:	b12c      	cbz	r4, dbdcc <__cxa_atexit+0x14>
   dbdc0:	460a      	mov	r2, r1
   dbdc2:	4601      	mov	r1, r0
   dbdc4:	2002      	movs	r0, #2
   dbdc6:	f3af 8000 	nop.w
   dbdca:	bd10      	pop	{r4, pc}
   dbdcc:	4620      	mov	r0, r4
   dbdce:	bd10      	pop	{r4, pc}
   dbdd0:	00000000 	.word	0x00000000

000dbdd4 <ldiv>:
   dbdd4:	2900      	cmp	r1, #0
   dbdd6:	b510      	push	{r4, lr}
   dbdd8:	fb91 f4f2 	sdiv	r4, r1, r2
   dbddc:	fb02 1314 	mls	r3, r2, r4, r1
   dbde0:	db04      	blt.n	dbdec <ldiv+0x18>
   dbde2:	2b00      	cmp	r3, #0
   dbde4:	da07      	bge.n	dbdf6 <ldiv+0x22>
   dbde6:	3401      	adds	r4, #1
   dbde8:	1a9b      	subs	r3, r3, r2
   dbdea:	e004      	b.n	dbdf6 <ldiv+0x22>
   dbdec:	2b00      	cmp	r3, #0
   dbdee:	bfc4      	itt	gt
   dbdf0:	f104 34ff 	addgt.w	r4, r4, #4294967295	; 0xffffffff
   dbdf4:	189b      	addgt	r3, r3, r2
   dbdf6:	6004      	str	r4, [r0, #0]
   dbdf8:	6043      	str	r3, [r0, #4]
   dbdfa:	bd10      	pop	{r4, pc}

000dbdfc <memcmp>:
   dbdfc:	b510      	push	{r4, lr}
   dbdfe:	3901      	subs	r1, #1
   dbe00:	4402      	add	r2, r0
   dbe02:	4290      	cmp	r0, r2
   dbe04:	d007      	beq.n	dbe16 <memcmp+0x1a>
   dbe06:	f810 3b01 	ldrb.w	r3, [r0], #1
   dbe0a:	f811 4f01 	ldrb.w	r4, [r1, #1]!
   dbe0e:	42a3      	cmp	r3, r4
   dbe10:	d0f7      	beq.n	dbe02 <memcmp+0x6>
   dbe12:	1b18      	subs	r0, r3, r4
   dbe14:	bd10      	pop	{r4, pc}
   dbe16:	2000      	movs	r0, #0
   dbe18:	bd10      	pop	{r4, pc}

000dbe1a <memcpy>:
   dbe1a:	b510      	push	{r4, lr}
   dbe1c:	1e43      	subs	r3, r0, #1
   dbe1e:	440a      	add	r2, r1
   dbe20:	4291      	cmp	r1, r2
   dbe22:	d004      	beq.n	dbe2e <memcpy+0x14>
   dbe24:	f811 4b01 	ldrb.w	r4, [r1], #1
   dbe28:	f803 4f01 	strb.w	r4, [r3, #1]!
   dbe2c:	e7f8      	b.n	dbe20 <memcpy+0x6>
   dbe2e:	bd10      	pop	{r4, pc}

000dbe30 <memset>:
   dbe30:	4402      	add	r2, r0
   dbe32:	4603      	mov	r3, r0
   dbe34:	4293      	cmp	r3, r2
   dbe36:	d002      	beq.n	dbe3e <memset+0xe>
   dbe38:	f803 1b01 	strb.w	r1, [r3], #1
   dbe3c:	e7fa      	b.n	dbe34 <memset+0x4>
   dbe3e:	4770      	bx	lr

000dbe40 <rand>:
   dbe40:	4b19      	ldr	r3, [pc, #100]	; (dbea8 <rand+0x68>)
   dbe42:	b510      	push	{r4, lr}
   dbe44:	681c      	ldr	r4, [r3, #0]
   dbe46:	6ba3      	ldr	r3, [r4, #56]	; 0x38
   dbe48:	b9d3      	cbnz	r3, dbe80 <rand+0x40>
   dbe4a:	2018      	movs	r0, #24
   dbe4c:	f7fd fa10 	bl	d9270 <malloc>
   dbe50:	f243 330e 	movw	r3, #13070	; 0x330e
   dbe54:	63a0      	str	r0, [r4, #56]	; 0x38
   dbe56:	8003      	strh	r3, [r0, #0]
   dbe58:	f64a 33cd 	movw	r3, #43981	; 0xabcd
   dbe5c:	8043      	strh	r3, [r0, #2]
   dbe5e:	f241 2334 	movw	r3, #4660	; 0x1234
   dbe62:	8083      	strh	r3, [r0, #4]
   dbe64:	f24e 636d 	movw	r3, #58989	; 0xe66d
   dbe68:	80c3      	strh	r3, [r0, #6]
   dbe6a:	f64d 63ec 	movw	r3, #57068	; 0xdeec
   dbe6e:	8103      	strh	r3, [r0, #8]
   dbe70:	2305      	movs	r3, #5
   dbe72:	8143      	strh	r3, [r0, #10]
   dbe74:	230b      	movs	r3, #11
   dbe76:	8183      	strh	r3, [r0, #12]
   dbe78:	2201      	movs	r2, #1
   dbe7a:	2300      	movs	r3, #0
   dbe7c:	e9c0 2304 	strd	r2, r3, [r0, #16]
   dbe80:	6ba1      	ldr	r1, [r4, #56]	; 0x38
   dbe82:	4c0a      	ldr	r4, [pc, #40]	; (dbeac <rand+0x6c>)
   dbe84:	690b      	ldr	r3, [r1, #16]
   dbe86:	6948      	ldr	r0, [r1, #20]
   dbe88:	4a09      	ldr	r2, [pc, #36]	; (dbeb0 <rand+0x70>)
   dbe8a:	435c      	muls	r4, r3
   dbe8c:	fb02 4000 	mla	r0, r2, r0, r4
   dbe90:	fba3 2302 	umull	r2, r3, r3, r2
   dbe94:	3201      	adds	r2, #1
   dbe96:	4403      	add	r3, r0
   dbe98:	f143 0300 	adc.w	r3, r3, #0
   dbe9c:	e9c1 2304 	strd	r2, r3, [r1, #16]
   dbea0:	f023 4000 	bic.w	r0, r3, #2147483648	; 0x80000000
   dbea4:	bd10      	pop	{r4, pc}
   dbea6:	bf00      	nop
   dbea8:	2003e128 	.word	0x2003e128
   dbeac:	5851f42d 	.word	0x5851f42d
   dbeb0:	4c957f2d 	.word	0x4c957f2d

000dbeb4 <strcpy>:
   dbeb4:	4603      	mov	r3, r0
   dbeb6:	f811 2b01 	ldrb.w	r2, [r1], #1
   dbeba:	f803 2b01 	strb.w	r2, [r3], #1
   dbebe:	2a00      	cmp	r2, #0
   dbec0:	d1f9      	bne.n	dbeb6 <strcpy+0x2>
   dbec2:	4770      	bx	lr

000dbec4 <strdup>:
   dbec4:	4b02      	ldr	r3, [pc, #8]	; (dbed0 <strdup+0xc>)
   dbec6:	4601      	mov	r1, r0
   dbec8:	6818      	ldr	r0, [r3, #0]
   dbeca:	f000 b803 	b.w	dbed4 <_strdup_r>
   dbece:	bf00      	nop
   dbed0:	2003e128 	.word	0x2003e128

000dbed4 <_strdup_r>:
   dbed4:	b570      	push	{r4, r5, r6, lr}
   dbed6:	4606      	mov	r6, r0
   dbed8:	4608      	mov	r0, r1
   dbeda:	460c      	mov	r4, r1
   dbedc:	f000 f80d 	bl	dbefa <strlen>
   dbee0:	1c45      	adds	r5, r0, #1
   dbee2:	4629      	mov	r1, r5
   dbee4:	4630      	mov	r0, r6
   dbee6:	f7fd f9eb 	bl	d92c0 <_malloc_r>
   dbeea:	4606      	mov	r6, r0
   dbeec:	b118      	cbz	r0, dbef6 <_strdup_r+0x22>
   dbeee:	462a      	mov	r2, r5
   dbef0:	4621      	mov	r1, r4
   dbef2:	f7ff ff92 	bl	dbe1a <memcpy>
   dbef6:	4630      	mov	r0, r6
   dbef8:	bd70      	pop	{r4, r5, r6, pc}

000dbefa <strlen>:
   dbefa:	4603      	mov	r3, r0
   dbefc:	f813 2b01 	ldrb.w	r2, [r3], #1
   dbf00:	2a00      	cmp	r2, #0
   dbf02:	d1fb      	bne.n	dbefc <strlen+0x2>
   dbf04:	1a18      	subs	r0, r3, r0
   dbf06:	3801      	subs	r0, #1
   dbf08:	4770      	bx	lr

000dbf0a <strncmp>:
   dbf0a:	b530      	push	{r4, r5, lr}
   dbf0c:	b182      	cbz	r2, dbf30 <strncmp+0x26>
   dbf0e:	1e45      	subs	r5, r0, #1
   dbf10:	3901      	subs	r1, #1
   dbf12:	f815 3f01 	ldrb.w	r3, [r5, #1]!
   dbf16:	f811 4f01 	ldrb.w	r4, [r1, #1]!
   dbf1a:	42a3      	cmp	r3, r4
   dbf1c:	d106      	bne.n	dbf2c <strncmp+0x22>
   dbf1e:	43ec      	mvns	r4, r5
   dbf20:	4414      	add	r4, r2
   dbf22:	42e0      	cmn	r0, r4
   dbf24:	d001      	beq.n	dbf2a <strncmp+0x20>
   dbf26:	2b00      	cmp	r3, #0
   dbf28:	d1f3      	bne.n	dbf12 <strncmp+0x8>
   dbf2a:	461c      	mov	r4, r3
   dbf2c:	1b18      	subs	r0, r3, r4
   dbf2e:	bd30      	pop	{r4, r5, pc}
   dbf30:	4610      	mov	r0, r2
   dbf32:	bd30      	pop	{r4, r5, pc}

000dbf34 <strncpy>:
   dbf34:	b510      	push	{r4, lr}
   dbf36:	4603      	mov	r3, r0
   dbf38:	b142      	cbz	r2, dbf4c <strncpy+0x18>
   dbf3a:	f811 4b01 	ldrb.w	r4, [r1], #1
   dbf3e:	f803 4b01 	strb.w	r4, [r3], #1
   dbf42:	3a01      	subs	r2, #1
   dbf44:	2c00      	cmp	r4, #0
   dbf46:	d1f7      	bne.n	dbf38 <strncpy+0x4>
   dbf48:	441a      	add	r2, r3
   dbf4a:	e000      	b.n	dbf4e <strncpy+0x1a>
   dbf4c:	bd10      	pop	{r4, pc}
   dbf4e:	4293      	cmp	r3, r2
   dbf50:	d002      	beq.n	dbf58 <strncpy+0x24>
   dbf52:	f803 4b01 	strb.w	r4, [r3], #1
   dbf56:	e7fa      	b.n	dbf4e <strncpy+0x1a>
   dbf58:	bd10      	pop	{r4, pc}

000dbf5a <strnlen>:
   dbf5a:	b510      	push	{r4, lr}
   dbf5c:	4603      	mov	r3, r0
   dbf5e:	4401      	add	r1, r0
   dbf60:	428b      	cmp	r3, r1
   dbf62:	d004      	beq.n	dbf6e <strnlen+0x14>
   dbf64:	781a      	ldrb	r2, [r3, #0]
   dbf66:	1c5c      	adds	r4, r3, #1
   dbf68:	b10a      	cbz	r2, dbf6e <strnlen+0x14>
   dbf6a:	4623      	mov	r3, r4
   dbf6c:	e7f8      	b.n	dbf60 <strnlen+0x6>
   dbf6e:	1a18      	subs	r0, r3, r0
   dbf70:	bd10      	pop	{r4, pc}

000dbf72 <link_code_end>:
	...

000dbf74 <dynalib_user>:
   dbf74:	401d 000d 4059 000d 4085 000d 4089 000d     .@..Y@...@...@..
   dbf84:	0000 0000 7845 7469 4320 6c61 656c 0064     ....Exit Called.
   dbf94:	6143 6c6c 6f20 206e 7570 6572 7620 7269     Call on pure vir
   dbfa4:	7574 6c61 4300                                   tual.

000dbfa9 <_ZL11itmDisplay5>:
   dbfa9:	6143 6f72 7375 6c65 3c00                         Carousel.

000dbfb2 <_ZL7itmBack>:
   dbfb2:	203c 6142 6b63 4200                              < Back.

000dbfb9 <_ZL11itmDisplay1>:
   dbfb9:	6142 6764 2065 614d 7172 6575 0065 7b00          Badge Marquee..

000dbfc8 <_ZL8mnuMusic>:
   dbfc8:	c07b 000d c04c 000d c091 000d c0d2 000d     {...L...........
   dbfd8:	c081 000d bfb2 000d                         ........

000dbfe0 <_ZL11itmDisplay2>:
   dbfe0:	614e 656d 4100                                   Name.

000dbfe5 <_ZL12itmRootAbout>:
   dbfe5:	6241 756f 0074                              About.

000dbfeb <_ZL11itmRootMesh>:
   dbfeb:	654d 6873 5420 6f6f 736c 5300                    Mesh Tools.

000dbff6 <_ZL14itmRootSensors>:
   dbff6:	6553 736e 726f 0073                         Sensors.

000dbffe <_ZL8itmMesh1>:
   dbffe:	654d 6873 4e20 7465 6f77 6b72 4800               Mesh Network.

000dc00b <_ZL8itmMesh2>:
   dc00b:	6548 6c6c 206f 6950 676e 4700                    Hello Ping.

000dc016 <_ZL8itmMesh3>:
   dc016:	6147 6574 6177 2079 6950 676e 5000               Gateway Ping.

000dc023 <_ZL10itmBlinky2>:
   dc023:	7550 736c 6e69 0067 2c00                         Pulsing..

000dc02c <_ZL8mnuGames>:
   dc02c:	c12c 000d c0f1 000d c0ff 000d bfb2 000d     ,...............

000dc03c <_ZL10mnuSensors>:
   dc03c:	bfeb 000d c1f7 000d c207 000d bfb2 000d     ................

000dc04c <_ZL9itmMusic1>:
   dc04c:	614d 6972 206f 7453 7261 0074               Mario Start.

000dc058 <_ZL7mnuMesh>:
   dc058:	bfeb 000d bffe 000d c00b 000d c016 000d     ................
   dc068:	bfb2 000d                                   ....

000dc06c <_ZL14itmRootDisplay>:
   dc06c:	6944 7073 616c 0079                         Display.

000dc074 <_ZL13itmRootBlinky>:
   dc074:	6c42 6e69 796b 4d00                              Blinky.

000dc07b <_ZL12itmRootMusic>:
   dc07b:	754d 6973 0063                              Music.

000dc081 <_ZL9itmMusic4>:
   dc081:	6542 2065 6547 7365 4b00                         Bee Gees.

000dc08a <_ZL12itmGraphics4>:
   dc08a:	6f4b 616e 696d 4d00                              Konami.

000dc091 <_ZL9itmMusic2>:
   dc091:	614d 6972 206f 6147 656d 4f20 6576 0072     Mario Game Over.

000dc0a1 <_ZL13itmAnimation1>:
   dc0a1:	6e53 776f 6c66 6b61 7365 5400                    Snowflakes.

000dc0ac <_ZL13itmAnimation4>:
   dc0ac:	7254 6169 676e 656c 0073                    Triangles.

000dc0b6 <_ZL13itmAnimation5>:
   dc0b6:	6f52 6e75 2064 6552 7463 0073               Round Rects.

000dc0c2 <_ZL13itmAnimation6>:
   dc0c2:	6353 6f72 6c6c 5420 7865 0074               Scroll Text.

000dc0ce <_ZL13itmAnimation7>:
   dc0ce:	6c41 006c                                   All.

000dc0d2 <_ZL9itmMusic3>:
   dc0d2:	654e 6576 2072 6f47 6e6e 0061               Never Gonna.

000dc0de <_ZL12itmGraphics1>:
   dc0de:	7053 7261 006b                              Spark.

000dc0e4 <_ZL12itmGraphics2>:
   dc0e4:	7053 6365 7274 0061                         Spectra.

000dc0ec <_ZL12itmGraphics3>:
   dc0ec:	654d 6873 4500                                   Mesh.

000dc0f1 <_ZL8itmGame1>:
   dc0f1:	7445 6863 6120 5320 656b 6374 0068          Etch a Sketch.

000dc0ff <_ZL8itmGame2>:
   dc0ff:	6e53 6b61 0065 0000 5000                         Snake....

000dc108 <_ZL13mnuAnimations>:
   dc108:	c150 000d c0a1 000d c178 000d c132 000d     P.......x...2...
   dc118:	c0ac 000d c0b6 000d c0c2 000d c0ce 000d     ................
   dc128:	bfb2 000d                                   ....

000dc12c <_ZL12itmRootGames>:
   dc12c:	6147 656d 0073                              Games.

000dc132 <_ZL13itmAnimation3>:
   dc132:	6552 7463 6e61 6c67 7365 5300                    Rectangles.

000dc13d <_ZL7itmRoot>:
   dc13d:	7053 6365 7274 2061 3032 3831 4220 6461     Spectra 2018 Bad
   dc14d:	6567 4100                                        ge.

000dc150 <_ZL17itmRootAnimations>:
   dc150:	6e41 6d69 7461 6f69 736e 0000               Animations..

000dc15c <_ZL9mnuBlinky>:
   dc15c:	c074 000d c1bb 000d c023 000d c1dc 000d     t.......#.......
   dc16c:	c1e8 000d c1ef 000d bfb2 000d               ............

000dc178 <_ZL13itmAnimation2>:
   dc178:	6943 6372 656c 0073                         Circles.

000dc180 <_ZL10mnuDisplay>:
   dc180:	c06c 000d bfb9 000d bfe0 000d c19c 000d     l...............
   dc190:	c1ab 000d bfa9 000d bfb2 000d               ............

000dc19c <_ZL11itmDisplay3>:
   dc19c:	7754 7469 6574 2072 6148 646e 656c 5400          Twitter Handle.

000dc1ab <_ZL11itmDisplay4>:
   dc1ab:	6554 706d 2620 4820 6d75 6469 7469 0079     Temp & Humidity.

000dc1bb <_ZL10itmBlinky1>:
   dc1bb:	6843 7361 0065 0000 7e00                         Chase....

000dc1c4 <_ZL11mnuGraphics>:
   dc1c4:	c27e 000d c0de 000d c0e4 000d c0ec 000d     ~...............
   dc1d4:	c08a 000d bfb2 000d                         ........

000dc1dc <_ZL10itmBlinky3>:
   dc1dc:	7550 736c 2065 6843 7361 0065               Pulse Chase.

000dc1e8 <_ZL10itmBlinky4>:
   dc1e8:	6152 646e 6d6f 5300                              Random.

000dc1ef <_ZL10itmBlinky5>:
   dc1ef:	6553 2d65 6173 0077                         See-saw.

000dc1f7 <_ZL11itmSensors1>:
   dc1f7:	6554 706d 2620 4820 6d75 6469 7469 0079     Temp & Humidity.

000dc207 <_ZL11itmSensors2>:
   dc207:	6142 7474 7265 2079 7453 7461 7375 7700     Battery Status.w
   dc217:	6165 6572 4672 614e 656d 7700 6165 6572     earerFName.weare
   dc227:	4c72 614e 656d 7700 6165 6572 5472 7477     rLName.wearerTwt
   dc237:	7274 6300 7275 6572 746e 6554 706d 6300     tr.currentTemp.c
   dc247:	7275 6572 746e 7548 7500 6470 7461 4665     urrentHu.updateF
   dc257:	614e 656d 7500 6470 7461 4c65 614e 656d     Name.updateLName
   dc267:	7500 6470 7461 5465 7477 7274 6300 6568     .updateTwttr.che
   dc277:	6b63 6554 706d 4700                              ckTemp.

000dc27e <_ZL15itmRootGraphics>:
   dc27e:	7247 7061 6968 7363 0000                         Graphics.

000dc287 <_ZL15logo16_glcd_bmp>:
   dc287:	0000 0000 0001 8811 300d e00e e007 dc3b     .........0....;.
   dc297:	d817 e007 700e b009 8811 0001 0000 0000     .....p..........
   dc2a7:	5023 7261 6974 0000 e500 0dc8 f000 0dc8     #Parti..........
   dc2b7:	fe00 0dc8 0300                                   .....

000dc2bc <_ZL9tempImage>:
   dc2bc:	c003 f00f 781e 1818 1c38 1c38 1c38 1c38     .....x..8.8.8.8.
   dc2cc:	1c38 1c38 1c38 1c38 1c38 1c38 1c38 1c38     8.8.8.8.8.8.8.8.
   dc2dc:	1c38 1c38 1c38 1c38 1c38 1c38 1c38 1c38     8.8.8.8.8.8.8.8.
   dc2ec:	1c38 1c38 fc3f fc3f fc3f fc3f fe7f fe7f     8.8.?.?.?.?.....
   dc2fc:	ffff ffff ffff ffff ffff ffff fe7f fe7f     ................
   dc30c:	fc3f f81f e007                              ?.....

000dc312 <_ZL15batteryLowImage>:
   dc312:	ff3f ffff ffff fcff 7f00 ffff ffff ffff     ?...............
   dc322:	00fe ffff ffff ffff ffff ff00 ffff ffff     ................
   dc332:	ffff 00ff 00f0 0000 0000 0f00 f000 0000     ................
   dc342:	0000 0000 000f 00f0 0000 0000 0f00 f0fc     ................
   dc352:	0000 0000 0000 fe0f fff0 c0ff 0000 0f00     ................
   dc362:	f0ff ffff 00c0 0000 ff0f fff0 80ff 0000     ................
   dc372:	0f00 f00f ffff 0080 0000 0f0f fff0 00ff     ................
   dc382:	0000 0f00 f00f ffff 0000 0000 0f0f fff0     ................
   dc392:	00fe 0000 0f00 f00f fcff 0000 0000 0f0f     ................
   dc3a2:	fff0 00fc 0000 0f00 f00f fcff 0000 0000     ................
   dc3b2:	0f0f fff0 00fc 0000 0f00 f00f f8ff 0000     ................
   dc3c2:	0000 0f0f fff0 00f8 0000 0f00 f00f f0ff     ................
   dc3d2:	0000 0000 0f0f fff0 00e0 0000 0f00 f0ff     ................
   dc3e2:	e0ff 0000 0000 ff0f 00f0 0000 0000 0f00     ................
   dc3f2:	f0fe 0000 0000 0000 fe0f 00f0 0000 0000     ................
   dc402:	0f00 f000 0000 0000 0000 000f ffff ffff     ................
   dc412:	ffff ffff ff00 ffff ffff ffff 00ff ff7f     ................
   dc422:	ffff ffff feff 3f00 ffff ffff ffff 00fc     .......?........

000dc432 <_ZL13humidityImage>:
   dc432:	6000 0000 0060 f000 0100 00f8 fc03 0300     .`..`...........
   dc442:	00fc fe07 0f00 00ff ff1f 1f80 80ff 7f3c     ..............<.
   dc452:	38c0 c03f 3979 78e0 e031 63fc fff0 f0c7     .8?.y9.x1..c....
   dc462:	8fff fff0 f01f 3ffe fcf0 f063 c978 79e0     .......?..c.x..y
   dc472:	e0c9 c13f 3fc0 c0f7 ff1f 0780 00fe f801     ..?..?..........
	...

000dc483 <_ZL11spectraLogo>:
	...
   dc587:	0000 ff7f fcff 0000 0000 0000 0000 0000     ................
   dc597:	0100 0000 0000 0000 0000 0000 0000 0000     ................
   dc5a7:	0100 0000 0100 0000 0000 0000 0000 0000     ................
   dc5b7:	0200 0000 0000 0080 0000 0000 0000 0000     ................
   dc5c7:	0200 0000 0000 0080 0000 0000 0000 0000     ................
   dc5d7:	0400 0000 0000 0040 0000 0000 0000 0000     ......@.........
   dc5e7:	0000 0000 0000 0040 0000 0000 0000 0000     ......@.........
   dc5f7:	0800 0000 0000 0020 0000 0000 0000 0000     ...... .........
   dc607:	1000 0000 0000 0000 0000 0000 0000 0000     ................
   dc617:	1000 0000 0000 0010 0000 0000 0000 0000     ................
   dc627:	2000 0000 0000 0008 0000 0000 0000 0000     . ..............
   dc637:	2000 0000 0000 0008 0000 0000 0000 0000     . ..............
   dc647:	4000 0000 0000 0004 0000 0000 0000 0000     .@..............
	...
   dc667:	8f00 009f 0000 0002 0000 0000 0000 0000     ................
   dc677:	6001 c0f0 0000 0001 0000 0000 0000 0000     .`..............
   dc687:	8101 1008 0000 0001 0000 0000 0000 0000     ................
   dc697:	0203 0804 0000 8000 0000 0000 0000 0000     ................
   dc6a7:	0402 0402 0000 8000 0000 0000 0000 0000     ................
   dc6b7:	0804 0201 0000 c000 0000 0000 0000 0000     ................
   dc6c7:	1008 8000 0000 0001 0000 0000 0000 0000     ................
   dc6d7:	2008 4100 0000 2001 0000 0000 0000 0000     . .A... ........
   dc6e7:	2010 4000 0080 1002 0000 0000 0000 0000     . .@............
   dc6f7:	4010 2000 0040 1004 0000 0000 0000 0000     .@. @...........
   dc707:	8010 2000 0040 1004 0000 0000 0000 0000     ... @...........
   dc717:	8010 1000 0020 1008 0000 0000 0000 0000     .... ...........
   dc727:	0009 0800 0020 2000 0000 0000 0000 0000     .... .. ........
   dc737:	000a 0800 0010 2010 0000 0000 0000 0000     ....... ........
   dc747:	0006 0400 0008 4020 0000 0000 0000 0000     ...... @........
   dc757:	0000 0200 0000 8000 0000 0000 0000 0000     ................
   dc767:	0002 0200 0004 8040 0000 0000 0000 0000     ......@.........
   dc777:	0001 0100 0002 0081 0000 0000 0000 0000     ................
   dc787:	0001 0000 0181 0003 0000 0000 0000 0000     ................
   dc797:	8000 0000 8240 000e 0000 0000 0000 0000     ....@...........
   dc7a7:	0000 0000 2810 0010 0000 0000 0000 0000     .....(..........
   dc7b7:	4000 0000 ef07 00c4 0000 0000 0000 0000     .@..............
   dc7c7:	2000 0000 0000 0008 0000 0000 0000 0000     . ..............
   dc7d7:	2000 0000 0000 0008 0000 0000 0000 0000     . ..............
   dc7e7:	1000 0000 0000 0010 0000 0000 0000 0000     ................
   dc7f7:	1000 0000 0000 0010 0000 0000 0000 0000     ................
   dc807:	0800 0000 0000 0020 0000 0000 0000 0000     ...... .........
	...
   dc827:	0400 0000 0000 0040 0000 0000 0000 0000     ......@.........
   dc837:	0200 0000 0000 0080 0000 0000 0000 0000     ................
   dc847:	0200 0000 0000 0080 0000 0000 0000 0000     ................
   dc857:	0100 0000 0100 0000 0000 0000 0000 0000     ................
   dc867:	0100 0000 0100 0000 0000 0000 0000 0000     ................
   dc877:	0000 ff7f fcff 0000 0000 0000 6150 7472     ............Part
   dc887:	4269 6461 6567 5300 6570 7463 6172 3120     iBadge.Spectra 1
   dc897:	0038 0066 7548 696d 6964 7974 2500 4200     8.f.Humidity.%.B
   dc8a7:	7461 6574 7972 2d20 0020 6f59 2075 6f67     attery - .You go
   dc8b7:	2074 2061 656d 6873 7020 6e69 2167 4800     t a mesh ping!.H
   dc8c7:	6c65 6f6c 202c 7325 0021 6557 636c 6d6f     ello, %s!.Welcom
   dc8d7:	2065 6f74 5320 6570 7463 6172 0021 7243     e to Spectra!.Cr
   dc8e7:	6165 6574 2064 7962 6100 4720 4f4c 4142     eated by.a GLOBA
   dc8f7:	204c 6574 6d61 6100 2074 6150 7472 6369     L team.at Partic
   dc907:	656c 0021                                   le!.

000dc90b <_ZL10konamiLogo>:
	...
   dc933:	ffff 0000 0000 0000 0000 0000 0000 0100     ................
   dc943:	ffff 0000 0000 0000 0000 0000 0000 0100     ................
   dc953:	feff 0000 0000 0000 0000 0000 0000 0100     ................
   dc963:	feff 0000 0000 0000 0000 0000 0000 0300     ................
   dc973:	feff 0000 0000 0000 0000 0000 0000 0300     ................
   dc983:	fcff 0000 0000 0000 0000 0000 0000 0300     ................
   dc993:	fcff 0000 0000 0000 0000 0000 0000 0700     ................
   dc9a3:	f8ff 0000 0000 0000 0000 0000 0000 0700     ................
   dc9b3:	f8ff 0000 0000 0000 0000 0000 0000 0f00     ................
   dc9c3:	f0ff 0000 0000 0000 0000 0000 0000 1f00     ................
   dc9d3:	e0ff 0000 0000 0000 0000 0000 0000 1f00     ................
   dc9e3:	c0ff 0000 0000 0000 0000 0000 0000 3f00     ...............?
   dc9f3:	80ff 0000 0000 0000 0000 0000 0000 7f00     ................
   dca03:	00ff 0000 0000 0000 0000 0000 0000 ff01     ................
   dca13:	00fc 0000 0000 0000 0000 0000 0000 ff3f     ..............?.
   dca23:	3f80 e0ff 0000 0000 0000 0000 0300 f8ff     .?..............
   dca33:	3f00 c0ff 0000 0000 0000 0000 0f00 e0ff     .?..............
   dca43:	3f00 c0ff 0000 0000 0000 0000 1f00 c0ff     .?..............
   dca53:	7f00 c0ff 0000 0000 0000 0000 3f00 80ff     .............?..
   dca63:	7f00 80ff 0000 0000 0000 0000 3f00 80ff     .............?..
   dca73:	7f00 80ff 0000 0000 0000 0000 7f00 80ff     ................
   dca83:	ff00 80ff 0000 0000 0000 0000 ff00 00ff     ................
   dca93:	ff00 00ff 0000 0000 0000 0000 ff00 00ff     ................
   dcaa3:	ff01 00fe 0000 0000 0000 0000 ff01 00fe     ................
   dcab3:	ff01 00fe 0000 0000 0000 0000 ff01 00fe     ................
   dcac3:	ff01 00fc 0000 0000 0000 0000 ff01 00fe     ................
   dcad3:	ff03 00f8 0000 0000 0000 0000 ff03 00fc     ................
   dcae3:	ff07 00f0 0000 0000 0000 0000 ff03 00fc     ................
   dcaf3:	ff0f 00e0 0000 0000 0000 0000 ff07 00fc     ................
   dcb03:	ff7f 0080 0000 0000 0000 0000 ff07 07fc     ................
   dcb13:	f0ff 0000 0000 0000 0000 0000 0000 7f00     ................
   dcb23:	00ff 0000 0000 0000 0000 0000 0000 ff01     ................
   dcb33:	00fe 0000 0000 0000 0000 0000 0000 ff03     ................
   dcb43:	00fc 0000 0000 0000 0000 0000 0000 ff07     ................
   dcb53:	00f8 0000 0000 0000 0000 0000 0000 ff0f     ................
   dcb63:	00f0 0000 0000 0000 0000 0000 0000 ff0f     ................
   dcb73:	00f0 0000 0000 0000 0000 0000 0000 ff1f     ................
   dcb83:	00e0 0000 0000 0000 0000 0000 0000 ff3f     ..............?.
   dcb93:	00c0 0000 0000 0000 0000 0000 0000 ff3f     ..............?.
   dcba3:	00c0 0000 0000 0000 0000 0000 0000 ff7f     ................
   dcbb3:	00c0 0000 0000 0000 0000 0000 0000 ff7f     ................
   dcbc3:	0080 0000 0000 0000 0000 0000 0000 ff7f     ................
   dcbd3:	0080 0000 0000 0000 0000 0000 0000 ffff     ................
   dcbe3:	0080 0000 0000 0000 0000 0000 0000 ffff     ................
	...
   dcbff:	0000 ffff 0000 0000 0000 0000 0000 0000     ................
	...
   dcc5f:	7300 3cbe 0fe3 c01c 0000 0000 0000 0000     .s.<............
   dcc6f:	6e00 7de3 1fcf c03d 0000 0000 0000 0000     .n.}..=.........
   dcc7f:	ec00 7dc3 1f8d 8079 0000 0000 0000 0000     ...}..y.........
   dcc8f:	f900 7dc7 3f9d 807b 0000 0000 0000 0000     ...}.?{.........
   dcc9f:	d900 5fc7 36b9 80d3 0000 0000 0000 0000     ..._.6..........
   dccaf:	d901 df86 363f 00d3 0000 0000 0000 0000     ....?6..........
   dccbf:	9901 9fce 777f 00b7 0000 0000 0000 0000     .....w..........
   dcccf:	8d03 9ffc 67e1 0036 0000 0000 0000 0000     .....g6.........
   dccdf:	8c03 9ef9 67c1 0036 0000 0000 0000 0000     .....g6.........
	...

000dcd0b <_ZL18batteryMediumImage>:
   dcd0b:	ff3f ffff ffff fcff 7f00 ffff ffff ffff     ?...............
   dcd1b:	00fe ffff ffff ffff ffff ff00 ffff ffff     ................
   dcd2b:	ffff 00ff 00f0 0000 0000 0f00 f000 0000     ................
   dcd3b:	0000 0000 000f 00f0 0000 0000 0f00 f0fc     ................
   dcd4b:	0000 0000 0000 fe0f fff0 cfff c0ff 0f00     ................
   dcd5b:	f0ff ffff ffcf 00c0 ff0f fff0 9fff c0ff     ................
   dcd6b:	0f00 f00f ffff ffbf 00c0 0f0f fff0 3fff     ...............?
   dcd7b:	80ff 0f00 f00f ffff ff3f 0080 0f0f fff0     ........?.......
   dcd8b:	7ffe 00ff 0f00 f00f fcff fe7f 0000 0f0f     ................
   dcd9b:	fff0 fffc 00fe 0f00 f00f fcff fcff 0000     ................
   dcdab:	0f0f fff0 fffd 00fc 0f00 f00f f9ff fcff     ................
   dcdbb:	0000 0f0f fff0 fffb 00fc 0f00 f00f f3ff     ................
   dcdcb:	f8ff 0000 0f0f fff0 ffe3 00f0 0f00 f0ff     ................
   dcddb:	e7ff f0ff 0000 ff0f 00f0 0000 0000 0f00     ................
   dcdeb:	f0fe 0000 0000 0000 fe0f 00f0 0000 0000     ................
   dcdfb:	0f00 f000 0000 0000 0000 000f ffff ffff     ................
   dce0b:	ffff ffff ff00 ffff ffff ffff 00ff ff7f     ................
   dce1b:	ffff ffff feff 3f00 ffff ffff ffff 00fc     .......?........

000dce2b <_ZL16batteryFullImage>:
   dce2b:	ff3f ffff ffff fcff 7f00 ffff ffff ffff     ?...............
   dce3b:	00fe ffff ffff ffff ffff ff00 ffff ffff     ................
   dce4b:	ffff 00ff 00f0 0000 0000 0f00 f000 0000     ................
   dce5b:	0000 0000 000f 00f0 0000 0000 0f00 f0fc     ................
   dce6b:	0000 0000 0000 fe0f fff0 cfff c7ff 0fff     ................
   dce7b:	f0ff ffff ffcf ffc7 ff0f fff0 9fff cfff     ................
   dce8b:	0fff f00f ffff ffbf ffdf 0f0f fff0 3fff     ...............?
   dce9b:	9fff 0fff f00f ffff ff3f ffbf 0f0f fff0     ........?.......
   dceab:	7ffe 3fff 0fff f00f fcff fe7f ff3f 0f0f     ...?........?...
   dcebb:	fff0 fffc 7ffe 0fff f00f fcff fcff ff7f     ................
   dcecb:	0f0f fff0 fffd fffc 0fff f00f f9ff fcff     ................
   dcedb:	ffff 0f0f fff0 fffb fffd 0fff f00f f3ff     ................
   dceeb:	f9ff ffff 0f0f fff0 ffe3 fff3 0fff f0ff     ................
   dcefb:	e7ff f3ff ffff ff0f 00f0 0000 0000 0f00     ................
   dcf0b:	f0fe 0000 0000 0000 fe0f 00f0 0000 0000     ................
   dcf1b:	0f00 f000 0000 0000 0000 000f ffff ffff     ................
   dcf2b:	ffff ffff ff00 ffff ffff ffff 00ff ff7f     ................
   dcf3b:	ffff ffff feff 3f00 ffff ffff ffff 00fc     .......?........

000dcf4b <_ZL8meshLogo>:
   dcf4b:	3f00 f8ff 0000 0000 7f00 fcff 0000 0000     .?..............
   dcf5b:	7f00 fcff 0000 0000 ff00 fcff 0000 0000     ................
   dcf6b:	e001 0e00 0000 0000 e001 0e00 0000 0000     ................
   dcf7b:	c003 0700 0080 0000 c003 0700 0080 0000     ................
   dcf8b:	8007 0300 00c0 0000 8007 0300 00c0 0000     ................
   dcf9b:	000f 0300 00c0 0000 001e 0100 00e0 0000     ................
   dcfab:	001e 0100 00e0 0000 003c 0000 0070 0000     ........<...p...
   dcfbb:	003c 0000 0078 0000 0078 0000 ff3f 00fc     <...x...x...?...
   dcfcb:	00f0 0000 ff3f 00fe 00f0 0000 ff3f 00ff     ....?.......?...
   dcfdb:	0078 0000 ff3f 00ff 0078 0000 0038 8007     x...?...x...8...
   dcfeb:	003c 0000 0070 8007 001e 0100 00f0 c003     <...p...........
   dcffb:	001e 0100 00e0 e001 000f 0300 00c0 e001     ................
   dd00b:	000f 0300 00c0 f000 c003 0300 00c0 7800     ...............x
   dd01b:	c003 0300 00c0 7800 c003 0700 0080 7c00     .......x.......|
   dd02b:	e001 0e00 0000 3c00 ff00 fcff 0000 1e00     .......<........
   dd03b:	ff00 fcff 0000 0f00 7f00 fcff 0000 0f00     ................
   dd04b:	7f00 fcff 0000 0f00 ff00 fcff 0000 1e00     ................
   dd05b:	e001 0e00 0000 3c00 c003 0700 0080 3c00     .......<.......<
   dd06b:	c003 0700 0080 7800 c003 0700 0080 7800     .......x.......x
   dd07b:	8007 0300 00c0 f000 000f 0300 00c0 e001     ................
   dd08b:	001e 0100 00e0 e001 001e 0100 00e0 c003     ................
   dd09b:	003c 0000 0070 c003 003c 0000 0070 8007     <...p...<...p...
   dd0ab:	0078 0000 ff3f 00ef 00f0 0000 ff3f 00ff     x...?.......?...
   dd0bb:	00f0 0000 ff3f 00fe 0078 0000 ff3f 00fe     ....?...x...?...
   dd0cb:	0078 0000 0038 0000 003c 0000 0070 0000     x...8...<...p...
   dd0db:	001e 0000 0070 0000 001e 0100 00e0 0000     ....p...........
   dd0eb:	000f 0300 00c0 0000 000f 0300 00c0 0000     ................
   dd0fb:	8007 0300 00c0 0000 8007 0300 00c0 0000     ................
   dd10b:	c003 0700 0080 0000 e001 0e00 0000 0000     ................
   dd11b:	e001 0e00 0000 0000 f000 1c00 0000 0000     ................
   dd12b:	ff00 fcff 0000 0000 7f00 fcff 0000 0000     ................
   dd13b:	3f00 f8ff 0000 0000                         .?......

000dd143 <_ZL9sparkLogo>:
	...
   dd167:	0000 0100 0080 0000 0000 0000 0000 0000     ................
   dd177:	0000 0100 0080 0000 0000 0000 0000 0000     ................
   dd187:	0000 0100 0080 0000 0000 0000 0000 0000     ................
   dd197:	0000 0300 00c0 0000 0000 0000 0000 0000     ................
   dd1a7:	0000 0300 00c0 0000 0000 0000 0000 0000     ................
   dd1b7:	0000 0300 00c0 0000 0000 0000 0000 0000     ................
   dd1c7:	1800 0300 00c0 0018 0000 0000 0000 0000     ................
   dd1d7:	1c00 0700 00e0 0038 0000 0000 0000 0000     ......8.........
   dd1e7:	0700 0700 00e0 00e0 0000 0000 0000 0000     ................
   dd1f7:	0700 07e0 07e0 00e0 0000 0000 0000 0000     ................
   dd207:	0300 0ff0 0fe0 00c0 0000 0000 0000 0000     ................
   dd217:	0100 03fc 3fc0 0080 0000 0000 0000 0000     .....?..........
   dd227:	0000 81ff ff81 0000 0000 0000 0000 0000     ................
   dd237:	0000 e07f fe07 0000 0000 0000 0000 0000     ................
   dd247:	0000 f03f fc0f 0000 0000 0000 0000 0000     ..?.............
   dd257:	0000 fe3f f87f 0000 0000 0000 0000 0000     ..?.............
   dd267:	0000 ff1f f8ff 0000 0000 0000 0000 0000     ................
   dd277:	0000 ff0f f0ff 0000 0000 0000 0000 0000     ................
   dd287:	0000 ff07 e0ff 0000 0000 0000 0000 0000     ................
   dd297:	0000 ffc3 c3ff 0000 0000 0000 0000 0000     ................
   dd2a7:	0f00 ffc1 83ff 00f0 0000 0000 0000 0000     ................
   dd2b7:	ff3f fff0 0fff fcff 0000 0000 0000 0000     ?...............
   dd2c7:	ff3f fff0 0fff fcff 0000 0000 0000 0000     ?...............
   dd2d7:	0f00 ffc1 83ff 00f0 0000 0000 0000 0000     ................
   dd2e7:	0000 ff43 c2ff 0000 0000 0000 0000 0000     ..C.............
   dd2f7:	0000 ff07 e0ff 0000 0000 0000 0000 0000     ................
   dd307:	0000 ff0f f0ff 0000 0000 0000 0000 0000     ................
   dd317:	0000 ff1f f8ff 0000 0000 0000 0000 0000     ................
   dd327:	0000 fe3f f87f 0000 0000 0000 0000 0000     ..?.............
   dd337:	0000 f03f fc0f 0000 0000 0000 0000 0000     ..?.............
   dd347:	0000 e07f fe07 0000 0000 0000 0000 0000     ................
   dd357:	0000 81ff ff81 0000 0000 0000 0000 0000     ................
   dd367:	0100 03fc 3fc0 0080 0000 0000 0000 0000     .....?..........
   dd377:	0300 0ff0 0fe0 00c0 0000 0000 0000 0000     ................
   dd387:	0700 07e0 07e0 00e0 0000 0000 0000 0000     ................
   dd397:	0700 0700 00e0 00e0 0000 0000 0000 0000     ................
   dd3a7:	1c00 0700 00e0 0038 0000 0000 0000 0000     ......8.........
   dd3b7:	1800 0300 00c0 0018 0000 0000 0000 0000     ................
   dd3c7:	0000 0300 00c0 0000 0000 0000 0000 0000     ................
   dd3d7:	0000 0300 00c0 0000 0000 0000 0000 0000     ................
   dd3e7:	0000 0300 00c0 0000 0000 0000 0000 0000     ................
   dd3f7:	0000 0100 0080 0000 0000 0000 0000 0000     ................
   dd407:	0000 0100 0080 0000 0000 0000 0000 0000     ................
   dd417:	0000 0100 0080 0000 0000 0000 0000 0000     ................
	...

000dd443 <_ZL17batteryEmptyImage>:
   dd443:	ff3f ffff ffff fcff 7f00 ffff ffff ffff     ?...............
   dd453:	00fe ffff ffff ffff ffff ff00 ffff ffff     ................
   dd463:	ffff 00ff 00f0 0000 0000 0f00 f000 0000     ................
   dd473:	0000 0000 000f 00f0 0000 0000 0f00 f0fc     ................
   dd483:	0000 0000 0000 fe0f 00f0 0000 0000 0f00     ................
   dd493:	f0ff 0000 0000 0000 ff0f 00f0 0000 0000     ................
   dd4a3:	0f00 f00f 0000 0000 0000 0f0f 00f0 0000     ................
   dd4b3:	0000 0f00 f00f 0000 0000 0000 0f0f 00f0     ................
   dd4c3:	0000 0000 0f00 f00f 0000 0000 0000 0f0f     ................
   dd4d3:	00f0 0000 0000 0f00 f00f 0000 0000 0000     ................
   dd4e3:	0f0f 00f0 0000 0000 0f00 f00f 0000 0000     ................
   dd4f3:	0000 0f0f 00f0 0000 0000 0f00 f00f 0000     ................
   dd503:	0000 0000 0f0f 00f0 0000 0000 0f00 f0ff     ................
   dd513:	0000 0000 0000 ff0f 00f0 0000 0000 0f00     ................
   dd523:	f0fe 0000 0000 0000 fe0f 00f0 0000 0000     ................
   dd533:	0f00 f000 0000 0000 0000 000f ffff ffff     ................
   dd543:	ffff ffff ff00 ffff ffff ffff 00ff ff7f     ................
   dd553:	ffff ffff feff 3f00 ffff ffff ffff 00fc     .......?........
   dd563:	6f74 6577 2d72 6573 646e 7a00 6361 2d68     tower-send.zach-
   dd573:	7562 7474 6e6f 6800 6c65 6f6c 0021 656d     button.hello!.me
   dd583:	6873 702d 6e69 0067 6548 6c6c 206f 6970     sh-ping.Hello pi
   dd593:	676e 0021 6167 6574 6177 2d79 6970 676e     ng!.gateway-ping
   dd5a3:	4700 7461 7765 7961 7020 6e69 2167 7b00     .Gateway ping!.{
   dd5b3:	7422 6d65 2270 003a 222c 7568 696d 6964     "temp":.,"humidi
   dd5c3:	7974 3a22 7d00 6500 766e 732d 6e65 6f73     ty":.}.env-senso
   dd5d3:	7372 6200 7461 6574 7972 632d 6168 6772     rs.battery-charg
   dd5e3:	0065 2020 7445 6863 4120 2000 5320 656b     e.  Etch A.  Ske
   dd5f3:	6374 0068 7355 2065 6874 2065 6f6a 7379     tch.Use the joys
   dd603:	6974 6b63 2e2e 002e 6353 726f 3a65 0020     tick....Score: .
   dd613:	4147 454d 4f20 4556 2052 283a 1000 1200     GAME OVER :(....
   dd623:	1100 1300 7400 776f 7265 662d 6c75 006c     .....tower-full.
   dd633:	6f74 6577 2d72 7566 6c6c 732d 6f6c 6f6d     tower-full-slomo
   dd643:	6700 7461 7765 7961 732d 7465 7075 632d     .gateway-setup-c
   dd653:	696c 6b63 6465 5900 5345 4e00 004f 6f43     licked.YES.NO.Co
   dd663:	6e6e 6365 6974 676e 203f 7325 4e00 7465     nnecting? %s.Net
   dd673:	6f77 6b72 7220 6165 7964 203f 7325 4c00     work ready? %s.L
   dd683:	7369 6574 696e 676e 203f 7325 0f00               istening? %s.

000dd690 <_ZL19notes_MarioGameOver>:
   dd690:	000f 0000 0106 0000 0008 0000 0000 0000     ................
   dd6a0:	0008 0000 0000 0000 0008 0000 00c4 0000     ................
   dd6b0:	0008 0000 0000 0000 0004 0000 00a5 0000     ................
   dd6c0:	0004 0000 00dc 0000 0006 0000 00f7 0000     ................
   dd6d0:	0006 0000 00dc 0000 0006 0000 00d0 0000     ................
   dd6e0:	0006 0000 00e9 0000 0006 0000 00d0 0000     ................
   dd6f0:	0006 0000 00c4 0000 0008 0000 00af 0000     ................
   dd700:	0008 0000 00c4 0000 0004 0000               ............

000dd70c <_ZL13beegeesMelody>:
   dd70c:	0188 0000 01b8 0000 0000 0000 020b 0000     ................
	...
   dd724:	0188 0000 0000 0000 0000 0000 0000 0000     ................
   dd734:	014a 0000 0000 0000 0126 0000 014a 0000     J.......&...J...
   dd744:	0188 0000 0000 0000 0126 0000 014a 0000     ........&...J...
   dd754:	0000 0000 0188 0000 0000 0000 0000 0000     ................
   dd764:	0126 0000 0000 0000 014a 0000 0000 0000     &.......J.......
   dd774:	0188 0000 0000 0000 01b8 0000 0000 0000     ................
   dd784:	020b 0000 0000 0000                         ........

000dd78c <_ZL18notes_MarioStartup>:
   dd78c:	000b 0000 014a 0000 0008 0000 014a 0000     ....J.......J...
   dd79c:	0008 0000 0000 0000 0008 0000 014a 0000     ............J...
   dd7ac:	0008 0000 0000 0000 0008 0000 0106 0000     ................
   dd7bc:	0008 0000 014a 0000 0008 0000 0000 0000     ....J...........
   dd7cc:	0008 0000 0188 0000 0008 0000 0000 0000     ................
   dd7dc:	0003 0000 00c4 0000 0008 0000               ............

000dd7e8 <_ZL9sparkLogo>:
	...
   dd80c:	0000 0100 0080 0000 0000 0000 0000 0000     ................
   dd81c:	0000 0100 0080 0000 0000 0000 0000 0000     ................
   dd82c:	0000 0100 0080 0000 0000 0000 0000 0000     ................
   dd83c:	0000 0300 00c0 0000 0000 0000 0000 0000     ................
   dd84c:	0000 0300 00c0 0000 0000 0000 0000 0000     ................
   dd85c:	0000 0300 00c0 0000 0000 0000 0000 0000     ................
   dd86c:	1800 0300 00c0 0018 0000 0000 0000 0000     ................
   dd87c:	1c00 0700 00e0 0038 0000 0000 0000 0000     ......8.........
   dd88c:	0700 0700 00e0 00e0 0000 0000 0000 0000     ................
   dd89c:	0700 07e0 07e0 00e0 0000 0000 0000 0000     ................
   dd8ac:	0300 0ff0 0fe0 00c0 0000 0000 0000 0000     ................
   dd8bc:	0100 03fc 3fc0 0080 0000 0000 0000 0000     .....?..........
   dd8cc:	0000 81ff ff81 0000 0000 0000 0000 0000     ................
   dd8dc:	0000 e07f fe07 0000 0000 0000 0000 0000     ................
   dd8ec:	0000 f03f fc0f 0000 0000 0000 0000 0000     ..?.............
   dd8fc:	0000 fe3f f87f 0000 0000 0000 0000 0000     ..?.............
   dd90c:	0000 ff1f f8ff 0000 0000 0000 0000 0000     ................
   dd91c:	0000 ff0f f0ff 0000 0000 0000 0000 0000     ................
   dd92c:	0000 ff07 e0ff 0000 0000 0000 0000 0000     ................
   dd93c:	0000 ffc3 c3ff 0000 0000 0000 0000 0000     ................
   dd94c:	0f00 ffc1 83ff 00f0 0000 0000 0000 0000     ................
   dd95c:	ff3f fff0 0fff fcff 0000 0000 0000 0000     ?...............
   dd96c:	ff3f fff0 0fff fcff 0000 0000 0000 0000     ?...............
   dd97c:	0f00 ffc1 83ff 00f0 0000 0000 0000 0000     ................
   dd98c:	0000 ff43 c2ff 0000 0000 0000 0000 0000     ..C.............
   dd99c:	0000 ff07 e0ff 0000 0000 0000 0000 0000     ................
   dd9ac:	0000 ff0f f0ff 0000 0000 0000 0000 0000     ................
   dd9bc:	0000 ff1f f8ff 0000 0000 0000 0000 0000     ................
   dd9cc:	0000 fe3f f87f 0000 0000 0000 0000 0000     ..?.............
   dd9dc:	0000 f03f fc0f 0000 0000 0000 0000 0000     ..?.............
   dd9ec:	0000 e07f fe07 0000 0000 0000 0000 0000     ................
   dd9fc:	0000 81ff ff81 0000 0000 0000 0000 0000     ................
   dda0c:	0100 03fc 3fc0 0080 0000 0000 0000 0000     .....?..........
   dda1c:	0300 0ff0 0fe0 00c0 0000 0000 0000 0000     ................
   dda2c:	0700 07e0 07e0 00e0 0000 0000 0000 0000     ................
   dda3c:	0700 0700 00e0 00e0 0000 0000 0000 0000     ................
   dda4c:	1c00 0700 00e0 0038 0000 0000 0000 0000     ......8.........
   dda5c:	1800 0300 00c0 0018 0000 0000 0000 0000     ................
   dda6c:	0000 0300 00c0 0000 0000 0000 0000 0000     ................
   dda7c:	0000 0300 00c0 0000 0000 0000 0000 0000     ................
   dda8c:	0000 0300 00c0 0000 0000 0000 0000 0000     ................
   dda9c:	0000 0100 0080 0000 0000 0000 0000 0000     ................
   ddaac:	0000 0100 0080 0000 0000 0000 0000 0000     ................
   ddabc:	0000 0100 0080 0000 0000 0000 0000 0000     ................
	...

000ddae8 <_ZTV12Adafruit_GFX>:
	...
   ddaf8:	7d31 000d 9e45 000d 40a5 000d 7181 000d     1}..E....@...q..
   ddb08:	72a1 000d 72bd 000d 7241 000d 72d7 000d     .r...r..Ar...r..
   ddb18:	730f 000d 732b 000d                         .s..+s..

000ddb20 <_ZL4font>:
   ddb20:	0000 0000 3e00 4f5b 3e5b 6b3e 6b4f 1c3e     .....>[O[>>kOk>.
   ddb30:	7c3e 1c3e 3c18 3c7e 1c18 7d57 1c57 5e1c     >|>..<~<..W}W..^
   ddb40:	5e7f 001c 3c18 0018 e7ff e7c3 00ff 2418     .^...<.........$
   ddb50:	0018 e7ff e7db 30ff 3a48 0e06 2926 2979     .......0H:..&)y)
   ddb60:	4026 057f 0705 7f40 2505 5a3f e73c 5a3c     &@....@..%?Z<.<Z
   ddb70:	3e7f 1c1c 0808 1c1c 7f3e 2214 227f 5f14     .>......>.."."._
   ddb80:	005f 5f5f 0906 017f 007f 8966 6a95 6060     _.__......f..j``
   ddb90:	6060 9460 ffa2 94a2 0408 047e 1008 7e20     ```.......~... ~
   ddba0:	1020 0808 1c2a 0808 2a1c 0808 101e 1010      ...*....*......
   ddbb0:	0c10 0c1e 0c1e 3830 383e 0630 3e0e 060e     ......08>80..>..
   ddbc0:	0000 0000 0000 5f00 0000 0700 0700 1400     ......._........
   ddbd0:	147f 147f 2a24 2a7f 2312 0813 6264 4936     ....$*.*.#..db6I
   ddbe0:	2056 0050 0708 0003 1c00 4122 0000 2241     V P......."A..A"
   ddbf0:	001c 1c2a 1c7f 082a 3e08 0808 8000 3070     ..*...*..>....p0
   ddc00:	0800 0808 0808 0000 6060 2000 0810 0204     ........``. ....
   ddc10:	513e 4549 003e 7f42 0040 4972 4949 2146     >QIE>.B.@.rIIIF!
   ddc20:	4941 334d 1418 7f12 2710 4545 3945 4a3c     AIM3.....'EEE9<J
   ddc30:	4949 4131 1121 0709 4936 4949 4636 4949     II1A!...6III6FII
   ddc40:	1e29 0000 0014 0000 3440 0000 0800 2214     ).......@4....."
   ddc50:	1441 1414 1414 4100 1422 0208 5901 0609     A......A"....Y..
   ddc60:	413e 595d 7c4e 1112 7c12 497f 4949 3e36     >A]YN|...|.III6>
   ddc70:	4141 2241 417f 4141 7f3e 4949 4149 097f     AAA".AAA>.IIIA..
   ddc80:	0909 3e01 4141 7351 087f 0808 007f 7f41     ...>AAQs......A.
   ddc90:	0041 4020 3f41 7f01 1408 4122 407f 4040     A. @A?...."A.@@@
   ddca0:	7f40 1c02 7f02 047f 1008 3e7f 4141 3e41     @..........>AAA>
   ddcb0:	097f 0909 3e06 5141 5e21 097f 2919 2646     .....>AQ!^...)F&
   ddcc0:	4949 3249 0103 017f 3f03 4040 3f40 201f     III2.....?@@@?. 
   ddcd0:	2040 3f1f 3840 3f40 1463 1408 0363 7804     @ .?@8@?c...c..x
   ddce0:	0304 5961 4d49 0043 417f 4141 0402 1008     ..aYIMC..AAA....
   ddcf0:	0020 4141 7f41 0204 0201 4004 4040 4040      .AAA......@@@@@
   ddd00:	0300 0807 2000 5454 4078 287f 4444 3838     ..... TTx@.(DD88
   ddd10:	4444 2844 4438 2844 387f 5454 1854 0800     DDD(8DD(.8TTT...
   ddd20:	097e 1802 a4a4 789c 087f 0404 0078 7d44     ~......x....x.D}
   ddd30:	0040 4020 3d40 7f00 2810 0044 4100 407f     @. @@=...(D..A.@
   ddd40:	7c00 7804 7804 087c 0404 3878 4444 3844     .|.x.x|...x8DDD8
   ddd50:	18fc 2424 1818 2424 fc18 087c 0404 4808     ..$$..$$..|....H
   ddd60:	5454 2454 0404 443f 3c24 4040 7c20 201c     TTT$..?D$<@@ |. 
   ddd70:	2040 3c1c 3040 3c40 2844 2810 4c44 9090     @ .<@0@<D(.(DL..
   ddd80:	7c90 6444 4c54 0044 3608 0041 0000 0077     .|DdTLD..6A...w.
   ddd90:	0000 3641 0008 0102 0402 3c02 2326 3c26     ..A6.......<&#&<
   ddda0:	a11e 61a1 3a12 4040 7a20 5438 5554 2159     ...a.:@@ z8TTUY!
   dddb0:	5555 4179 5421 7854 2141 5455 4078 5420     UUyA!TTxA!UTx@ T
   dddc0:	7955 0c40 521e 1272 5539 5555 3959 5454     Uy@..Rr.9UUUY9TT
   dddd0:	5954 5539 5454 0058 4500 417c 0200 7d45     TY9UTTX..E|A..E}
   ddde0:	0042 4501 407c 29f0 2924 f0f0 2528 f028     B..E|@.)$)..(%(.
   dddf0:	547c 4555 2000 5454 547c 0a7c 7f09 3249     |TUE. TT|T|...I2
   dde00:	4949 3249 4832 4848 3232 484a 3048 413a     III22HHH22JHH0:A
   dde10:	2141 3a7a 4042 7820 9d00 a0a0 397d 4444     A!z:B@ x....}9DD
   dde20:	3944 403d 4040 3c3d ff24 2424 7e48 4349     D9=@@@=<$.$$H~IC
   dde30:	2b66 fc2f 2b2f 09ff f629 c020 7e88 0309     f+/./+..). ..~..
   dde40:	5420 7954 0041 4400 417d 4830 4a48 3832      TTyA..D}A0HHJ28
   dde50:	4040 7a22 7a00 0a0a 7d72 190d 7d31 2926     @@"z.z..r}..1}&)
   dde60:	2f29 2628 2929 2629 4830 404d 3820 0808     )/(&)))&0HM@ 8..
   dde70:	0808 0808 0808 2f38 c810 baac 102f 3428     ......8/..../.(4
   dde80:	00fa 7b00 0000 1408 142a 2222 2a14 0814     ...{....*."".*..
   dde90:	00aa 0055 aaaa aa55 aa55 0000 ff00 1000     ..U...U.U.......
   ddea0:	1010 00ff 1414 ff14 1000 ff10 ff00 1010     ................
   ddeb0:	10f0 14f0 1414 00fc 1414 00f7 00ff ff00     ................
   ddec0:	ff00 1414 04f4 14fc 1714 1f10 1010 101f     ................
   dded0:	141f 1414 001f 1010 f010 0000 0000 101f     ................
   ddee0:	1010 1f10 1010 1010 10f0 0000 ff00 1010     ................
   ddef0:	1010 1010 1010 ff10 0010 0000 14ff 0000     ................
   ddf00:	00ff 00ff 1f00 1710 0000 04fc 14f4 1714     ................
   ddf10:	1710 1414 04f4 00f4 ff00 f700 1414 1414     ................
   ddf20:	1414 f714 f700 1414 1714 1014 1f10 1f10     ................
   ddf30:	1414 f414 1014 f010 f010 0000 101f 001f     ................
   ddf40:	0000 141f 0000 fc00 0014 f000 f010 1010     ................
   ddf50:	10ff 14ff 1414 14ff 1010 1f10 0000 0000     ................
   ddf60:	10f0 ffff ffff f0ff f0f0 f0f0 ffff 00ff     ................
   ddf70:	0000 0000 ffff 0f0f 0f0f 380f 4444 4438     ...........8DD8D
   ddf80:	2a7c 3e2a 7e14 0202 0606 7e02 7e02 6302     |**>.~.....~.~.c
   ddf90:	4955 6341 4438 3c44 4004 207e 201e 0206     UIAc8DD<.@~ . ..
   ddfa0:	027e 9902 e7a5 99a5 2a1c 2a49 4c1c 0172     ~........*I*.Lr.
   ddfb0:	4c72 4a30 4d4d 3030 7848 3048 62bc 465a     rL0JMM00HxH0.bZF
   ddfc0:	3e3d 4949 0049 017e 0101 2a7e 2a2a 2a2a     =>III.~...~*****
   ddfd0:	4444 445f 4044 4a51 4044 4440 514a 0040     DD_DD@QJD@@DJQ@.
   ddfe0:	ff00 0301 80e0 00ff 0800 6b08 086b 1236     ...........kk.6.
   ddff0:	2436 0636 090f 060f 0000 1818 0000 1000     6$6.............
   de000:	0010 4030 01ff 0001 011f 1e01 1900 171d     ..0@............
   de010:	0012 3c3c 3c3c 0000 0000 0000               ..<<<<......

000de01c <_ZTV16Adafruit_SSD1306>:
	...
   de024:	40e9 000d 486d 000d 7d31 000d 9e45 000d     .@..mH..1}..E...
   de034:	80d5 000d 7181 000d 7f39 000d 7dc5 000d     .....q..9....}..
   de044:	7241 000d 72d7 000d 730f 000d 732b 000d     Ar...r...s..+s..

000de054 <_ZTVSt15_Sp_counted_ptrIPN8particle6detail10FutureImplIbNS1_13FutureContextEEELN9__gnu_cxx12_Lock_policyE0EE>:
	...
   de05c:	92fd 000d 9303 000d 932b 000d 930f 000d     ........+.......
   de06c:	92ff 000d                                   ....

000de070 <_ZTV7TwoWire>:
	...
   de078:	989d 000d 98e7 000d 98bf 000d 989f 000d     ................
   de088:	98c7 000d 98cf 000d 98d7 000d 98df 000d     ................

000de098 <_ZTV9IPAddress>:
	...
   de0a0:	99e1 000d 70f1 000d 7115 000d 6e6c 6600     .....p...q..ln.f
   de0b0:	006e 6f63 6564 6400 7465 6961 006c 0a0d     n.code.detail...
   de0c0:	2500 3130 7530 0020 205d 2c00 0020 2928     .%010u .] ., .()
   de0d0:	203a 2000 005b 6f63 6564 3d20 0020 6925     : . [.code = .%i
   de0e0:	6400 7465 6961 736c 3d20 0020 6162 6475     .details = .baud
   de0f0:	5300 7265 6169 006c 6553 6972 6c61 0031     .Serial.Serial1.
   de100:	7974 6570 7000 7261 6d61 6300 646d 6900     type.param.cmd.i
   de110:	0064 6e68 0064 7473 6d72 6600 6c69 0074     d.hnd.strm.filt.
   de120:	766c 006c 6461 4864 6e61 6c64 7265 7200     lvl.addHandler.r
   de130:	6d65 766f 4865 6e61 6c64 7265 6500 756e     emoveHandler.enu
   de140:	486d 6e61 6c64 7265 0073 534a 4e4f 7453     mHandlers.JSONSt
   de150:	6572 6d61 6f4c 4867 6e61 6c64 7265 6100     reamLogHandler.a
   de160:	7070 6e00 6e6f 0065 7274 6361 0065 6e69     pp.none.trace.in
   de170:	6f66 7700 7261 006e 7265 6f72 0072 6170     fo.warn.error.pa
   de180:	696e 0063 6c61 006c                         nic.all.

000de188 <_ZTVN5spark12NetworkClassE>:
	...
   de190:	40a5 000d                                   .@..

000de194 <_ZTVN5spark9MeshClassE>:
	...
   de19c:	9ac9 000d 6666 3330 3a3a 3a31 3031 3130     ....ff03::1:1001
   de1ac:	7400 3168 7700 7269 6e69 0067 6170 7372     .th1.wiring.pars
   de1bc:	2065 6170 6b63 7465 2520 0064               e packet %d.

000de1c8 <_ZTV8SPIClass>:
	...
   de1d0:	a039 000d a03b 000d                         9...;...

000de1d8 <_ZL14clock_divisors>:
   de1d8:	0800 1810 2820 3830                         .... (08

000de1e0 <_ZTV21StringPrintableHelper>:
	...
   de1e8:	a14f 000d a151 000d a359 000d a32b 000d     O...Q...Y...+...
   de1f8:	005a 2b25 3330 3a64 3025 7532 2500 2d59     Z.%+03d:%02u.%Y-
   de208:	6d25 252d 5464 4825 253a 3a4d 5325 7a25     %m-%dT%H:%M:%S%z
   de218:	6100 6373 6974 656d 7200 6365 6965 6576     .asctime.receive
   de228:	2064 6425 6220 7479 7365 6620 6f72 206d     d %d bytes from 
   de238:	7325 253a 0064 6573 646e 6150 6b63 7465     %s:%d.sendPacket
   de248:	7320 7a69 2065 6425 202c 7325 253a 0064      size %d, %s:%d.
   de258:	6562 6967 206e 6170 6b63 7465 2520 3a73     begin packet %s:
   de268:	6425 0000                                   %d..

000de26c <_ZTV3UDP>:
	...
   de274:	70f5 000d 7121 000d a4a1 000d a5cf 000d     .p..!q..........
   de284:	a499 000d a4b7 000d a4d5 000d a4ef 000d     ................
   de294:	a513 000d a5b3 000d a965 000d a8e9 000d     ........e.......
   de2a4:	a71d 000d a489 000d ab05 000d a6a1 000d     ................
   de2b4:	a921 000d aacb 000d a5f9 000d a48f 000d     !...............
   de2c4:	a8c9 000d a495 000d a4f1 000d fff0 ffff     ................
   de2d4:	0000 0000 a50b 000d                         ........

000de2dc <_ZTV11USARTSerial>:
	...
   de2e4:	ab85 000d aba9 000d abb5 000d 9e45 000d     ............E...
   de2f4:	ab91 000d ab9d 000d ab97 000d aba3 000d     ................
   de304:	ab87 000d ab8b 000d                         ........

000de30c <_ZTV9USBSerial>:
	...
   de314:	ac5d 000d aca1 000d ac7b 000d 9e45 000d     ].......{...E...
   de324:	ac75 000d ac5f 000d ac67 000d ac9b 000d     u..._...g.......
   de334:	ac6f 000d ac59 000d                         o...Y...

000de33c <__sf_fake_stdin>:
	...

000de35c <__sf_fake_stdout>:
	...

000de37c <__sf_fake_stderr>:
	...
   de39c:	0043                                        C.

000de39e <link_const_variable_data_end>:
	...

000de3a0 <link_constructors_location>:
   de3a0:	000d4879 	.word	0x000d4879
   de3a4:	000d5be1 	.word	0x000d5be1
   de3a8:	000d62ed 	.word	0x000d62ed
   de3ac:	000d66d9 	.word	0x000d66d9
   de3b0:	000d7135 	.word	0x000d7135
   de3b4:	000d9ab9 	.word	0x000d9ab9
   de3b8:	000d9e1d 	.word	0x000d9e1d
   de3bc:	000da01d 	.word	0x000da01d
   de3c0:	000da405 	.word	0x000da405
   de3c4:	000da421 	.word	0x000da421
   de3c8:	000db101 	.word	0x000db101
   de3cc:	000db155 	.word	0x000db155
   de3d0:	000db219 	.word	0x000db219
   de3d4:	000db29d 	.word	0x000db29d
   de3d8:	000db321 	.word	0x000db321

000de3dc <link_constructors_end>:
   de3dc:	00000000 	.word	0x00000000
